a:HEAP8
b:HEAP16
c:HEAP32
d:HEAPU8
e:HEAPU16
f:HEAPU32
g:HEAPF32
h:HEAPF64
i:tempDoublePtr
j:EMTSTACKTOP
k:EMT_STACK_MAX
l:eb
m:__THREW__
n:threwValue
o:setjmpId
p:tempInt
q:tempBigInt
r:tempBigIntS
s:tempValue
t:tempDouble
u:nan
v:inf
w:Math_floor
x:Math_abs
y:Math_sqrt
z:Math_pow
A:Math_cos
B:Math_sin
C:Math_tan
D:Math_acos
E:Math_asin
F:Math_atan
G:Math_atan2
H:Math_exp
I:Math_log
J:Math_ceil
K:Math_imul
L:Math_min
M:Math_max
N:Math_clz32
O:abort
P:setTempRet0
Q:getTempRet0
R:abortStackOverflowEmterpreter
S:_SDL_AudioQuit
T:_SDL_CloseAudio
U:_SDL_CreateRGBSurface
V:_SDL_Delay
W:_SDL_FillRect
X:_SDL_Flip
Y:_SDL_FreeSurface
Z:_SDL_GetError
_:_SDL_GetKeyName
$:_SDL_GetModState
aa:_SDL_GetTicks
ba:_SDL_GetVideoInfo
ca:_SDL_Init
da:_SDL_InitSubSystem
ea:_SDL_JoystickClose
fa:_SDL_JoystickEventState
ga:_SDL_JoystickGetAxis
ha:_SDL_JoystickGetButton
ia:_SDL_JoystickGetHat
ja:_SDL_JoystickName
ka:_SDL_JoystickNumAxes
la:_SDL_JoystickNumButtons
ma:_SDL_JoystickNumHats
na:_SDL_JoystickOpen
oa:_SDL_JoystickUpdate
pa:_SDL_LockAudio
qa:_SDL_LockSurface
ra:_SDL_MapRGB
sa:_SDL_NumJoysticks
ta:_SDL_OpenAudio
ua:_SDL_PauseAudio
va:_SDL_PollEvent
wa:_SDL_Quit
xa:_SDL_SetAlpha
ya:_SDL_SetColors
za:_SDL_SetPalette
Aa:_SDL_SetVideoMode
Ba:_SDL_ShowCursor
Ca:_SDL_UnlockAudio
Da:_SDL_UnlockSurface
Ea:_SDL_UpperBlit
Fa:_SDL_VideoModeOK
Ga:_SDL_WM_GrabInput
Ha:_SDL_WM_SetCaption
Ia:_SDL_WaitEvent
Ja:___assert_fail
Ka:___buildEnvironment
La:___cxa_allocate_exception
Ma:___cxa_begin_catch
Na:___cxa_throw
Oa:___exception_addRef
Pa:___exception_deAdjust
Qa:___gxx_personality_v0
Ra:___lock
Sa:___map_file
Ta:___setErrNo
Ua:___syscall10
Va:___syscall15
Wa:___syscall183
Xa:___syscall194
Ya:___syscall195
Za:___syscall197
_a:___syscall20
$a:___syscall220
ab:___syscall221
bb:___syscall33
cb:___syscall38
db:___syscall39
eb:___syscall4
fb:___syscall40
gb:___syscall5
hb:___syscall54
ib:___syscall60
jb:___syscall91
kb:___unlock
lb:___wasi_fd_close
mb:___wasi_fd_fdstat_get
nb:___wasi_fd_read
ob:___wasi_fd_seek
pb:___wasi_fd_write
qb:__addDays
rb:__arraySum
sb:__emscripten_syscall_munmap
tb:__fillMouseEventData
ub:__fillPointerlockChangeEventData
vb:__findEventTarget
wb:__isLeapYear
xb:__registerMouseEventCallback
yb:__registerPointerlockChangeEventCallback
zb:__requestPointerLock
Ab:_abort
Bb:_clock_gettime
Cb:_emscripten_asm_const_i
Db:_emscripten_asm_const_ii
Eb:_emscripten_asm_const_iii
Fb:_emscripten_cancel_main_loop
Gb:_emscripten_exit_pointerlock
Hb:_emscripten_fetch
Ib:_emscripten_fetch_attr_init
Jb:_emscripten_fetch_close
Kb:_emscripten_force_exit
Lb:_emscripten_get_heap_size
Mb:_emscripten_get_now
Nb:_emscripten_get_now_is_monotonic
Ob:_emscripten_get_pointerlock_status
Pb:_emscripten_memcpy_big
Qb:_emscripten_request_pointerlock
Rb:_emscripten_resize_heap
Sb:_emscripten_set_main_loop
Tb:_emscripten_set_main_loop_timing
Ub:_emscripten_set_mousedown_callback_on_thread
Vb:_emscripten_set_pointerlockchange_callback_on_thread
Wb:_emscripten_sleep
Xb:_emscripten_sleep_with_yield
Yb:_execl
Zb:_execlp
_b:_execvp
$b:_exit
ac:_fd_close
bc:_fd_fdstat_get
cc:_fd_read
dc:_fd_seek
ec:_fd_write
fc:_getenv
gc:_getpwnam
hc:_llvm_exp2_f32
ic:_llvm_exp2_f64
jc:_llvm_stackrestore
kc:_llvm_stacksave
lc:_llvm_trap
mc:_localtime
nc:_localtime_r
oc:_mktime
pc:_putenv
qc:_strftime
rc:_strftime_l
sc:_time
tc:_tzset
uc:abortOnCannotGrowMemory
vc:demangle
wc:demangleAll
xc:jsStackTrace
yc:stackTrace
zc:STACKTOP
Ac:STACK_MAX
Bc:tempFloat
Cc:asyncState
Dc:FUNCTION_TABLE_i
Ec:FUNCTION_TABLE_ii
Fc:FUNCTION_TABLE_iidiiii
Gc:FUNCTION_TABLE_iii
Hc:FUNCTION_TABLE_iiii
Ic:FUNCTION_TABLE_iiiii
Jc:FUNCTION_TABLE_iiiiid
Kc:FUNCTION_TABLE_iiiiii
Lc:FUNCTION_TABLE_iiiiiid
Mc:FUNCTION_TABLE_iiiiiii
Nc:FUNCTION_TABLE_iiiiiiii
Oc:FUNCTION_TABLE_iiiiiiiii
Pc:FUNCTION_TABLE_v
Qc:FUNCTION_TABLE_vi
Rc:FUNCTION_TABLE_vidi
Sc:FUNCTION_TABLE_vii
Tc:FUNCTION_TABLE_viii
Uc:FUNCTION_TABLE_viiii
Vc:FUNCTION_TABLE_viiiii
Wc:FUNCTION_TABLE_viiiiii
Xc:emterpret
Yc:__Z19CPU_Core_Simple_Runv
Zc:__Z19CPU_Core_Normal_Runv
_c:__Z21CPU_Core_Prefetch_Runv
$c:__Z7Hq3x_32PjS_S_PKj
ad:__Z7Hq3x_16PtS_S_PKt
bd:__Z7Hq2x_32PjS_PKj
cd:__Z17CPU_Core_Full_Runv
dd:__Z7Hq2x_16PtS_PKt
ed:__Z11DOSBOX_Initv
fd:__ZN12_GLOBAL__N_116itanium_demangle22AbstractManglingParserINS0_14ManglingParserINS_16DefaultAllocatorEEES3_E9parseExprEv
gd:__ZN6CONFIG3RunEv
hd:_inflate
id:__ZL13DOS_21Handlerv
jd:__ZN4OPL315adlib_getsampleEPsi
kd:_deflate
ld:__ZN8IMGMOUNT3RunEv
md:__ZNSt3__29money_getIcNS_19istreambuf_iteratorIcNS_11char_traitsIcEEEEE8__do_getERS4_S4_bRKNS_6localeEjRjRbRKNS_5ctypeIcEERNS_10unique_ptrIcPFvPvEEERPcSM_
nd:__ZNSt3__29money_getIwNS_19istreambuf_iteratorIwNS_11char_traitsIwEEEEE8__do_getERS4_S4_bRKNS_6localeEjRjRbRKNS_5ctypeIwEERNS_10unique_ptrIwPFvPvEEERPwSM_
od:__ZL13INT10_Handlerv
pd:__ZN5MOUNT3RunEv
qd:__ZN3CPU13Change_ConfigEP7Section
rd:__Z18INT10_SetVideoModet
sd:__Z9FillFlagsv
td:__ZN12_GLOBAL__N_116itanium_demangle22AbstractManglingParserINS0_14ManglingParserINS_16DefaultAllocatorEEES3_E9parseTypeEv
ud:__ZL16AdvInterp3x_16_Rv
vd:__ZL16AdvInterp3x_16_Lv
wd:__ZL16AdvInterp3x_15_Rv
xd:__ZL16AdvInterp3x_15_Lv
yd:__ZN12_GLOBAL__N_116itanium_demangle22AbstractManglingParserINS0_14ManglingParserINS_16DefaultAllocatorEEES3_E13parseFoldExprEv
zd:__ZL16AdvInterp3x_32_Rv
Ad:__ZL16AdvInterp3x_32_Lv
Bd:__ZN12_GLOBAL__N_116itanium_demangle22AbstractManglingParserINS0_14ManglingParserINS_16DefaultAllocatorEEES3_E17parseOperatorNameEPNS5_9NameStateE
Cd:__ZNSt3__212__next_primeEm
Dd:__ZN8AUTOEXECC2EP7Section
Ed:__ZN21CDROM_Interface_Image12LoadCueSheetEPc
Fd:__ZL14AdvMame3x_16_Rv
Gd:__ZL14AdvMame3x_16_Lv
Hd:__ZL13AdvMame3x_8_Rv
Id:__ZL11GUI_StartUpP7Section
Jd:__ZL13AdvMame3x_8_Lv
Kd:__ZL14AdvMame3x_32_Rv
Ld:__ZL14AdvMame3x_32_Lv
Md:_vfscanf
Nd:__Z19CALLBACK_SetupExtrajjjb
Od:__Z16VGA_SetupDrawingj
Pd:__ZN4BOOT3RunEv
Qd:__Z15FillFlagsNoCFOFv
Rd:__ZN4OPL215adlib_getsampleEPsi
Sd:__Z11RENDER_InitP7Section
Td:__Z11DOS_ExecutePcjh
Ud:__ZL13DSP_DoCommandv
Vd:__ZN12_GLOBAL__N_116itanium_demangle22AbstractManglingParserINS0_14ManglingParserINS_16DefaultAllocatorEEES3_E16parseExprPrimaryEv
Wd:_build_tree
Xd:__ZN9DOS_Shell8CMD_COPYEPc
Yd:__Z14Config_Add_SDLv
Zd:__ZL13INT67_Handlerv
_d:_printf_core
$d:__tr_flush_block
ae:_fmt_fp
be:__ZL12CreateLayoutv
ce:__ZL16AdvInterp2x_16_Rv
de:_decfloat
ee:__ZL16AdvInterp2x_15_Rv
fe:__ZL16AdvInterp2x_16_Lv
ge:__ZL16AdvInterp2x_15_Lv
he:__ZL16AdvInterp2x_32_Rv
ie:_main
je:__Z20INT10_SetupRomMemoryv
ke:__ZL16AdvInterp2x_32_Lv
le:__ZN15keyboard_layout18read_keyboard_fileEPKcii
me:__ZL16GenerateDMASoundj
ne:__ZN9DOS_Shell7CMD_DIREPc
oe:__ZNSt3__211__money_putIcE13__gather_infoEbbRKNS_6localeERNS_10money_base7patternERcS8_RNS_12basic_stringIcNS_11char_traitsIcEENS_9allocatorIcEEEESF_SF_Ri
pe:__ZN10device_CON5WriteEPhPt
qe:__ZNSt3__211__money_putIwE13__gather_infoEbbRKNS_6localeERNS_10money_base7patternERwS8_RNS_12basic_stringIcNS_11char_traitsIcEENS_9allocatorIcEEEERNS9_IwNSA_IwEENSC_IwEEEESJ_Ri
re:_deflate_slow
se:__ZN3GUSC2EP7Section
te:__ZN12_GLOBAL__N_116itanium_demangle22AbstractManglingParserINS0_14ManglingParserINS_16DefaultAllocatorEEES3_E16parseSpecialNameEv
ue:__ZNKSt3__28time_getIwNS_19istreambuf_iteratorIwNS_11char_traitsIwEEEEE6do_getES4_S4_RNS_8ios_baseERjP2tmcc
ve:__ZNKSt3__28time_getIcNS_19istreambuf_iteratorIcNS_11char_traitsIcEEEEE6do_getES4_S4_RNS_8ios_baseERjP2tmcc
we:__ZNSt3__211__money_getIcE13__gather_infoEbRKNS_6localeERNS_10money_base7patternERcS8_RNS_12basic_stringIcNS_11char_traitsIcEENS_9allocatorIcEEEESF_SF_SF_Ri
xe:__ZNSt3__211__money_getIwE13__gather_infoEbRKNS_6localeERNS_10money_base7patternERwS8_RNS_12basic_stringIcNS_11char_traitsIcEENS_9allocatorIcEEEERNS9_IwNSA_IwEENSC_IwEEEESJ_SJ_Ri
ye:__ZL8DoString9STRING_OP
ze:__ZL8DoString9STRING_OP_373
Ae:__ZL8DoString9STRING_OP_284
Be:_inflate_table
Ce:__Z9DOS_IOCTLv
De:__ZL13INT33_Handlerv
Ee:__zip_dirent_write
Fe:__ZN12_GLOBAL__N_116itanium_demangle22AbstractManglingParserINS0_14ManglingParserINS_16DefaultAllocatorEEES3_E15parseNestedNameEPNS5_9NameStateE
Ge:_zip_close
He:_read_file
Ie:__ZN4OPL311adlib_writeEjh
Je:_inflate_fast
Ke:_add_data
Le:__ZL13INT15_Handlerv
Me:__zip_dirent_read
Ne:___intscan
Oe:__ZN5DBOPL7Channel13BlockTemplateILNS_9SynthModeE11EEEPS0_PNS_4ChipEjPi
Pe:_deflate_fast
Qe:__ZN5DBOPL7Channel13BlockTemplateILNS_9SynthModeE10EEEPS0_PNS_4ChipEjPi
Re:__Z15KEYBOARD_AddKey8KBD_KEYSb
Se:_realloc
Te:__ZN4BIOSC2EP7Section
Ue:__ZL14AdvMame2x_16_Rv
Ve:__ZNKSt3__28time_getIcNS_19istreambuf_iteratorIcNS_11char_traitsIcEEEEE3getES4_S4_RNS_8ios_baseERjP2tmPKcSC_
We:__ZL13AdvMame2x_8_Rv
Xe:__Z8CPU_IRETbj
Ye:__ZL14AdvMame2x_32_Rv
Ze:__ZNKSt3__28time_getIwNS_19istreambuf_iteratorIwNS_11char_traitsIwEEEEE3getES4_S4_RNS_8ios_baseERjP2tmPKwSC_
_e:__ZN12_GLOBAL__N_116itanium_demangle22AbstractManglingParserINS0_14ManglingParserINS_16DefaultAllocatorEEES3_E17parseFunctionTypeEv
$e:__ZN8SBLASTERC2EP7Section
af:__ZL14AdvMame2x_16_Lv
bf:_send_tree
cf:__ZL13AdvMame2x_8_Lv
df:__ZL14AdvMame2x_32_Lv
ef:__ZL12RENDER_Resetv
ff:__ZN9DOS_Shell7ExecuteEPcS0_
gf:__ZL16MPU401_WriteDatajjj
hf:__ZL22DOS_MultiplexFunctionsv
jf:__ZN12_GLOBAL__N_116itanium_demangle22AbstractManglingParserINS0_14ManglingParserINS_16DefaultAllocatorEEES3_E19parseUnresolvedNameEv
kf:__ZL11V86_Monitorv
lf:__Z21INT10_VideoState_Savejj
mf:__ZN9DOS_Shell9CMD_CHDIREPc
nf:__ZN11GUSChannels15generateSamplesEPij
of:__ZL15DOSBOX_RealInitP7Section
pf:__Z14CPU_SwitchTaskj11TSwitchTypej
qf:__Z9_2xSaI_16PtS_PKt
rf:__ZL12IRQ1_Handlerv
sf:__Z8CPU_CALLbjjj
tf:__ZL17INT13_DiskHandlerv
uf:__zip_read_cdir
vf:__Z12DOS_MakeNamePKcPcPh
wf:__ZN11CommandLine21FindStringRemainBeginEPKcRNSt3__212basic_stringIcNS2_11char_traitsIcEENS2_9allocatorIcEEEE
xf:__ZNK6Config11PrintConfigEPKc
yf:__Z13CPU_Interruptjjj
zf:_hexfloat
Af:__ZN5Adlib6ModuleC2EP7Section
Bf:__ZL18MSCDEX_IOCTL_Inputjh
Cf:__ZL12cmos_readregjj
Df:__Z24INT10_SetVideoMode_OTHERtb
Ef:__Z24INT10_VideoState_Restorejj
Ff:__ZNSt3__220__get_up_to_n_digitsIcNS_19istreambuf_iteratorIcNS_11char_traitsIcEEEEEEiRT0_S5_RjRKNS_5ctypeIT_EEi
Gf:__ZN10TANDYSOUNDC2EP7Section
Hf:__ZN5DBOPL7Channel13BlockTemplateILNS_9SynthModeE8EEEPS0_PNS_4ChipEjPi
If:__ZN8fatDriveC2EPKcjjjjj
Jf:__Z9_2xSaI_32PjS_PKj
Kf:__Z27VESA_GetSVGAModeInformationttt
Lf:__ZNKSt3__27num_getIwNS_19istreambuf_iteratorIwNS_11char_traitsIwEEEEE17__do_get_unsignedIyEES4_S4_S4_RNS_8ios_baseERjRT_
Mf:__ZNKSt3__27num_getIcNS_19istreambuf_iteratorIcNS_11char_traitsIcEEEEE17__do_get_unsignedIyEES4_S4_S4_RNS_8ios_baseERjRT_
Nf:__ZL18CreateDefaultBindsv
Of:__ZNKSt3__27num_getIwNS_19istreambuf_iteratorIwNS_11char_traitsIwEEEEE15__do_get_signedIxEES4_S4_S4_RNS_8ios_baseERjRT_
Pf:__ZNKSt3__27num_getIcNS_19istreambuf_iteratorIcNS_11char_traitsIcEEEEE15__do_get_signedIxEES4_S4_S4_RNS_8ios_baseERjRT_
Qf:__ZNKSt3__27num_getIwNS_19istreambuf_iteratorIwNS_11char_traitsIwEEEEE23__do_get_floating_pointIfEES4_S4_S4_RNS_8ios_baseERjRT_
Rf:__ZNKSt3__27num_getIwNS_19istreambuf_iteratorIwNS_11char_traitsIwEEEEE23__do_get_floating_pointIeEES4_S4_S4_RNS_8ios_baseERjRT_
Sf:__ZNKSt3__27num_getIwNS_19istreambuf_iteratorIwNS_11char_traitsIwEEEEE23__do_get_floating_pointIdEES4_S4_S4_RNS_8ios_baseERjRT_
Tf:__ZNKSt3__27num_getIcNS_19istreambuf_iteratorIcNS_11char_traitsIcEEEEE23__do_get_floating_pointIfEES4_S4_S4_RNS_8ios_baseERjRT_
Uf:__ZNKSt3__27num_getIcNS_19istreambuf_iteratorIcNS_11char_traitsIcEEEEE23__do_get_floating_pointIeEES4_S4_S4_RNS_8ios_baseERjRT_
Vf:__ZNKSt3__27num_getIcNS_19istreambuf_iteratorIcNS_11char_traitsIcEEEEE23__do_get_floating_pointIdEES4_S4_S4_RNS_8ios_baseERjRT_
Wf:_window_read
Xf:__ZNKSt3__27num_getIwNS_19istreambuf_iteratorIwNS_11char_traitsIwEEEEE17__do_get_unsignedItEES4_S4_S4_RNS_8ios_baseERjRT_
Yf:__ZNKSt3__27num_getIwNS_19istreambuf_iteratorIwNS_11char_traitsIwEEEEE17__do_get_unsignedImEES4_S4_S4_RNS_8ios_baseERjRT_
Zf:__ZNKSt3__27num_getIwNS_19istreambuf_iteratorIwNS_11char_traitsIwEEEEE17__do_get_unsignedIjEES4_S4_S4_RNS_8ios_baseERjRT_
_f:__ZNKSt3__27num_getIcNS_19istreambuf_iteratorIcNS_11char_traitsIcEEEEE17__do_get_unsignedItEES4_S4_S4_RNS_8ios_baseERjRT_
$f:__ZNKSt3__27num_getIcNS_19istreambuf_iteratorIcNS_11char_traitsIcEEEEE17__do_get_unsignedImEES4_S4_S4_RNS_8ios_baseERjRT_
ag:__ZNKSt3__27num_getIcNS_19istreambuf_iteratorIcNS_11char_traitsIcEEEEE17__do_get_unsignedIjEES4_S4_S4_RNS_8ios_baseERjRT_
bg:__ZNKSt3__27num_getIwNS_19istreambuf_iteratorIwNS_11char_traitsIwEEEEE15__do_get_signedIlEES4_S4_S4_RNS_8ios_baseERjRT_
cg:__ZNKSt3__27num_getIcNS_19istreambuf_iteratorIcNS_11char_traitsIcEEEEE15__do_get_signedIlEES4_S4_S4_RNS_8ios_baseERjRT_
dg:__ZL13CTMIXER_Writeh
eg:_compress_block
fg:__ZNKSt3__27num_getIwNS_19istreambuf_iteratorIwNS_11char_traitsIwEEEEE6do_getES4_S4_RNS_8ios_baseERjRPv
gg:__ZNKSt3__27num_getIcNS_19istreambuf_iteratorIcNS_11char_traitsIcEEEEE6do_getES4_S4_RNS_8ios_baseERjRPv
hg:__Z10SHELL_Initv
ig:_crc_read
jg:__ZN12_GLOBAL__N_116itanium_demangle22AbstractManglingParserINS0_14ManglingParserINS_16DefaultAllocatorEEES3_E13parseEncodingEv
kg:__ZNSt3__220__get_up_to_n_digitsIwNS_19istreambuf_iteratorIwNS_11char_traitsIwEEEEEEiRT0_S5_RjRKNS_5ctypeIT_EEi
lg:__ZN5DBOPL7Channel13BlockTemplateILNS_9SynthModeE6EEEPS0_PNS_4ChipEjPi
mg:__ZN5DBOPL7Channel13BlockTemplateILNS_9SynthModeE7EEEPS0_PNS_4ChipEjPi
ng:__ZNSt3__214__scan_keywordINS_19istreambuf_iteratorIcNS_11char_traitsIcEEEEPKNS_12basic_stringIcS3_NS_9allocatorIcEEEENS_5ctypeIcEEEET0_RT_SE_SD_SD_RKT1_Rjb
og:__ZNSt3__214__scan_keywordINS_19istreambuf_iteratorIwNS_11char_traitsIwEEEEPKNS_12basic_stringIwS3_NS_9allocatorIwEEEENS_5ctypeIwEEEET0_RT_SE_SD_SD_RKT1_Rjb
pg:__ZN7CMscdex8AddDriveEtPcRh
qg:__ZNSt3__26locale5__impC2Em
rg:__Z17SVGA_S3_WriteCRTCjjj
sg:__Z13Super2xSaI_16PtS_PKt
tg:__ZN4OPL211adlib_writeEjh
ug:__Z14INT10_PutPixeltthh
vg:__ZL14MSCDEX_Handlerv
wg:__ZN5DBOPL7Channel13BlockTemplateILNS_9SynthModeE5EEEPS0_PNS_4ChipEjPi
xg:__ZNSt3__211__money_putIwE8__formatEPwRS2_S3_jPKwS5_RKNS_5ctypeIwEEbRKNS_10money_base7patternEwwRKNS_12basic_stringIcNS_11char_traitsIcEENS_9allocatorIcEEEERKNSE_IwNSF_IwEENSH_IwEEEESQ_i
yg:__ZNSt3__211__money_putIcE8__formatEPcRS2_S3_jPKcS5_RKNS_5ctypeIcEEbRKNS_10money_base7patternEccRKNS_12basic_stringIcNS_11char_traitsIcEENS_9allocatorIcEEEESL_SL_i
zg:_mbsrtowcs
Ag:_deflate_stored
Bg:__Z13SuperEagle_16PtS_PKt
Cg:__ZN8fatDrive7MakeDirEPc
Dg:__ZL19ExecuteGlobRegisterv
Eg:__ZN9DOS_Shell5WhichEPc
Fg:__Z14vga_write_p3d5jjj
Gg:__ZNSt3__26__sortIRPFbRKPN15DOS_Drive_Cache9CFileInfoES5_EPS3_EEvT0_SA_T_
Hg:__Z13SuperEagle_32PjS_PKj
Ig:__ZN9BatchFile8ReadLineEPc
Jg:__Z15DOS_SetupTablesv
Kg:__ZNSt3__213unordered_mapINS_12basic_stringIcNS_11char_traitsIcEENS_9allocatorIcEEEEPFvRKS6_PKcPFvS8_RK10jsonstreamEENS_4hashIS6_EENS_8equal_toIS6_EENS4_INS_4pairIS7_SH_EEEEEC2ERKSP_
Lg:__Z11XMS_Handlerv
Mg:__Z13Super2xSaI_32PjS_PKj
Ng:__ZN4WGET3RunEv
Og:__ZL17VGA_VerticalTimerj
Pg:___floatscan
Qg:__zip_source_zip_new
Rg:_buffer_write
Sg:__ZN15CStickBindGroup27ActivateJoystickBoundEventsEv
Tg:__Z9XGA_Writejjj
Ug:__ZNSt3__29__num_putIwE23__widen_and_group_floatEPcS2_S2_PwRS3_S4_RKNS_6localeE
Vg:__ZN12_GLOBAL__N_116itanium_demangle22AbstractManglingParserINS0_14ManglingParserINS_16DefaultAllocatorEEES3_E12parseNewExprEv
Wg:__ZN15keyboard_layout16extract_codepageEPKc
Xg:__ZN6Config15ParseConfigFileEPKc
Yg:__ZN9DOS_Shell9CMD_SUBSTEPc
Zg:__ZNSt3__29__num_putIcE23__widen_and_group_floatEPcS2_S2_S2_RS2_S3_RKNS_6localeE
_g:__ZN7CMscdex17GetDirectoryEntryEtbjjRt
$g:__ZN4MIDIC2EP7Section
ah:__zip_read_eocd64
bh:__ZL18update_cga16_colorv
ch:__zip_source_file_or_p
dh:_twoway_strstr
eh:_read_data
fh:__ZN5Value8set_boolERKNSt3__212basic_stringIcNS0_11char_traitsIcEENS0_9allocatorIcEEEE
gh:__ZL19MPU401_WriteCommandjjj
hh:__ZN9DOS_Shell7CMD_SETEPc
ih:__ZL12MemoryRegionv
jh:__Z18DOS_AllocateMemoryPtS_
kh:__ZN21CDROM_Interface_Image15GetRealFileNameERNSt3__212basic_stringIcNS0_11char_traitsIcEENS0_9allocatorIcEEEES7_
lh:__ZN15InitPageHandler8InitPageEjb
mh:__ZN4OPL310adlib_initEj
nh:___udivmoddi4
oh:__Z12VGA_SetupXGAv
ph:__ZN7fatFile5WriteEPhPt
qh:__Z18INT10_ScrollWindowhhhhahh
rh:__ZL12CTMIXER_Readv
sh:__ZN6Events20registerPushSDLEventEv
th:__ZN6Events18registerScreenshotEv
uh:__ZN6Events12registerExitEv
vh:__ZN12_GLOBAL__N_116itanium_demangle22AbstractManglingParserINS0_14ManglingParserINS_16DefaultAllocatorEEES3_E17parseSubstitutionEv
wh:__ZNKSt3__29money_putIwNS_19ostreambuf_iteratorIwNS_11char_traitsIwEEEEE6do_putES4_bRNS_8ios_baseEwe
xh:__ZNSt3__26vectorINS_12basic_stringIcNS_11char_traitsIcEENS_9allocatorIcEEEENS4_IS6_EEE6insertENS_11__wrap_iterIPKS6_EERSA_
yh:__ZN4OPL210adlib_initEj
zh:__ZN20Prop_multival_remain8SetValueERKNSt3__212basic_stringIcNS0_11char_traitsIcEENS0_9allocatorIcEEEE
Ah:__ZNKSt3__29money_putIcNS_19ostreambuf_iteratorIcNS_11char_traitsIcEEEEE6do_putES4_bRNS_8ios_baseEce
Bh:__ZN4KEYB3RunEv
Ch:__Z7CPU_RETbjj
Dh:__ZN12_GLOBAL__N_116itanium_demangle22AbstractManglingParserINS0_14ManglingParserINS_16DefaultAllocatorEEES3_E5parseEv
Eh:__ZNSt3__26vectorI9SDL_EventNS_9allocatorIS1_EEE6insertENS_11__wrap_iterIPKS1_EERS6_
Fh:__ZL11Normal_Loopv
Gh:_fill_window
Hh:__ZN13Prop_multival8SetValueERKNSt3__212basic_stringIcNS0_11char_traitsIcEENS0_9allocatorIcEEEE
Ih:__Z13FCB_ParsenametthPcPh
Jh:__ZL14saa1099_updateiPPsi
Kh:_compress_read
Lh:__Z14VGA_SetupOtherv
Mh:__Z13CALLBACK_InitP7Section
Nh:__Z10MIXER_InitP7Section
Oh:__ZNKSt3__29money_putIwNS_19ostreambuf_iteratorIwNS_11char_traitsIwEEEEE6do_putES4_bRNS_8ios_baseEwRKNS_12basic_stringIwS3_NS_9allocatorIwEEEE
Ph:__ZL14launchcapturesRKNSt3__212basic_stringIcNS_11char_traitsIcEENS_9allocatorIcEEEE
Qh:__ZN12_GLOBAL__N_116itanium_demangle22AbstractManglingParserINS0_14ManglingParserINS_16DefaultAllocatorEEES3_E15parseBracedExprEv
Rh:__Z14INT10_GetPixeltthPh
Sh:__ZNKSt3__29money_putIcNS_19ostreambuf_iteratorIcNS_11char_traitsIcEEEEE6do_putES4_bRNS_8ios_baseEcRKNS_12basic_stringIcS3_NS_9allocatorIcEEEE
Th:__ZNSt3__26vectorIPN15DOS_Drive_Cache9CFileInfoENS_9allocatorIS3_EEE6insertENS_11__wrap_iterIPKS3_EERS8_
Uh:__ZN9DOS_Shell8CMD_DATEEPc
Vh:_fmod
Wh:__ZNSt3__213basic_filebufIcNS_11char_traitsIcEEE9underflowEv
Xh:__ZN15CStickBindGroupC2Ejjb
Yh:__ZN21CDROM_Interface_Image8AddTrackERNS_5TrackERiiS2_i
Zh:__Z12XGA_DrawWaitjj
_h:__ZNK10__cxxabiv121__vmi_class_type_info16search_below_dstEPNS_19__dynamic_cast_infoEPKvib
$h:__ZL9stopUsingP6Region
ai:__ZN12_GLOBAL__N_116itanium_demangle22AbstractManglingParserINS0_14ManglingParserINS_16DefaultAllocatorEEES3_E9parseNameEPNS5_9NameStateE
bi:__ZN12_GLOBAL__N_116itanium_demangle22AbstractManglingParserINS0_14ManglingParserINS_16DefaultAllocatorEEES3_E16parseTemplateArgEv
ci:__Z17DOS_SetupProgramsv
di:__ZN12_GLOBAL__N_116itanium_demangle22AbstractManglingParserINS0_14ManglingParserINS_16DefaultAllocatorEEES3_E20parseUnnamedTypeNameEPNS5_9NameStateE
ei:__ZN12_GLOBAL__N_116itanium_demangle22AbstractManglingParserINS0_14ManglingParserINS_16DefaultAllocatorEEES3_E15parseVectorTypeEv
fi:__Z6get_CFv
gi:__Z17VGA_SetupHandlersv
hi:__zip_checkcons
ii:__ZN11SERIALPORTSC2EP7Section
ji:_extract_zip
ki:__ZL14MIXER_CallBackPvPhi
li:__ZNSt3__213basic_filebufIcNS_11char_traitsIcEEE4syncEv
mi:__ZN5DBOPL7Channel13BlockTemplateILNS_9SynthModeE2EEEPS0_PNS_4ChipEjPi
ni:__ZNKSt3__29money_getIwNS_19istreambuf_iteratorIwNS_11char_traitsIwEEEEE6do_getES4_S4_bRNS_8ios_baseERjRe
oi:__ZN15DOS_Drive_Cache15CreateShortNameEPNS_9CFileInfoES1_
pi:__ZNSt3__2L13utf8_to_utf16EPKhS1_RS1_PtS3_RS3_mNS_12codecvt_modeE
qi:__ZNKSt3__29money_getIcNS_19istreambuf_iteratorIcNS_11char_traitsIcEEEEE6do_getES4_S4_bRNS_8ios_baseERjRe
ri:__ZN12_GLOBAL__N_116itanium_demangle22AbstractManglingParserINS0_14ManglingParserINS_16DefaultAllocatorEEES3_E18parseQualifiedTypeEv
si:__ZN8JOYSTICKC2EP7Section
ti:_adler32
ui:__ZN9DOS_Shell6CMD_IFEPc
vi:__ZL13SN76496Updatej
wi:__ZNSt3__212__hash_tableINS_17__hash_value_typeINS_12basic_stringIcNS_11char_traitsIcEENS_9allocatorIcEEEEPFvRKS7_PKcPFvS9_RK10jsonstreamEEEENS_22__unordered_map_hasherIS7_SJ_NS_4hashIS7_EELb1EEENS_21__unordered_map_equalIS7_SJ_NS_8equal_toIS7_EELb1EEENS5_ISJ_EEE8__rehashEm
xi:__ZN12_GLOBAL__N_116itanium_demangle22AbstractManglingParserINS0_14ManglingParserINS_16DefaultAllocatorEEES3_E20parseUnqualifiedNameEPNS5_9NameStateE
yi:__ZNK10__cxxabiv119__pointer_type_info9can_catchEPKNS_16__shim_type_infoERPv
zi:__ZNSt3__29__num_putIwE21__widen_and_group_intEPcS2_S2_PwRS3_S4_RKNS_6localeE
Ai:___get_locale
Bi:__ZN9DOS_Shell10CMD_CHOICEEPc
Ci:__ZNSt3__29__num_putIcE21__widen_and_group_intEPcS2_S2_S2_RS2_S3_RKNS_6localeE
Di:__ZNKSt3__29money_getIwNS_19istreambuf_iteratorIwNS_11char_traitsIwEEEEE6do_getES4_S4_bRNS_8ios_baseERjRNS_12basic_stringIwS3_NS_9allocatorIwEEEE
Ei:__ZNKSt3__29money_getIcNS_19istreambuf_iteratorIcNS_11char_traitsIcEEEEE6do_getES4_S4_bRNS_8ios_baseERjRNS_12basic_stringIcS3_NS_9allocatorIcEEEE
Fi:__zip_cdir_write
Gi:__ZNKSt3__28time_getIwNS_19istreambuf_iteratorIwNS_11char_traitsIwEEEEE13__get_percentERS4_S4_RjRKNS_5ctypeIwEE
Hi:__ZNKSt3__28time_getIcNS_19istreambuf_iteratorIcNS_11char_traitsIcEEEEE13__get_percentERS4_S4_RjRKNS_5ctypeIcEE
Ii:__ZNSt3__2L13utf16_to_utf8EPKtS1_RS1_PhS3_RS3_mNS_12codecvt_modeE
Ji:__ZN12_GLOBAL__N_116itanium_demangle22AbstractManglingParserINS0_14ManglingParserINS_16DefaultAllocatorEEES3_E17parseTemplateArgsEb
Ki:__ZL19Tandy_SetupTransferjb
Li:__ZN5DBOPL7Channel13BlockTemplateILNS_9SynthModeE3EEEPS0_PNS_4ChipEjPi
Mi:__ZN5DBOPL7Channel13BlockTemplateILNS_9SynthModeE0EEEPS0_PNS_4ChipEjPi
Ni:__Z10DrawCursorv
Oi:__ZN7LOADFIX3RunEv
Pi:__Z10write_p3c0jjj
Qi:__Z15FPU_ESC1_Normalj
Ri:__ZNKSt3__28time_getIcNS_19istreambuf_iteratorIcNS_11char_traitsIcEEEEE17__get_white_spaceERS4_S4_RjRKNS_5ctypeIcEE
Si:__ZN5DBOPL4Chip5SetupEj
Ti:__ZNKSt3__28time_getIwNS_19istreambuf_iteratorIwNS_11char_traitsIwEEEEE17__get_white_spaceERS4_S4_RjRKNS_5ctypeIwEE
Ui:__ZNSt3__213basic_filebufIcNS_11char_traitsIcEEE8overflowEi
Vi:__ZNSt3__2L12utf8_to_ucs4EPKhS1_RS1_PjS3_RS3_mNS_12codecvt_modeE
Wi:__Z17Mouse_CursorMovedffffb
Xi:__ZN12_GLOBAL__N_116itanium_demangle22AbstractManglingParserINS0_14ManglingParserINS_16DefaultAllocatorEEES3_E14parseLocalNameEPNS5_9NameStateE
Yi:__ZN3MEM3RunEv
Zi:__ZL11write_latchjjj
_i:__ZL9HQ3x_32_Rv
$i:__ZN9DOS_Shell9ParseLineEPc
aj:__ZL9HQ3x_16_Rv
bj:__ZN5DBOPL7Channel13BlockTemplateILNS_9SynthModeE1EEEPS0_PNS_4ChipEjPi
cj:__ZN9DOS_Shell3RunEv
dj:_compress_callback
ej:__ZN21CDROM_Interface_Image11LoadIsoFileEPc
fj:_longest_match
gj:__Z10GFX_Eventsv
hj:__Z17CPU_SetSegGeneral8SegNamesj
ij:__Z11GFX_SetSizejjjddPFv23GFX_CallBackFunctions_tE
jj:__ZNSt3__213basic_istreamIcNS_11char_traitsIcEEE6sentryC2ERS3_b
kj:__ZN12_GLOBAL__N_116itanium_demangle22AbstractManglingParserINS0_14ManglingParserINS_16DefaultAllocatorEEES3_E19parseConversionExprEv
lj:__ZL20saa1099_write_port_wiii
mj:__Z9WriteChartthhhb
nj:_crc32
oj:__ZN3EMSC2EP7Section
pj:__ZNK12_GLOBAL__N_116itanium_demangle8FoldExpr9printLeftERNS_12OutputStreamE
qj:__ZNKSt3__28messagesIwE6do_getEliiRKNS_12basic_stringIwNS_11char_traitsIwEENS_9allocatorIwEEEE
rj:__ZN8fatDrive16FindNextInternalEjR7DOS_DTAP8direntry
sj:__ZN5DBOPL10InitTablesEv
tj:__ZL9HQ3x_32_Lv
uj:__ZL15SuperEagle_32_Rv
vj:__ZL15Super2xSaI_32_Rv
wj:__Z15INT10_SetupVESAv
xj:__ZNSt3__29__num_getIcE19__stage2_float_loopEcRbRcPcRS4_ccRKNS_12basic_stringIcNS_11char_traitsIcEENS_9allocatorIcEEEEPjRSE_RjS4_
yj:__ZL9HQ3x_16_Lv
zj:__ZL15SuperEagle_16_Rv
Aj:__ZL15Super2xSaI_16_Rv
Bj:__ZN12_GLOBAL__N_116itanium_demangle22AbstractManglingParserINS0_14ManglingParserINS_16DefaultAllocatorEEES3_E17parseCtorDtorNameERPNS0_4NodeEPNS5_9NameStateE
Cj:__ZL11_2xSaI_32_Rv
Dj:__ZL11_2xSaI_16_Rv
Ej:__ZL9HQ2x_32_Rv
Fj:__ZL9HQ2x_16_Rv
Gj:__ZNSt3__2L12init_wmonthsEv
Hj:__ZNSt3__2L11init_monthsEv
Ij:__ZN7CMscdex11RemoveDriveEt
Jj:__zip_find_central_dir
Kj:__ZN7LOADROM3RunEv
Lj:__Z6get_OFv
Mj:__ZL13INT16_Handlerv
Nj:__ZN15keyboard_layout10layout_keyEjhhh
Oj:__ZL24MSCDEX_Interrupt_Handlerv
Pj:__ZL13INT14_Handlerv
Qj:__Z15MIDI_RawOutByteh
Rj:__ZNSt3__29__num_getIwE19__stage2_float_loopEwRbRcPcRS4_wwRKNS_12basic_stringIcNS_11char_traitsIcEENS_9allocatorIcEEEEPjRSE_RjPw
Sj:__Z12DOS_FCBWritettt
Tj:__Z17MEM_AllocatePagesjb
Uj:__ZNKSt3__27codecvtIwc11__mbstate_tE6do_outERS1_PKwS5_RS5_PcS7_RS7_
Vj:__ZN24VGA_UnchainedEGA_Handler12writeHandlerILb1EEEvjh
Wj:__ZN24VGA_UnchainedEGA_Handler12writeHandlerILb0EEEvjh
Xj:__ZN15DOS_Drive_Cache9FindFirstEPcRt
Yj:__ZNKSt3__27codecvtIwc11__mbstate_tE5do_inERS1_PKcS5_RS5_PwS7_RS7_
Zj:__ZN21InitPageUserROHandler8InitPageEjj
_j:__ZL10ForwardPITf
$j:__Z16DOS_ResizeMemorytPt
ak:_buffer_clone
bk:__ZN8SBLASTER17Find_Type_And_OplEP12Section_propR8SB_TYPESR8OPL_Mode
ck:__ZNKSt3__27num_putIwNS_19ostreambuf_iteratorIwNS_11char_traitsIwEEEEE6do_putES4_RNS_8ios_baseEwd
dk:__ZNKSt3__27num_putIwNS_19ostreambuf_iteratorIwNS_11char_traitsIwEEEEE6do_putES4_RNS_8ios_baseEwe
ek:__ZN11CommandLine20GetParameterFromListEPKPKcRNSt3__26vectorINS4_12basic_stringIcNS4_11char_traitsIcEENS4_9allocatorIcEEEENS9_ISB_EEEE
fk:__ZN10device_CON4ReadEPhPt
gk:_deflateInit2_
hk:_buffer_new
ik:__ZN7CSerial9Write_MCREh
jk:__ZN12_GLOBAL__N_116itanium_demangle22AbstractManglingParserINS0_14ManglingParserINS_16DefaultAllocatorEEES3_E23parseBaseUnresolvedNameEv
kk:__ZN9DOS_Shell14GetRedirectionEPcPS0_S1_Pb
lk:__ZNSt3__2rsIcNS_11char_traitsIcEENS_9allocatorIcEEEERNS_13basic_istreamIT_T0_EES9_RNS_12basic_stringIS6_S7_T1_EE
mk:__ZN12_GLOBAL__N_116itanium_demangle22AbstractManglingParserINS0_14ManglingParserINS_16DefaultAllocatorEEES3_E18parseFunctionParamEv
nk:__ZL22EMM_PartialPageMappingv
ok:_scanexp
pk:__Z12DOS_OpenFilePKchPtb
qk:__ZN13DmaController18WriteControllerRegEjjj
rk:__ZNKSt3__27num_putIcNS_19ostreambuf_iteratorIcNS_11char_traitsIcEEEEE6do_putES4_RNS_8ios_baseEcd
sk:__ZNKSt3__27num_putIcNS_19ostreambuf_iteratorIcNS_11char_traitsIcEEEEE6do_putES4_RNS_8ios_baseEce
tk:__ZN8fatDrive10FileCreateEPP8DOS_FilePct
uk:__ZNSt3__215basic_stringbufIcNS_11char_traitsIcEENS_9allocatorIcEEE8overflowEi
vk:__ZL13FinishSetModeb
wk:__zip_open
xk:__Z8XGA_Readjj
yk:__ZN12Section_prop15HandleInputlineERKNSt3__212basic_stringIcNS0_11char_traitsIcEENS0_9allocatorIcEEEE
zk:__ZNK12_GLOBAL__N_116itanium_demangle11PointerType9printLeftERNS_12OutputStreamE
Ak:__ZL15SuperEagle_32_Lv
Bk:__ZL15Super2xSaI_32_Lv
Ck:__ZL11TV3x_9_16_RPKv
Dk:__ZL15SuperEagle_16_Lv
Ek:__ZL15Super2xSaI_16_Lv
Fk:__ZL11TV3x_9_15_RPKv
Gk:__Z16SVGA_S3_ReadCRTCjj
Hk:__Z12ReadCharAttrtthPt
Ik:__ZL11TV3x_9_32_RPKv
Jk:__ZN15DOS_Drive_Cache11FindDirInfoEPKcPc
Kk:__ZN12CCHBindGroup10CheckEventEP9SDL_Event
Lk:__ZL11_2xSaI_32_Lv
Mk:__ZL11_2xSaI_16_Lv
Nk:__ZN5DBOPL4Chip8WriteRegEjh
Ok:__Z29INT10_GetFuncStateInformationj
Pk:__ZL9HQ2x_32_Lv
Qk:__ZNK12_GLOBAL__N_116itanium_demangle12FunctionType10printRightERNS_12OutputStreamE
Rk:__ZL9HQ2x_16_Lv
Sk:__ZN10device_EMM22ReadFromControlChannelEjtPt
Tk:__Z18BIND_MappingEventsv
Uk:__ZN13DOS_InfoBlock11SetLocationEt
Vk:__ZL16MOUSE_BD_Handlerv
Wk:__ZN12_GLOBAL__N_116itanium_demangle22AbstractManglingParserINS0_14ManglingParserINS_16DefaultAllocatorEEES3_E14parseArrayTypeEv
Xk:__zip_read_local_ef
Yk:__ZL11TV3x_9_16_LPKv
Zk:__ZL11TV3x_9_15_LPKv
_k:__ZNK12_GLOBAL__N_116itanium_demangle16FunctionEncoding10printRightERNS_12OutputStreamE
$k:__ZL11TV3x_9_32_LPKv
al:__Z20Mouse_ButtonReleasedh
bl:__ZL12RGB3x_9_16_RPKv
cl:__ZL12RGB3x_9_15_RPKv
dl:__Z19Mouse_ButtonPressedh
el:__ZNK12_GLOBAL__N_116itanium_demangle7NewExpr9printLeftERNS_12OutputStreamE
fl:__ZL12RGB3x_9_32_RPKv
gl:__ZN7fatFile4ReadEPhPt
hl:__ZNSt3__2L20utf8_to_utf16_lengthEPKhS1_mmNS_12codecvt_modeE
il:__ZNSt3__2L12ucs4_to_utf8EPKjS1_RS1_PhS3_RS3_mNS_12codecvt_modeE
jl:__Z15OpenCaptureFilePKcS0_
kl:__Z23VESA_GetSVGAInformationtt
ll:__ZNSt3__213basic_istreamIcNS_11char_traitsIcEEE7getlineEPclc
ml:__ZN3CMSC2EP7Section
nl:__ZNK12_GLOBAL__N_116itanium_demangle14IntegerLiteral9printLeftERNS_12OutputStreamE
ol:__ZL12RGB3x_9_16_LPKv
pl:__ZL12RGB3x_9_15_LPKv
ql:_calloc
rl:__ZNSt3__2L19utf8_to_ucs4_lengthEPKhS1_mmNS_12codecvt_modeE
sl:__ZL12RGB3x_9_32_LPKv
tl:__ZN9BatchFile4GotoEPc
ul:__ZNK12_GLOBAL__N_116itanium_demangle10BinaryExpr9printLeftERNS_12OutputStreamE
vl:__ZN4BOOT19disable_umb_ems_xmsEv
wl:__ZL15Normal3x_9_32_RPKv
xl:__ZL13counter_latchj
yl:__ZL15Normal3x_9_16_RPKv
zl:__ZL15Normal3x_9_15_RPKv
Al:__ZL13Scan3x_9_32_RPKv
Bl:__ZL13Scan3x_9_16_RPKv
Cl:__ZL13Scan3x_9_15_RPKv
Dl:__ZL18PCSPEAKER_CallBackj
El:__ZN9DOS_Shell10CMD_DELETEEPc
Fl:__ZL9write_gusjjj
Gl:__ZL11TV3x_8_16_RPKv
Hl:__ZNSt3__212basic_stringIcNS_11char_traitsIcEENS_9allocatorIcEEE7replaceEmmPKcm
Il:__ZL11TV3x_8_15_RPKv
Jl:_buffer_read
Kl:__ZN8fatDrive15setClusterValueEjj
Ll:__ZL11TV3x_8_32_RPKv
Ml:_pop_arg
Nl:__ZN5MOUNT10ListMountsEv
Ol:__Z11DOS_FCBReadttt
Pl:__ZN11Prop_string10CheckValueERK5Valueb
Ql:_malloc
Rl:__ZN24VGA_UnchainedVGA_Handler12writeHandlerEjh
Sl:__ZL15Normal3x_9_32_LPKv
Tl:__ZN11CommandLineC2EPKcS1_
Ul:__ZL15Normal3x_9_16_LPKv
Vl:__ZL15Normal3x_9_15_LPKv
Wl:__ZL13write_commandjjj
Xl:__ZN5Adlib6Module9PortWriteEjjj
Yl:_zip_open_from_source
Zl:__ZL13Scan3x_9_32_LPKv
_l:__ZL13Scan3x_9_16_LPKv
$l:__ZL13Scan3x_9_15_LPKv
am:__tr_stored_block
bm:__ZN11CommandLine10FillVectorERNSt3__26vectorINS0_12basic_stringIcNS0_11char_traitsIcEENS0_9allocatorIcEEEENS5_IS7_EEEE
cm:__ZL11TV3x_8_16_LPKv
dm:__ZL11TV3x_8_15_LPKv
em:__ZN14AutoexecObjectD2Ev
fm:__ZL11TV2x_9_16_RPKv
gm:__ZL19ExecuteReadRegisterv
hm:__ZL11TV2x_9_15_RPKv
im:__ZL11TV3x_8_32_LPKv
jm:__ZL11TV2x_9_32_RPKv
km:__ZL25VGA_TEXT_Xlat16_Draw_Linejj
lm:__ZL12RGB3x_8_16_RPKv
mm:__ZL12RGB3x_8_15_RPKv
nm:__Z21XGA_DrawLineBresenhamj
om:__Z14INT10_LoadFontjbjjjj
pm:__ZNSt3__29__num_getIcE17__stage2_int_loopEciPcRS2_RjcRKNS_12basic_stringIcNS_11char_traitsIcEENS_9allocatorIcEEEEPjRSD_PKc
qm:__ZNSt3__29__num_getIwE17__stage2_int_loopEwiPcRS2_RjwRKNS_12basic_stringIcNS_11char_traitsIcEENS_9allocatorIcEEEEPjRSD_PKw
rm:__ZN3XMSC2EP7Section
sm:__ZL12TV3x_16_32_RPKv
tm:__ZL12TV3x_32_16_RPKv
um:__ZL12RGB3x_8_32_RPKv
vm:__ZL12TV3x_15_32_RPKv
wm:__zip_mkstemp
xm:_wcsrtombs
ym:__ZL12TV3x_32_16_LPKv
zm:__ZL12TV3x_16_32_LPKv
Am:__ZL12TV3x_15_16_RPKv
Bm:__ZL12TV3x_16_15_RPKv
Cm:__ZL12disney_writejjj
Dm:__ZL12TV3x_15_16_LPKv
Em:__ZL12TV3x_16_15_LPKv
Fm:__ZN6MEMORYC2EP7Section
Gm:__ZL12TV3x_32_15_RPKv
Hm:__ZL12TV3x_15_32_LPKv
Im:__ZL14DISNEY_analyzej
Jm:__ZL12RGB2x_9_16_RPKv
Km:__ZL12TV3x_32_32_RPKv
Lm:__ZL12RGB2x_9_15_RPKv
Mm:__Z11WildFileCmpPKcS0_
Nm:__ZL12TV3x_32_15_LPKv
Om:__ZN8Prop_int6SetValERK5Valuebb
Pm:__ZNK5Value8ToStringEv
Qm:__ZL12TV3x_32_32_LPKv
Rm:__ZL12RGB3x_8_16_LPKv
Sm:__ZL12RGB3x_8_15_LPKv
Tm:__ZN12CCHBindGroup14UpdateJoystickEv
Um:__ZNSt3__215basic_stringbufIcNS_11char_traitsIcEENS_9allocatorIcEEE7seekoffExNS_8ios_base7seekdirEj
Vm:__ZL12RGB2x_9_32_RPKv
Wm:__ZN15DOS_Drive_Cache11CreateEntryEPNS_9CFileInfoEPKcb
Xm:__zip_hash_add
Ym:__Z30INT10_SetSinglePaletteRegisterhh
Zm:__ZL12RGB3x_8_32_LPKv
_m:__ZL15Normal2x_9_32_RPKv
$m:__ZN15keyboard_layout7map_keyEjtbb
an:__ZL18VGA_DrawSingleLinej
bn:__ZL13Scan2x_9_32_RPKv
cn:__ZL15Normal2x_9_16_RPKv
dn:__ZL15Normal2x_9_15_RPKv
en:__Z19MEM_ReAllocatePagesRijb
fn:__ZL13Scan2x_9_16_RPKv
gn:__ZL13Scan2x_9_15_RPKv
hn:__ZN6RESCAN3RunEv
jn:__ZN12_GLOBAL__N_116itanium_demangle22AbstractManglingParserINS0_14ManglingParserINS_16DefaultAllocatorEEES3_E18parseClassEnumTypeEv
kn:__ZL13RGB3x_32_16_RPKv
ln:__ZL13RGB3x_32_15_RPKv
mn:__ZL15Normal3x_8_32_RPKv
nn:__ZL15Normal3x_8_16_RPKv
on:__ZL15Normal3x_8_15_RPKv
pn:__ZL11Cache_16_32PKv
qn:__ZL11Cache_15_32PKv
rn:__ZL12TV3x_16_16_RPKv
sn:__ZL21write_crtc_data_otherjjj
tn:__ZL12TV3x_16_16_LPKv
un:__ZL12TV3x_15_15_RPKv
vn:__ZN8isoDriveC2EcPKchRi
wn:__ZL12TV3x_15_15_LPKv
xn:__ZL13RGB3x_32_16_LPKv
yn:__ZL13RGB3x_32_15_LPKv
zn:__ZL13Scan3x_8_32_RPKv
An:__ZL11Cache_16_15PKv
Bn:__ZL11Cache_15_16PKv
Cn:__ZL13Scan3x_8_16_RPKv
Dn:__ZL13Scan3x_8_15_RPKv
En:__ZN13Prop_multival18make_default_valueEv
Fn:__ZL11Cache_32_32PKv
Gn:__ZN12_GLOBAL__N_116itanium_demangle22AbstractManglingParserINS0_14ManglingParserINS_16DefaultAllocatorEEES3_E18parseTemplateParamEv
Hn:__ZN10localDrive9FindFirstEPcR7DOS_DTAb
In:__ZL13RGB3x_16_15_RPKv
Jn:__ZL13RGB3x_15_16_RPKv
Kn:__ZNSt3__212basic_stringIcNS_11char_traitsIcEENS_9allocatorIcEEE23__append_forward_unsafeIPcEERS5_T_S9_
Ln:__ZL13RGB3x_16_15_LPKv
Mn:__ZL13RGB3x_15_16_LPKv
Nn:__ZL10Cache_9_16PKv
On:__ZL10Cache_9_15PKv
Pn:__ZL15NormalDh_9_16_RPKv
Qn:__ZL15NormalDh_9_15_RPKv
Rn:__ZL10Cache_9_32PKv
Sn:__ZL13RGB3x_16_32_RPKv
Tn:__ZL13RGB3x_15_32_RPKv
Un:__ZL10Cache_8_16PKv
Vn:__ZL10Cache_8_15PKv
Wn:__ZL10write_p3cfjjj
Xn:__ZL15NormalDh_9_32_RPKv
Yn:__ZN7CSerial13receiveByteExEhh
Zn:__ZL11Cache_32_16PKv
_n:__ZL11Cache_32_15PKv
$n:__ZL10Cache_8_32PKv
ao:__ZNSt3__212basic_stringIwNS_11char_traitsIwEENS_9allocatorIwEEE23__append_forward_unsafeIPwEERS5_T_S9_
bo:__ZNKSt3__27num_getIwNS_19istreambuf_iteratorIwNS_11char_traitsIwEEEEE6do_getES4_S4_RNS_8ios_baseERjRb
co:__ZNKSt3__27num_getIcNS_19istreambuf_iteratorIcNS_11char_traitsIcEEEEE6do_getES4_S4_RNS_8ios_baseERjRb
eo:__Z19VESA_ScanLineLengthhtRtS_S_
fo:__ZL13RGB3x_16_32_LPKv
go:__ZL13RGB3x_15_32_LPKv
ho:__ZL11Cache_16_16PKv
io:__ZL11Cache_15_15PKv
jo:__ZNSt3__227__insertion_sort_incompleteIRPFbRKPN15DOS_Drive_Cache9CFileInfoES5_EPS3_EEbT0_SA_T_
ko:__ZNSt3__212__hash_tableINS_17__hash_value_typeINS_12basic_stringIcNS_11char_traitsIcEENS_9allocatorIcEEEEPFvRKS7_PKcPFvS9_RK10jsonstreamEEEENS_22__unordered_map_hasherIS7_SJ_NS_4hashIS7_EELb1EEENS_21__unordered_map_equalIS7_SJ_NS_8equal_toIS7_EELb1EEENS5_ISJ_EEE4findIS7_EENS_15__hash_iteratorIPNS_11__hash_nodeISJ_PvEEEERKT_
lo:__ZL13RGB3x_32_32_RPKv
mo:__ZL15Normal3x_8_32_LPKv
no:__ZL14Normal3x_8_8_RPKv
oo:__ZL15Normal3x_8_16_LPKv
po:__ZL15Normal3x_8_15_LPKv
qo:__ZL12launcheditorv
ro:__ZL13Scan3x_8_32_LPKv
so:__ZL13RGB3x_32_32_LPKv
to:__ZL13Scan3x_8_16_LPKv
uo:__ZL13Scan3x_8_15_LPKv
vo:__ZN12MixerChannel10AddSamplesIhLb1ELb0ELb1EEEvjPKT_
wo:__ZN12MixerChannel10AddSamplesItLb1ELb0ELb1EEEvjPKT_
xo:__ZL9Cache_8_8PKv
yo:__ZNKSt3__27num_putIwNS_19ostreambuf_iteratorIwNS_11char_traitsIwEEEEE6do_putES4_RNS_8ios_baseEwb
zo:__ZL13RGB3x_16_16_RPKv
Ao:__ZL15NormalDw_9_32_RPKv
Bo:__ZL13RGB3x_15_15_RPKv
Co:__ZL13RGB3x_16_16_LPKv
Do:__ZL13RGB3x_15_15_LPKv
Eo:__ZL15NormalDw_9_16_RPKv
Fo:__ZL15NormalDw_9_15_RPKv
Go:__ZL11TV2x_8_16_RPKv
Ho:__ZNKSt3__27num_putIcNS_19ostreambuf_iteratorIcNS_11char_traitsIcEEEEE6do_putES4_RNS_8ios_baseEcb
Io:__ZL11TV2x_8_15_RPKv
Jo:__Z13vga_read_p3d5jj
Ko:__ZN12MixerChannel10AddSamplesIsLb1ELb1ELb1EEEvjPKT_
Lo:__ZN12MixerChannel10AddSamplesIiLb1ELb1ELb1EEEvjPKT_
Mo:__ZL16Normal3x_16_32_RPKv
No:__ZL16Normal3x_15_32_RPKv
Oo:__ZN8Prop_int10CheckValueERK5Valueb
Po:__ZN12MixerChannel10AddSamplesIaLb1ELb1ELb1EEEvjPKT_
Qo:__ZL24INT10_TeletypeOutputAttrhhbh
Ro:__ZL14Scan3x_16_32_RPKv
So:__ZL14Scan3x_15_32_RPKv
To:__ZL11TV2x_8_32_RPKv
Uo:__ZN10localDrive8FileOpenEPP8DOS_FilePcj
Vo:__ZL11TV2x_9_16_LPKv
Wo:__ZL16CreateBindGroupsv
Xo:__Z10GetEMSTypeP12Section_prop
Yo:__send
Zo:__ZL14Normal3x_8_8_LPKv
_o:__ZL11TV2x_9_15_LPKv
$o:__ZL16Normal3x_16_32_LPKv
ap:__ZL16Normal3x_15_32_LPKv
bp:__ZN9PIC_8259AC2EP7Section
cp:__ZN9Prop_path8SetValueERKNSt3__212basic_stringIcNS0_11char_traitsIcEENS0_9allocatorIcEEEE
dp:__ZL16Normal3x_32_16_RPKv
ep:__ZL15Normal1x_9_16_RPKv
fp:__ZL15Normal1x_9_15_RPKv
gp:__ZL16Normal3x_32_15_RPKv
hp:__ZL14Scan3x_16_32_LPKv
ip:__ZL14Scan3x_15_32_LPKv
jp:__ZL16Normal3x_32_32_RPKv
kp:__ZL16Normal3x_16_15_RPKv
lp:__ZL16Normal3x_15_16_RPKv
mp:__ZL14Scan3x_32_16_RPKv
np:__ZL14Scan3x_32_15_RPKv
op:__Z14DOS_CreateFilePKctPtb
pp:__ZN21InitPageUserROHandler17InitPageCheckOnlyEjj
qp:__ZL16Normal3x_32_16_LPKv
rp:__ZL16Normal3x_32_15_LPKv
sp:__ZL14Scan3x_32_32_RPKv
tp:__ZL11TV2x_9_32_LPKv
up:__ZL16Normal3x_16_15_LPKv
vp:__ZL15Normal1x_9_32_RPKv
wp:__ZL14Scan3x_16_15_RPKv
xp:__ZL16Normal3x_15_16_LPKv
yp:__ZL14Scan3x_15_16_RPKv
zp:__ZL16Normal3x_32_32_LPKv
Ap:__ZL14Scan3x_32_16_LPKv
Bp:__ZL14Scan3x_32_15_LPKv
Cp:__ZL14Scan3x_16_15_LPKv
Dp:__ZL14Scan3x_15_16_LPKv
Ep:__ZL23VGA_TEXT_Herc_Draw_Linejj
Fp:__ZL14Scan3x_32_32_LPKv
Gp:__ZL9SetupVCPIv
Hp:__Z12XGA_BlitRectj
Ip:__ZN9DOS_Shell11CheckConfigEPcS0_
Jp:__ZL19MSCDEX_IOCTL_Optputjh
Kp:__ZL12RGB2x_8_16_RPKv
Lp:__ZL12RGB2x_8_15_RPKv
Mp:__ZL12TV2x_15_16_RPKv
Np:__ZNSt3__27getlineIcNS_11char_traitsIcEENS_9allocatorIcEEEERNS_13basic_istreamIT_T0_EES9_RNS_12basic_stringIS6_S7_T1_EES6_
Op:__ZL12TV2x_16_15_RPKv
Pp:__ZL12TV2x_16_32_RPKv
Qp:__ZL10write_datajjj
Rp:__ZN5Cross14ResolveHomedirERNSt3__212basic_stringIcNS0_11char_traitsIcEENS0_9allocatorIcEEEE
Sp:__ZL12TV2x_32_16_RPKv
Tp:__Z23Mouse_AfterNewVideoModeb
Up:__zip_dirent_process_winzip_aes
Vp:__ZN15InitPageHandler17InitPageCheckOnlyEjb
Wp:__ZL12TV2x_15_32_RPKv
Xp:__ZL9write_p60jjj
Yp:__ZL12RGB2x_9_16_LPKv
Zp:__ZL12RGB2x_9_15_LPKv
_p:__ZL12RGB2x_8_32_RPKv
$p:__Z21DOS_FreeProcessMemoryt
aq:__ZN8fatDrive6RenameEPcS0_
bq:__ZL16Normal3x_16_16_RPKv
cq:__ZL16Normal3x_15_15_RPKv
dq:__ZL12TV2x_32_15_RPKv
eq:__tr_align
fq:__ZL12TV2x_32_32_RPKv
gq:__Z22DOS_LinkUMBsToMemChaint
hq:__ZL15DISNEY_CallBackj
iq:__ZL16Normal3x_16_16_LPKv
jq:__ZL16Normal3x_15_15_LPKv
kq:__ZL14Scan3x_16_16_RPKv
lq:__ZL14Scan3x_15_15_RPKv
mq:__ZL15Normal2x_8_32_RPKv
nq:__ZL14Scan3x_16_16_LPKv
oq:__ZL14Scan3x_15_15_LPKv
pq:__ZL12RGB2x_9_32_LPKv
qq:__ZL15Normal2x_8_16_RPKv
rq:__ZL15Normal2x_8_15_RPKv
sq:__ZNK12_GLOBAL__N_116itanium_demangle27ExpandedSpecialSubstitution9printLeftERNS_12OutputStreamE
tq:__ZL13Scan2x_8_32_RPKv
uq:__ZNSt3__2L11init_wweeksEv
vq:__ZN9DOS_Shell8CMD_PATHEPc
wq:__ZN12_GLOBAL__N_116itanium_demangle22AbstractManglingParserINS0_14ManglingParserINS_16DefaultAllocatorEEES3_E17parseUnscopedNameEPNS5_9NameStateE
xq:__ZNSt3__2L10init_weeksEv
yq:__ZL13Scan2x_8_16_RPKv
zq:__ZL13Scan2x_8_15_RPKv
Aq:__Z6get_AFv
Bq:__ZNK12_GLOBAL__N_116itanium_demangle19SpecialSubstitution9printLeftERNS_12OutputStreamE
Cq:__ZL27VGA_Draw_LIN16_Line_HWMousejj
Dq:__Z15XGA_DrawPatternj
Eq:__ZL27VGA_Draw_LIN32_Line_HWMousejj
Fq:__ZN9DOS_Shell10CMD_RENAMEEPc
Gq:__ZN9DOS_Shell8CMD_ECHOEPc
Hq:__ZL15Normal2x_9_32_LPKv
Iq:__ZL15Normal2x_9_16_LPKv
Jq:__ZL15Normal2x_9_15_LPKv
Kq:_memcpy
Lq:__ZNKSt3__27num_putIwNS_19ostreambuf_iteratorIwNS_11char_traitsIwEEEEE6do_putES4_RNS_8ios_baseEwl
Mq:__ZNKSt3__27num_putIcNS_19ostreambuf_iteratorIcNS_11char_traitsIcEEEEE6do_putES4_RNS_8ios_baseEcl
Nq:_mbrtowc
Oq:__ZL13Scan2x_9_32_LPKv
Pq:__ZL13Scan2x_9_16_LPKv
Qq:__ZL13Scan2x_9_15_LPKv
Rq:__ZNKSt3__27num_putIwNS_19ostreambuf_iteratorIwNS_11char_traitsIwEEEEE6do_putES4_RNS_8ios_baseEwm
Sq:__ZL13RGB2x_16_32_RPKv
Tq:__ZL13RGB2x_15_32_RPKv
Uq:__ZL9write_p43jjj
Vq:__ZL12TV2x_16_16_RPKv
Wq:__Z9updateDPTv
Xq:__ZL25VGA_Draw_VGA_Line_HWMousejj
Yq:__ZL12TV2x_15_15_RPKv
Zq:__ZNKSt3__27num_putIcNS_19ostreambuf_iteratorIcNS_11char_traitsIcEEEEE6do_putES4_RNS_8ios_baseEcm
_q:__zip_source_window_new
$q:__ZN11CBindButton5ClickEv
ar:__ZNK10__cxxabiv121__vmi_class_type_info16search_above_dstEPNS_19__dynamic_cast_infoEPKvS4_ib
br:__ZN10localDrive8FindNextER7DOS_DTA
cr:__Z19DOS_FCBIncreaseSizett
dr:__ZN5ValueeqERKS_
er:__ZL13RGB2x_32_16_RPKv
fr:__ZL15NormalDh_8_16_RPKv
gr:__ZL15NormalDh_8_15_RPKv
hr:__ZL14Normal2x_8_8_RPKv
ir:__zip_ef_parse
jr:__ZL13RGB2x_16_15_RPKv
kr:__ZL13RGB2x_32_32_RPKv
lr:__ZL15NormalDh_8_32_RPKv
mr:__ZL13RGB2x_32_15_RPKv
nr:__ZN7Program6SetEnvEPKcS1_
or:__ZL13RGB2x_15_16_RPKv
pr:__ZL16Normal2x_16_32_RPKv
qr:__ZL16Normal2x_15_32_RPKv
rr:__ZL16Normal2x_16_15_RPKv
sr:__ZL16Normal2x_15_16_RPKv
tr:__ZL14Scan2x_16_32_RPKv
ur:__ZL14Scan2x_15_32_RPKv
vr:__Z16INT10_SetCurModev
wr:__ZL14Scan2x_16_15_RPKv
xr:__ZN5Adlib7Capture7DoWriteEjh
yr:__ZL14Scan2x_15_16_RPKv
zr:__ZN12_GLOBAL__N_116itanium_demangle13ParameterPackC2ENS0_9NodeArrayE
Ar:__ZL15NormalDh_9_32_LPKv
Br:__ZL15NormalDh_9_16_LPKv
Cr:__ZL15NormalDh_9_15_LPKv
Dr:__ZL25wine_hash_short_file_namePcS_
Er:__ZL16Normal2x_32_16_RPKv
Fr:__ZL13INT1A_Handlerv
Gr:__ZL16Normal2x_32_15_RPKv
Hr:__ZL14Scan2x_32_16_RPKv
Ir:_pkware_decrypt
Jr:__ZL16Normal2x_32_32_RPKv
Kr:__ZL14Scan2x_32_15_RPKv
Lr:__ZL14NormalDh_8_8_RPKv
Mr:__ZL14Scan2x_32_32_RPKv
Nr:__ZL10read_latchjj
Or:__ZL13read_kcl_filePKcS0_b
Pr:__ZL7MakeEnvPcPt
Qr:__ZNK12_GLOBAL__N_116itanium_demangle13ReferenceType9printLeftERNS_12OutputStreamE
Rr:__ZL14EMM_MapSegmentjtt
Sr:__ZN8isoDrive12readDirEntryEP11isoDirEntryPh
Tr:__ZL13RGB2x_16_16_RPKv
Ur:__ZL13RGB2x_15_15_RPKv
Vr:_init_block
Wr:__ZN8isoDrive8FindNextER7DOS_DTA
Xr:__ZN12_GLOBAL__N_116itanium_demangle14PODSmallVectorIPNS0_4NodeELm8EEaSEOS4_
Yr:__ZN6MPU401C2EP7Section
Zr:__ZL16NormalDh_16_15_RPKv
_r:__ZN5DBOPL7Channel7WriteC0EPKNS_4ChipEh
$r:__ZL16NormalDh_15_16_RPKv
as:__ZL11TV2x_8_16_LPKv
bs:__ZL11TV2x_8_15_LPKv
cs:__Z9IO_WriteWjj
ds:__ZN4BOOT9getFSFileEPKcPjS2_b
es:__ZL16NormalDh_16_32_RPKv
fs:__ZL16NormalDh_15_32_RPKv
gs:__ZNKSt3__27num_putIwNS_19ostreambuf_iteratorIwNS_11char_traitsIwEEEEE6do_putES4_RNS_8ios_baseEwx
hs:__ZNKSt3__27num_putIcNS_19ostreambuf_iteratorIcNS_11char_traitsIcEEEEE6do_putES4_RNS_8ios_baseEcx
is:__ZL16NormalDh_32_16_RPKv
js:__Z9IO_WriteBjj
ks:__ZNKSt3__27num_putIwNS_19ostreambuf_iteratorIwNS_11char_traitsIwEEEEE6do_putES4_RNS_8ios_baseEwy
ls:__ZNKSt3__27num_putIcNS_19ostreambuf_iteratorIcNS_11char_traitsIcEEEEE6do_putES4_RNS_8ios_baseEcy
ms:__ZL16NormalDh_32_15_RPKv
ns:_mbsnrtowcs
os:__ZN8fatDrive15getFileDirEntryEPKcP8direntryPjS4_
ps:__ZL16Normal2x_16_16_RPKv
qs:__ZL16Normal2x_15_15_RPKv
rs:__ZN3DOSC2EP7Section
ss:__ZL15NormalDw_8_32_RPKv
ts:__ZL14Scan2x_16_16_RPKv
us:__ZL14Scan2x_15_15_RPKv
vs:__ZL11TV2x_8_32_LPKv
ws:__ZN21CDROM_Interface_Image15CDAudioCallBackEj
xs:__ZL16saa1099_envelopeii
ys:__ZL15NormalDw_8_16_RPKv
zs:__ZL15NormalDw_8_15_RPKv
As:__Z15DOS_SetupMemoryv
Bs:__ZN12_GLOBAL__N_116itanium_demangle22AbstractManglingParserINS0_14ManglingParserINS_16DefaultAllocatorEEES3_E15parseCallOffsetEv
Cs:__ZL16NormalDh_32_32_RPKv
Ds:__ZL12SN76496Writejjj
Es:__ZNSt3__216__pad_and_outputIwNS_11char_traitsIwEEEENS_19ostreambuf_iteratorIT_T0_EES6_PKS4_S8_S8_RNS_8ios_baseES4_
Fs:__Z18XGA_DrawLineVectorj
Gs:__ZN5DBOPL4Chip14GenerateBlock3EjPi
Hs:__Z9IO_WriteDjj
Is:__ZL13read_kcl_dataPhjPKcb
Js:___shgetc
Ks:__ZN5DBOPL4Chip14GenerateBlock2EjPi
Ls:__ZN5TIMERC2EP7Section
Ms:__ZNK12_GLOBAL__N_116itanium_demangle22ParameterPackExpansion9printLeftERNS_12OutputStreamE
Ns:__ZL15Normal1x_8_16_RPKv
Os:__ZL15Normal1x_8_15_RPKv
Ps:__Z8IO_ReadWj
Qs:__Z13DOS_FindFirstPctb
Rs:__Z8IO_ReadBj
Ss:_fgets
Ts:__ZNK12_GLOBAL__N_116itanium_demangle9ArrayType10printRightERNS_12OutputStreamE
Us:__ZN5INTRO3RunEv
Vs:__ZN12_GLOBAL__N_116itanium_demangle22AbstractManglingParserINS0_14ManglingParserINS_16DefaultAllocatorEEES3_E19parseUnresolvedTypeEv
Ws:__ZN9DOS_Shell9DoCommandEPc
Xs:__Z18FinishSetMode_ET4KjP17VGA_ModeExtraData
Ys:___vfprintf_internal
Zs:__ZL16NormalDh_16_16_RPKv
_s:__ZL16NormalDh_15_15_RPKv
$s:__ZL15Normal1x_8_32_RPKv
at:__ZL14NormalDw_8_8_RPKv
bt:__ZN9PCSPEAKERC2EP7Section
ct:__ZN7CMscdex9StopAudioEh
dt:__ZL12RGB2x_8_16_LPKv
et:__ZN5DBOPL4Chip7WriteBDEh
ft:__ZL12RGB2x_8_15_LPKv
gt:__ZL12TV2x_32_16_LPKv
ht:__ZN7CSerialC2EjP11CommandLine
it:__ZL12TV2x_16_32_LPKv
jt:__ZL12TV2x_15_16_LPKv
kt:__ZL12TV2x_16_15_LPKv
lt:__ZN9DOS_Shell8CMD_TIMEEPc
mt:__ZL12TV2x_15_32_LPKv
nt:__ZN13CFCSBindGroup14UpdateJoystickEv
ot:_zip_stat_index
pt:__ZL14Normal1x_8_8_RPKv
qt:__Z8IO_ReadDj
rt:__ZNSt3__216__pad_and_outputIcNS_11char_traitsIcEEEENS_19ostreambuf_iteratorIT_T0_EES6_PKS4_S8_S8_RNS_8ios_baseES4_
st:__ZL13INT74_Handlerv
tt:__ZL12TV2x_32_15_LPKv
ut:__Z20PCSPEAKER_SetCounterjj
vt:__ZN7CMscdex14ChannelControlEh5SCtrl
wt:__ZL12RGB2x_8_32_LPKv
xt:__ZL12TV2x_32_32_LPKv
yt:__ZNSt3__215basic_stringbufIcNS_11char_traitsIcEENS_9allocatorIcEEE3strERKNS_12basic_stringIcS2_S4_EE
zt:__ZNK10__cxxabiv120__si_class_type_info16search_below_dstEPNS_19__dynamic_cast_infoEPKvib
At:__ZN8fatDrive15getClusterValueEj
Bt:__Z8VGA_InitP7Section
Ct:__Z17CPU_CheckSegmentsv
Dt:__ZL15Normal2x_8_32_LPKv
Et:__ZL15Normal2x_8_16_LPKv
Ft:__ZL15Normal2x_8_15_LPKv
Gt:__ZNK6Config22GetSectionFromPropertyEPKc
Ht:__ZN15DOS_Drive_Cache11GetLongNameEPNS_9CFileInfoEPc
It:__ZL13Scan2x_8_32_LPKv
Jt:__ZL13Scan2x_8_16_LPKv
Kt:__ZL13Scan2x_8_15_LPKv
Lt:_deflateReset
Mt:__ZN12MixerChannel10AddSamplesIhLb0ELb0ELb1EEEvjPKT_
Nt:__ZN12MixerChannel10AddSamplesItLb0ELb0ELb1EEEvjPKT_
Ot:__ZN9DOS_Shell8CMD_TYPEEPc
Pt:__zip_file_get_end
Qt:__ZL16NormalDw_16_32_RPKv
Rt:__ZL16NormalDw_15_32_RPKv
St:__ZN8isoDrive6lookupEP11isoDirEntryPKc
Tt:_inflateReset2
Ut:__ZNSt3__224__put_character_sequenceIcNS_11char_traitsIcEEEERNS_13basic_ostreamIT_T0_EES7_PKS4_m
Vt:__ZN10localDrive10FileUnlinkEPc
Wt:___dynamic_cast
Xt:__ZNSt3__213basic_ostreamIcNS_11char_traitsIcEEElsEj
Yt:__ZNSt3__213basic_ostreamIcNS_11char_traitsIcEEElsEi
Zt:__ZNSt3__213basic_ostreamIcNS_11char_traitsIcEEElsEb
_t:__ZN8fatDrive17addDirectoryEntryEj8direntry
$t:__ZNSt3__26vectorIN21CDROM_Interface_Image5TrackENS_9allocatorIS2_EEE21__push_back_slow_pathIKS2_EEvRT_
au:__ZN5MIXER3RunEv
bu:__ZNSt3__213basic_ostreamIcNS_11char_traitsIcEEElsEd
cu:__ZN12MixerChannel10AddSamplesIsLb0ELb1ELb1EEEvjPKT_
du:__ZN12MixerChannel10AddSamplesIiLb0ELb1ELb1EEEvjPKT_
eu:__ZL13RGB2x_16_32_LPKv
fu:__ZL13RGB2x_15_32_LPKv
gu:__ZN12MixerChannel10AddSamplesIaLb0ELb1ELb1EEEvjPKT_
hu:__ZL19InitializeJoysticksv
iu:___stdio_write
ju:__ZL16NormalDw_16_15_RPKv
ku:__ZL16NormalDw_15_16_RPKv
lu:__ZL16NormalDw_32_16_RPKv
mu:__ZL16NormalDw_32_15_RPKv
nu:__ZL13RGB2x_32_16_LPKv
ou:__ZL16NormalDw_32_32_RPKv
pu:__ZNK12_GLOBAL__N_116itanium_demangle16FloatLiteralImplIdE9printLeftERNS_12OutputStreamE
qu:__ZL12TV2x_16_16_LPKv
ru:__ZNSt3__26vectorINS_12basic_stringIcNS_11char_traitsIcEENS_9allocatorIcEEEENS4_IS6_EEE21__push_back_slow_pathIS6_EEvOT_
su:__ZN3GUSD2Ev
tu:__ZL12TV2x_15_15_LPKv
uu:__ZNSt3__213basic_filebufIcNS_11char_traitsIcEEE5imbueERKNS_6localeE
vu:__ZN6ConfigC2EP11CommandLine
wu:__ZNSt3__24listIP5CBindNS_9allocatorIS2_EEE6removeERKS2_
xu:__ZL13RGB2x_32_32_LPKv
yu:__ZN15CStickBindGroup14UpdateJoystickEv
zu:__ZL13RGB2x_32_15_LPKv
Au:__ZNK12Section_prop7Get_hexERKNSt3__212basic_stringIcNS0_11char_traitsIcEENS0_9allocatorIcEEEE
Bu:__ZL15NormalDh_8_32_LPKv
Cu:__ZL15NormalDh_8_16_LPKv
Du:__ZL15NormalDh_8_15_LPKv
Eu:__ZL14Normal2x_8_8_LPKv
Fu:__ZL10write_p3c9jjj
Gu:__ZL16Normal1x_16_32_RPKv
Hu:__ZL16Normal1x_15_32_RPKv
Iu:__ZN7CSerial7GetcharEPhS0_bj
Ju:__ZL13RGB2x_16_15_LPKv
Ku:___mo_lookup
Lu:__ZL14NormalDh_8_8_LPKv
Mu:__ZL6Fetchdv
Nu:__Z25INT10_SetBackgroundBorderh
Ou:__ZL13RGB2x_15_16_LPKv
Pu:__ZL16Normal1x_32_16_RPKv
Qu:__Z10write_p3c5jjj
Ru:__ZL16Normal2x_16_32_LPKv
Su:__ZL16Normal2x_15_32_LPKv
Tu:__ZL16Normal1x_32_15_RPKv
Uu:__ZL16Normal1x_16_15_RPKv
Vu:_mbtowc
Wu:__ZL16Normal1x_15_16_RPKv
Xu:__ZL14Scan2x_16_32_LPKv
Yu:__ZL14Scan2x_15_32_LPKv
Zu:__ZL28demangling_terminate_handlerv
_u:__ZL16Normal1x_32_32_RPKv
$u:__ZN12_GLOBAL__N_116itanium_demangle22AbstractManglingParserINS0_14ManglingParserINS_16DefaultAllocatorEEES3_E15parseSourceNameEPNS5_9NameStateE
av:___fdopen
bv:__ZNSt3__212basic_stringIwNS_11char_traitsIwEENS_9allocatorIwEEE21__grow_by_and_replaceEmmmmmmPKw
cv:__ZL16Normal2x_32_16_LPKv
dv:__ZL16Normal2x_32_15_LPKv
ev:__ZN10DmaChannel5WriteEjPh
fv:__ZL16Normal2x_16_15_LPKv
gv:__ZL14Scan2x_32_16_LPKv
hv:__Z17XGA_DrawRectanglej
iv:__ZL16Normal2x_15_16_LPKv
jv:__ZL14Scan2x_32_15_LPKv
kv:__ZN6CONFIG9writeconfENSt3__212basic_stringIcNS0_11char_traitsIcEENS0_9allocatorIcEEEEb
lv:__ZL14Scan2x_16_15_LPKv
mv:__ZNK12_GLOBAL__N_116itanium_demangle16FloatLiteralImplIfE9printLeftERNS_12OutputStreamE
nv:__ZL16NormalDw_16_16_RPKv
ov:__ZL16NormalDw_15_15_RPKv
pv:__ZL14Scan2x_15_16_LPKv
qv:__ZL16Normal2x_32_32_LPKv
rv:__ZN5Value7set_hexERKNSt3__212basic_stringIcNS0_11char_traitsIcEENS0_9allocatorIcEEEE
sv:__ZL14Scan2x_32_32_LPKv
tv:__Z16PAGING_PageFaultjjj
uv:__zip_read_eocd
vv:__ZL15NormalDw_9_32_LPKv
wv:__ZL15NormalDw_9_16_LPKv
xv:__ZL15NormalDw_9_15_LPKv
yv:__Z32INT10_EGA_RIL_WriteRegisterRangehhtj
zv:__Z7CPU_JMPbjjj
Av:__ZN3CPUC2EP7Section
Bv:__ZN6Config8ParseEnvEPPc
Cv:__ZL13RGB2x_16_16_LPKv
Dv:__ZL13RGB2x_15_15_LPKv
Ev:__ZN9DOS_Shell8CMD_GOTOEPc
Fv:_zip_source_read
Gv:__ZL16Normal1x_16_16_RPKv
Hv:__ZL16Normal1x_15_15_RPKv
Iv:__ZNKSt3__27num_putIwNS_19ostreambuf_iteratorIwNS_11char_traitsIwEEEEE6do_putES4_RNS_8ios_baseEwPKv
Jv:__ZNK12_GLOBAL__N_116itanium_demangle16FloatLiteralImplIeE9printLeftERNS_12OutputStreamE
Kv:__ZN7CSerial11handleEventEt
Lv:__Z10DOS_RenamePKcS0_
Mv:__ZL16NormalDh_16_32_LPKv
Nv:__ZL16NormalDh_15_32_LPKv
Ov:__ZN8fatDrive15directoryChangeEjP8direntryi
Pv:__ZL15write_tandy_regh
Qv:__ZN14AutoexecObject7InstallERKNSt3__212basic_stringIcNS0_11char_traitsIcEENS0_9allocatorIcEEEE
Rv:__ZNKSt3__27num_putIcNS_19ostreambuf_iteratorIcNS_11char_traitsIcEEEEE6do_putES4_RNS_8ios_baseEcPKv
Sv:__ZNSt3__212__hash_tableINS_17__hash_value_typeINS_12basic_stringIcNS_11char_traitsIcEENS_9allocatorIcEEEEPFvRKS7_PKcPFvS9_RK10jsonstreamEEEENS_22__unordered_map_hasherIS7_SJ_NS_4hashIS7_EELb1EEENS_21__unordered_map_equalIS7_SJ_NS_8equal_toIS7_EELb1EEENS5_ISJ_EEE6rehashEm
Tv:__Z20SVGA_Setup_TsengET4Kv
Uv:_wcsnrtombs
Vv:__Z13DOS_Terminatetbh
Wv:__ZL15Normal1x_9_16_LPKv
Xv:__ZL15Normal1x_9_15_LPKv
Yv:__ZN9DOS_Shell7CMD_VEREPc
Zv:__ZN7isoFile4ReadEPhPt
_v:__ZL16NormalDh_32_16_LPKv
$v:__ZL13cmos_writeregjjj
aw:__ZL16NormalDh_32_15_LPKv
bw:__ZL15Normal1x_9_32_LPKv
cw:__ZNK12_GLOBAL__N_116itanium_demangle19PointerToMemberType9printLeftERNS_12OutputStreamE
dw:__ZL16NormalDh_16_15_LPKv
ew:__ZN12_GLOBAL__N_116itanium_demangle22AbstractManglingParserINS0_14ManglingParserINS_16DefaultAllocatorEEES3_E13parseDecltypeEv
fw:__ZL16NormalDh_15_16_LPKv
gw:__ZNKSt3__28messagesIcE6do_getEliiRKNS_12basic_stringIcNS_11char_traitsIcEENS_9allocatorIcEEEE
hw:__ZL15VCPI_PM_Handlerv
iw:__ZNSt3__26vectorIPNS_6locale5facetENS_15__sso_allocatorIS3_Lm28EEEE8__appendEm
jw:__ZN15DOS_Drive_Cache7ReadDirEtRPc
kw:__ZL16NormalDh_32_32_LPKv
lw:__ZN5CBind8AddFlagsEPc
mw:__ZL16Normal2x_16_16_LPKv
nw:__ZL16Normal2x_15_15_LPKv
ow:__ZN10DmaChannel4ReadEjPh
pw:__ZL6Fetchwv
qw:__ZN13DmaController17ReadControllerRegEjj
rw:__ZL14Scan2x_16_16_LPKv
sw:__ZL14Scan2x_15_15_LPKv
tw:__ZNK12_GLOBAL__N_116itanium_demangle8CastExpr9printLeftERNS_12OutputStreamE
uw:__ZL20read_crtc_data_otherjj
vw:__ZN5Adlib7Capture10MakeTablesEv
ww:__Z9CPU_ENTERbjj
xw:__ZN7CMscdex14GetAudioStatusEhRbS0_R4SMSFS2_
yw:__ZL19printconfiglocationv
zw:___cxa_demangle
Aw:__ZNK12_GLOBAL__N_116itanium_demangle15ConditionalExpr9printLeftERNS_12OutputStreamE
Bw:__ZN8fatDrive15directoryBrowseEjP8direntryii
Cw:__zip_guess_encoding
Dw:__Z15write_p3d5_et4kjjj
Ew:__ZN8fatDrive14getDirClustNumEPcPjb
Fw:__Z29VGA_ATTR_SetEGAMonitorPalette14EGAMonitorMode
Gw:__Z11XGA_DrawCmdjj
Hw:__ZNSt3__26vectorINS_12basic_stringIcNS_11char_traitsIcEENS_9allocatorIcEEEENS4_IS6_EEE21__push_back_slow_pathIKS6_EEvRT_
Iw:__Z23RestoreCursorBackgroundv
Jw:__ZN3DMAC2EP7Section
Kw:__ZN9imageDiskC2EP8_IO_FILEPhjb
Lw:__Z18FinishSetMode_ET3KjP17VGA_ModeExtraData
Mw:__ZL13Check_Palettev
Nw:__ZN21CDROM_Interface_Image12GetCueStringERNSt3__212basic_stringIcNS0_11char_traitsIcEENS0_9allocatorIcEEEERNS0_13basic_istreamIcS3_EE
Ow:_buffer_find_fragment
Pw:__ZNSt3__213basic_filebufIcNS_11char_traitsIcEEE7seekoffExNS_8ios_base7seekdirEj
Qw:__ZN15C4AxisBindGroup14UpdateJoystickEv
Rw:__Z16VideoModeMemSizej
Sw:__Z10XGA_CheckXv
Tw:__ZN15CStickBindGroupD2Ev
Uw:__ZL16NormalDh_16_16_LPKv
Vw:__ZL16NormalDh_15_15_LPKv
Ww:__ZN9DOS_Shell8CMD_HELPEPc
Xw:__ZL6Fetchbv
Yw:__ZNSt3__212basic_stringIcNS_11char_traitsIcEENS_9allocatorIcEEE21__grow_by_and_replaceEmmmmmmPKc
Zw:__ZNSt3__216__check_groupingERKNS_12basic_stringIcNS_11char_traitsIcEENS_9allocatorIcEEEEPjS8_Rj
_w:__ZL16HandleNameSearchv
$w:__ZNK12Section_prop12Get_multivalERKNSt3__212basic_stringIcNS0_11char_traitsIcEENS0_9allocatorIcEEEE
ax:__ZNK12Section_prop10Get_stringERKNSt3__212basic_stringIcNS0_11char_traitsIcEENS0_9allocatorIcEEEE
bx:__ZN5Value7set_intERKNSt3__212basic_stringIcNS0_11char_traitsIcEENS0_9allocatorIcEEEE
cx:__ZNK12Section_prop8Get_pathERKNSt3__212basic_stringIcNS0_11char_traitsIcEENS0_9allocatorIcEEEE
dx:__Z14XMS_MoveMemoryj
ex:_zip_discard
fx:__Z17DOS_FCBRenameFilett
gx:__ZL15LoadMessageFilePKc
hx:__ZN5Value10set_doubleERKNSt3__212basic_stringIcNS0_11char_traitsIcEENS0_9allocatorIcEEEE
ix:__Z20INT10_SetCursorShapehh
jx:__ZNSt3__212basic_stringIcNS_11char_traitsIcEENS_9allocatorIcEEE6insertEmPKcm
kx:__ZNK12Section_prop8Get_boolERKNSt3__212basic_stringIcNS0_11char_traitsIcEENS0_9allocatorIcEEEE
lx:__ZNK12Section_prop7Get_intERKNSt3__212basic_stringIcNS0_11char_traitsIcEENS0_9allocatorIcEEEE
mx:__ZN4BOOT17getFSFile_mountedEPKcPjS2_Ph
nx:__ZNK12_GLOBAL__N_116itanium_demangle10VectorType9printLeftERNS_12OutputStreamE
ox:__ZN8isoDrive15GetNextDirEntryEiP11isoDirEntry
px:__Z20INT10_SetColorSelecth
qx:__Z15FPU_ESC6_Normalj
rx:__ZN7CSerial9Write_FCREh
sx:__ZN5DBOPL7Channel7WriteB0EPKNS_4ChipEh
tx:_zip_error_strerror
ux:__ZNK12_GLOBAL__N_116itanium_demangle15ClosureTypeName9printLeftERNS_12OutputStreamE
vx:__ZNSt3__213basic_filebufIcNS_11char_traitsIcEEE6setbufEPcl
wx:__Z4trimRNSt3__212basic_stringIcNS_11char_traitsIcEENS_9allocatorIcEEEE
xx:__ZN5Value8SetValueERKNSt3__212basic_stringIcNS0_11char_traitsIcEENS0_9allocatorIcEEEENS_5EtypeE
yx:__ZN12MixerChannel12AddStretchedEjPs
zx:__Z20DOS_OpenFileExtendedPKctttPtS1_
Ax:__zip_headercomp
Bx:__Z7CPU_LARjRj
Cx:__ZN12_GLOBAL__N_116itanium_demangle22AbstractManglingParserINS0_14ManglingParserINS_16DefaultAllocatorEEES3_E20parseFloatingLiteralIeEEPNS0_4NodeEv
Dx:__ZN12_GLOBAL__N_116itanium_demangle22AbstractManglingParserINS0_14ManglingParserINS_16DefaultAllocatorEEES3_E20parseFloatingLiteralIdEEPNS0_4NodeEv
Ex:__ZL12IRQ_TandyDACv
Fx:__Z31INT10_EGA_RIL_ReadRegisterRangehhtj
Gx:__ZN12_GLOBAL__N_116itanium_demangle22AbstractManglingParserINS0_14ManglingParserINS_16DefaultAllocatorEEES3_E20parseFloatingLiteralIfEEPNS0_4NodeEv
Hx:__ZN15DOS_Drive_Cache8CacheOutEPKcb
Ix:__Z23INT10_ToggleBlinkingBith
Jx:__zip_ef_write
Kx:__ZN22CALLBACK_HandlerObject9UninstallEv
Lx:__ZL20tandy_update_palettev
Mx:__ZN8isoDrive8FileOpenEPP8DOS_FilePcj
Nx:__Z14DrawCursorTextv
Ox:_copy_source
Px:__ZL17DSP_DoDMATransfer9DMA_MODESjb
Qx:__zip_stat_merge
Rx:__Z11MAPPER_Initv
Sx:__ZNSt3__26vectorINS_12basic_stringIcNS_11char_traitsIcEENS_9allocatorIcEEEENS4_IS6_EEE26__swap_out_circular_bufferERNS_14__split_bufferIS6_RS7_EEPS6_
Tx:__Z15write_p3d5_et3kjjj
Ux:__ZN3EMSD2Ev
Vx:__ZL15eraseconfigfilev
Wx:__ZNKSt3__28time_getIwNS_19istreambuf_iteratorIwNS_11char_traitsIwEEEEE11__get_am_pmERiRS4_S4_RjRKNS_5ctypeIwEE
Xx:__ZNKSt3__28time_getIcNS_19istreambuf_iteratorIcNS_11char_traitsIcEEEEE11__get_am_pmERiRS4_S4_RjRKNS_5ctypeIcEE
Yx:__ZN12CCheckButton4DrawEv
Zx:__ZL18VGA_TEXT_Draw_Linejj
_x:_deflateEnd
$x:__ZNSt3__213basic_istreamIcNS_11char_traitsIcEEErsERi
ay:__Z8MSG_InitP12Section_prop
by:__Z14TIMER_SetGate2b
cy:__ZN4OPL322operator_advance_drumsEPNS_15operator_structEiS1_iS1_i
dy:__ZN4OPL222operator_advance_drumsEPNS_15operator_structEiS1_iS1_i
ey:__ZN4OPL317change_attackrateEjPNS_15operator_structE
fy:__ZN4OPL217change_attackrateEjPNS_15operator_structE
gy:__ZL19VGA_Draw_CGA16_Linejj
hy:__ZN8fatDrive9RemoveDirEPc
iy:__ZL10FPU_FPREM1v
jy:__Z18mem_unalignedreaddj
ky:__ZNSt3__26vectorIPN15DOS_Drive_Cache9CFileInfoENS_9allocatorIS3_EEE21__push_back_slow_pathIKS3_EEvRT_
ly:__ZL15NormalDw_8_32_LPKv
my:__ZL15NormalDw_8_16_LPKv
ny:__ZL15NormalDw_8_15_LPKv
oy:__Z7CPU_LSLjRj
py:_memchr
qy:__Z10MOUSE_InitP7Section
ry:__zip_changed
sy:__ZN22VGA_ChainedVGA_Handler6writedEjj
ty:__ZL13INT2E_Handlerv
uy:__Z18DOS_FCBRandomWritettPtb
vy:__ZN8Property10CheckValueERK5Valueb
wy:__Z17DOS_BuildUMBChainbb
xy:__ZNSt3__213basic_filebufIcNS_11char_traitsIcEEE4openEPKcj
yy:__ZL16TandyDAC_Handlerh
zy:__Z15BIOS_SetupDisksv
Ay:__ZNK12_GLOBAL__N_116itanium_demangle15BracedRangeExpr9printLeftERNS_12OutputStreamE
By:__ZN5Adlib4Chip5WriteEjh
Cy:__Z20INT10_ReloadRomFontsv
Dy:___stpncpy
Ey:__ZN9DOS_Shell12CMD_LOADHIGHEPc
Fy:__ZN12_GLOBAL__N_116itanium_demangle22AbstractManglingParserINS0_14ManglingParserINS_16DefaultAllocatorEEES3_E13parseSimpleIdEv
Gy:__ZL11useFreeInfoP8FreeInfom
Hy:__ZL16GUS_DMA_CallbackP10DmaChannel8DMAEvent
Iy:__ZL16extendLastRegionm
Jy:__ZNSt3__225__num_get_signed_integralIlEET_PKcS3_Rji
Ky:__ZL16DMA_Silent_Eventj
Ly:__ZL16CreateStringBindPc
My:__ZNKSt3__215basic_stringbufIcNS_11char_traitsIcEENS_9allocatorIcEEE3strEv
Ny:__ZN12_GLOBAL__N_116itanium_demangle22AbstractManglingParserINS0_14ManglingParserINS_16DefaultAllocatorEEES3_E24parsePointerToMemberTypeEv
Oy:__ZNSt3__215basic_stringbufIcNS_11char_traitsIcEENS_9allocatorIcEEE9pbackfailEi
Py:__ZL18DOS_CompressMemoryv
Qy:__ZL15Normal1x_8_16_LPKv
Ry:__ZL15Normal1x_8_15_LPKv
Sy:__Z22MSCDEX_HasMediaChangedh
Ty:__ZNSt3__227__num_get_unsigned_integralIyEET_PKcS3_Rji
Uy:__ZL15erasemapperfilev
Vy:__ZL15Normal1x_8_32_LPKv
Wy:__ZL14DMA_BlockWritejjPvjh
Xy:__ZL13DMA_BlockReadjjPvjh
Yy:__ZNKSt3__28time_putIwNS_19ostreambuf_iteratorIwNS_11char_traitsIwEEEEE6do_putES4_RNS_8ios_baseEwPK2tmcc
Zy:__zip_source_call
_y:__ZNKSt3__28time_putIcNS_19ostreambuf_iteratorIcNS_11char_traitsIcEEEEE6do_putES4_RNS_8ios_baseEcPK2tmcc
$y:__ZL11EMM_MapPagejtt
az:__Z19mem_unalignedwritedjj
bz:__ZNSt3__213basic_istreamIcNS_11char_traitsIcEEErsERd
cz:__ZL9FPU_FLD80j
dz:__ZL14NormalDw_8_8_LPKv
ez:___fwritex
fz:__ZL17CAPTURE_WaveEventb
gz:__ZNSt3__213basic_ostreamIcNS_11char_traitsIcEEE3putEc
hz:__ZN6DISNEYC2EP7Section
iz:__ZL16MAPPER_SaveBindsv
jz:__ZNSt3__26vectorIP13CHandlerEventNS_9allocatorIS2_EEE21__push_back_slow_pathIKS2_EEvRT_
kz:__ZN8fatDrive24getAbsoluteSectFromChainEjj
lz:_strspn
mz:__ZL14Normal1x_8_8_LPKv
nz:__ZL13MIXER_MixDataj
oz:__ZL17CAPTURE_MidiEventb
pz:__ZN11CommandLine15FindStringBeginEPKcRNSt3__212basic_stringIcNS2_11char_traitsIcEENS2_9allocatorIcEEEEb
qz:__Z11DOS_FCBOpentt
rz:__ZN13CKeyBindGroup10CheckEventEP9SDL_Event
sz:_buffer_free
tz:__zip_cdir_grow
uz:__ZNSt3__26vectorIPFvPP7ProgramENS_9allocatorIS5_EEE21__push_back_slow_pathIKS5_EEvRT_
vz:__ZN7DOS_PSP7MakeNewEt
wz:__zip_string_new
xz:__ZNSt3__26vectorIP10CBindGroupNS_9allocatorIS2_EEE21__push_back_slow_pathIKS2_EEvRT_
yz:__ZN11CommandLineC2EiPKPKc
zz:__Z12PIC_RunQueuev
Az:__ZNSt3__26vectorI10copysourceNS_9allocatorIS1_EEE21__push_back_slow_pathIKS1_EEvRT_
Bz:__ZL8read_gusjj
Cz:__ZN12_GLOBAL__N_116itanium_demangle22AbstractManglingParserINS0_14ManglingParserINS_16DefaultAllocatorEEES3_E26resolveForwardTemplateRefsERNS5_9NameStateE
Dz:__ZL16NormalDw_16_32_LPKv
Ez:__ZL16NormalDw_15_32_LPKv
Fz:__ZL15MPU401_ReadDatajj
Gz:__ZNK12_GLOBAL__N_116itanium_demangle11PointerType10printRightERNS_12OutputStreamE
Hz:__Z13DoPS2Callbacktss
Iz:__Z23DOS_ForceDuplicateEntrytt
Jz:__Z15INT10_WriteCharhhhtb
Kz:__ZNSt3__213basic_filebufIcNS_11char_traitsIcEEE7seekposENS_4fposI11__mbstate_tEEj
Lz:__ZNSt3__26vectorIP9DOS_DriveNS_9allocatorIS2_EEE21__push_back_slow_pathIKS2_EEvRT_
Mz:__ZN4BIOSD2Ev
Nz:__ZL21CTMIXER_UpdateVolumesv
Oz:__ZL10EA_32_04_nv
Pz:__ZZN6Events20registerPushSDLEventEvENK3__3clERKNSt3__212basic_stringIcNS1_11char_traitsIcEENS1_9allocatorIcEEEEPKcPFvS9_RK10jsonstreamE
Qz:__ZNK12_GLOBAL__N_116itanium_demangle13ReferenceType10printRightERNS_12OutputStreamE
Rz:__ZN3XMSD2Ev
Sz:__ZN13CFCSBindGroup10CheckEventEP9SDL_Event
Tz:__Z7CPU_LTRj
Uz:__Z18RENDER_StartUpdatev
Vz:__ZL16NormalDw_32_16_LPKv
Wz:__Z28INT10_SetAllPaletteRegistersj
Xz:__ZL16NormalDw_32_15_LPKv
Yz:__ZNSt3__26vectorIP7CButtonNS_9allocatorIS2_EEE21__push_back_slow_pathIKS2_EEvRT_
Zz:__Z13DOS_CloseFiletb
_z:__ZNSt3__213basic_filebufIcNS_11char_traitsIcEEEC2Ev
$z:__ZN12_GLOBAL__N_116DefaultAllocator8makeNodeINS_16itanium_demangle7NewExprEJRNS2_9NodeArrayERPNS2_4NodeES5_RbS9_EEEPT_DpOT0_
aA:__ZN12_GLOBAL__N_116DefaultAllocator8makeNodeINS_16itanium_demangle7NewExprEJRNS2_9NodeArrayERPNS2_4NodeES4_RbS9_EEEPT_DpOT0_
bA:__ZN11CommandLine5ShiftEj
cA:__ZL16NormalDw_16_15_LPKv
dA:__ZN13CFCSBindGroup17DecodeHatPositionEh
eA:__ZN12_GLOBAL__N_116itanium_demangle22AbstractManglingParserINS0_14ManglingParserINS_16DefaultAllocatorEEES3_E19parseDestructorNameEv
fA:__ZL16NormalDw_15_16_LPKv
gA:__ZNSt3__212basic_stringIwNS_11char_traitsIwEENS_9allocatorIwEEE9__grow_byEmmmmmm
hA:__ZL11SERIAL_Readjj
iA:__ZNSt3__26vectorIP6CEventNS_9allocatorIS2_EEE21__push_back_slow_pathIKS2_EEvRT_
jA:___stdio_read
kA:__ZL16NormalDw_32_32_LPKv
lA:_fread
mA:_decrypt
nA:__ZN15CStickBindGroup15CreateEventBindEP9SDL_Event
oA:__ZNSt3__26vectorI5ValueNS_9allocatorIS1_EEE21__push_back_slow_pathIKS1_EEvRT_
pA:__Z17DOS_FCBRandomReadttPtb
qA:__ZN7CSerial7PutcharEhbbj
rA:__ZN4CMOSC2EP7Section
sA:__ZN5CBind14DeActivateBindEb
tA:__ZNSt3__27__sort5IRPFbRKPN15DOS_Drive_Cache9CFileInfoES5_EPS3_EEjT0_SA_SA_SA_SA_T_
uA:__ZN8Property10Set_valuesEPKPKc
vA:__ZL16Normal1x_16_32_LPKv
wA:__ZL16Normal1x_15_32_LPKv
xA:__ZL13SetActiveBindP5CBind
yA:__Z17VGA_DetermineModev
zA:__ZNK12_GLOBAL__N_116itanium_demangle10BracedExpr9printLeftERNS_12OutputStreamE
AA:__ZNSt3__227__num_get_unsigned_integralItEET_PKcS3_Rji
BA:__ZN8isoDrive9FindFirstEPcR7DOS_DTAb
CA:__ZNK12_GLOBAL__N_116itanium_demangle18ArraySubscriptExpr9printLeftERNS_12OutputStreamE
DA:__ZNK12_GLOBAL__N_116itanium_demangle14ConversionExpr9printLeftERNS_12OutputStreamE
EA:_zip_source_seek_compute_offset
FA:__zip_ef_merge
GA:__ZL14SaveFindResultR7DOS_FCB
HA:__ZNK12_GLOBAL__N_116itanium_demangle10PrefixExpr9printLeftERNS_12OutputStreamE
IA:__ZN4OPL316change_frequencyEjjPNS_15operator_structE
JA:__ZN4OPL216change_frequencyEjjPNS_15operator_structE
KA:__ZNSt3__227__num_get_unsigned_integralImEET_PKcS3_Rji
LA:__ZNSt3__227__num_get_unsigned_integralIjEET_PKcS3_Rji
MA:__ZN7CMscdex15PlayAudioSectorEhjj
NA:__Z11MSG_ReplacePKcS0_
OA:__ZN11CommandLine10FindStringEPKcRNSt3__212basic_stringIcNS2_11char_traitsIcEENS2_9allocatorIcEEEEb
PA:__ZN9DOS_Shell9CMD_RMDIREPc
QA:_wcrtomb
RA:__ZN9DOS_Shell9CMD_MKDIREPc
SA:__ZL16Normal1x_32_32_LPKv
TA:__ZL16Normal1x_32_16_LPKv
UA:__ZL16Normal1x_32_15_LPKv
VA:__ZL14DMA_Write_Portjjj
WA:__ZL10EA_32_04_nv_421
XA:__ZN9BatchFileC2EP9DOS_ShellPKcS3_S3_
YA:__ZL16RestoreRegistersv
ZA:__ZL16Normal1x_16_15_LPKv
_A:__Z15PAGING_LinkPagejj
$A:__ZNK12_GLOBAL__N_116itanium_demangle12TemplateArgs9printLeftERNS_12OutputStreamE
aB:__ZL16Normal1x_15_16_LPKv
bB:__ZL14counter_outputj
cB:__ZL12MPU401_Eventj
dB:__Z6get_ZFv
eB:__Z6get_SFv
fB:__ZNK12_GLOBAL__N_116itanium_demangle10AbiTagAttr9printLeftERNS_12OutputStreamE
gB:__zip_dirent_finalize
hB:__ZNK12_GLOBAL__N_116itanium_demangle9NodeArray14printWithCommaERNS_12OutputStreamE
iB:__ZNSt3__212__hash_tableINS_17__hash_value_typeINS_12basic_stringIcNS_11char_traitsIcEENS_9allocatorIcEEEEPFvRKS7_PKcPFvS9_RK10jsonstreamEEEENS_22__unordered_map_hasherIS7_SJ_NS_4hashIS7_EELb1EEENS_21__unordered_map_equalIS7_SJ_NS_8equal_toIS7_EELb1EEENS5_ISJ_EEE16__construct_nodeIJNS_4pairISB_ZN6Events20registerPushSDLEventEvE3__3EEEEENS_10unique_ptrINS_11__hash_nodeISJ_PvEENS_22__hash_node_destructorINS5_IS12_EEEEEEDpOT_
jB:__Z17write_p3cf_pvga1ajjj
kB:__ZNK12_GLOBAL__N_116itanium_demangle13ObjCProtoName9printLeftERNS_12OutputStreamE
lB:__ZN4OPL315operator_attackEPNS_15operator_structE
mB:__ZN4OPL215operator_attackEPNS_15operator_structE
nB:__ZN13Prop_multivalC2ERKNSt3__212basic_stringIcNS0_11char_traitsIcEENS0_9allocatorIcEEEEN8Property10Changeable5ValueES8_
oB:__ZN12_GLOBAL__N_116itanium_demangle22AbstractManglingParserINS0_14ManglingParserINS_16DefaultAllocatorEEES3_E11parseNumberEb
pB:__ZNSt3__212__hash_tableINS_17__hash_value_typeINS_12basic_stringIcNS_11char_traitsIcEENS_9allocatorIcEEEEPFvRKS7_PKcPFvS9_RK10jsonstreamEEEENS_22__unordered_map_hasherIS7_SJ_NS_4hashIS7_EELb1EEENS_21__unordered_map_equalIS7_SJ_NS_8equal_toIS7_EELb1EEENS5_ISJ_EEE16__construct_nodeIJNS_4pairISB_ZN6Events18registerScreenshotEvE3__2EEEEENS_10unique_ptrINS_11__hash_nodeISJ_PvEENS_22__hash_node_destructorINS5_IS12_EEEEEEDpOT_
qB:__Z13XGA_DrawPointjjj
rB:__Z13DOS_WriteFiletPhPtb
sB:__ZL9read_p3cfjj
tB:__ZNK12_GLOBAL__N_116itanium_demangle9DotSuffix9printLeftERNS_12OutputStreamE
uB:__ZNK12_GLOBAL__N_116itanium_demangle8QualType10printQualsERNS_12OutputStreamE
vB:__ZNK12_GLOBAL__N_116itanium_demangle10DeleteExpr9printLeftERNS_12OutputStreamE
wB:__ZNK12_GLOBAL__N_116itanium_demangle15IntegerCastExpr9printLeftERNS_12OutputStreamE
xB:__ZNSt3__212__hash_tableINS_17__hash_value_typeINS_12basic_stringIcNS_11char_traitsIcEENS_9allocatorIcEEEEPFvRKS7_PKcPFvS9_RK10jsonstreamEEEENS_22__unordered_map_hasherIS7_SJ_NS_4hashIS7_EELb1EEENS_21__unordered_map_equalIS7_SJ_NS_8equal_toIS7_EELb1EEENS5_ISJ_EEE16__construct_nodeIJNS_4pairISB_ZN6Events12registerExitEvE3__1EEEEENS_10unique_ptrINS_11__hash_nodeISJ_PvEENS_22__hash_node_destructorINS5_IS12_EEEEEEDpOT_
yB:__ZN12_GLOBAL__N_116itanium_demangle22AbstractManglingParserINS0_14ManglingParserINS_16DefaultAllocatorEEES3_E15parseBinaryExprENS_10StringViewE
zB:__Z17SVGA_Setup_S3Triov
AB:__Z13PROGRAMS_InitP7Section
BB:__ZNSt3__212basic_stringIwNS_11char_traitsIwEENS_9allocatorIwEEE9push_backEw
CB:__ZN12_GLOBAL__N_116itanium_demangle14PODSmallVectorIPNS0_4NodeELm8EEC2EOS4_
DB:__ZL16NormalDw_16_16_LPKv
EB:__ZL16NormalDw_15_15_LPKv
FB:__ZNK13Prop_multival9GetValuesEv
GB:__ZNK12_GLOBAL__N_116itanium_demangle11PostfixExpr9printLeftERNS_12OutputStreamE
HB:__ZNK10__cxxabiv119__pointer_type_info16can_catch_nestedEPKNS_16__shim_type_infoE
IB:__ZL12SERIAL_Writejjj
JB:__ZN7ProgramC2Ev
KB:__Z15FPU_ESC7_Normalj
LB:__ZN21CDROM_Interface_Image11GetCueFrameERiRNSt3__213basic_istreamIcNS1_11char_traitsIcEEEE
MB:__ZN12_GLOBAL__N_116itanium_demangle22AbstractManglingParserINS0_14ManglingParserINS_16DefaultAllocatorEEES3_E19parseBareSourceNameEv
NB:__Z11CPU_SET_CRXjj
OB:__ZN7CSerial8Read_RHREv
PB:__ZN6MPU401D2Ev
QB:__ZN11CommandLine7FindIntEPKcRib
RB:__Z8CPU_VERRj
SB:__ZL23RENDER_StartLineHandlerPKv
TB:__Z11FPU_ESC5_EAjj
UB:__ZNSt3__212basic_stringIcNS_11char_traitsIcEENS_9allocatorIcEEE9push_backEc
VB:__Z9read_p3c1jj
WB:__ZNK10__cxxabiv117__class_type_info9can_catchEPKNS_16__shim_type_infoERPv
XB:__Z12VGA_SetClockjj
YB:__ZNSt3__212basic_stringIwNS_11char_traitsIwEENS_9allocatorIwEEE6appendEPKwm
ZB:__ZN12_GLOBAL__N_116DefaultAllocator8makeNodeINS_16itanium_demangle16FunctionEncodingEJRPNS2_4NodeES6_NS2_9NodeArrayES6_RNS2_10QualifiersERNS2_15FunctionRefQualEEEEPT_DpOT0_
_B:__ZL16Normal1x_16_16_LPKv
$B:__ZL16Normal1x_15_15_LPKv
aC:__ZL10EA_32_84_nv
bC:__ZNSt3__26vectorI9SDL_EventNS_9allocatorIS1_EEE26__swap_out_circular_bufferERNS_14__split_bufferIS1_RS3_EEPS1_
cC:_memset
dC:__ZL14write_herculesjjj
eC:__ZNSt3__212basic_stringIwNS_11char_traitsIwEENS_9allocatorIwEEE6assignEPKwm
fC:__Z30INT10_EGA_RIL_WriteRegisterSettj
gC:_zip_source_open
hC:___stpcpy
iC:__ZNSt3__26vectorIPN15DOS_Drive_Cache9CFileInfoENS_9allocatorIS3_EEE26__swap_out_circular_bufferERNS_14__split_bufferIS3_RS5_EEPS3_
jC:__ZN7fatFile4SeekEPjj
kC:__ZNSt3__27__sort3IRPFbRKPN15DOS_Drive_Cache9CFileInfoES5_EPS3_EEjT0_SA_SA_T_
lC:__ZNSt3__212basic_stringIcNS_11char_traitsIcEENS_9allocatorIcEEE6appendEmc
mC:__Z19INT10_SetActivePageh
nC:__ZL12CMS_CallBackj
oC:__ZL17HandleMouseButtonP20SDL_MouseButtonEvent
pC:__ZNSt3__221__murmur2_or_cityhashImLm32EEclEPKvm
qC:__ZN7CSerial9Write_THREh
rC:__ZL13DMA_Read_Portjj
sC:__ZNKSt3__28time_getIwNS_19istreambuf_iteratorIwNS_11char_traitsIwEEEEE11do_get_dateES4_S4_RNS_8ios_baseERjP2tm
tC:__ZL13SaveRegistersv
uC:__Z18DOS_DuplicateEntrytPt
vC:_readdir
wC:__ZN12_GLOBAL__N_116itanium_demangle22AbstractManglingParserINS0_14ManglingParserINS_16DefaultAllocatorEEES3_E12parseAbiTagsEPNS0_4NodeE
xC:__ZL16GetSetHandleNamev
yC:__ZNKSt3__28time_getIcNS_19istreambuf_iteratorIcNS_11char_traitsIcEEEEE11do_get_dateES4_S4_RNS_8ios_baseERjP2tm
zC:__ZNSt3__212basic_stringIcNS_11char_traitsIcEENS_9allocatorIcEEE9__grow_byEmmmmmm
AC:__ZN7Program9GetEnvStrEPKcRNSt3__212basic_stringIcNS2_11char_traitsIcEENS2_9allocatorIcEEEE
BC:__ZNSt3__212basic_stringIcNS_11char_traitsIcEENS_9allocatorIcEEE6appendEPKcm
CC:__ZNSt3__213basic_filebufIcNS_11char_traitsIcEEE9pbackfailEi
DC:__ZNSt3__212basic_stringIcNS_11char_traitsIcEENS_9allocatorIcEEE6assignEPKcm
EC:__ZL7EGA_RILtRtS_
FC:__ZN8fatDrive11GetFileAttrEPcPt
GC:__Z15CAPTURE_AddWavejjPs
HC:__ZN8fatDrive8FileOpenEPP8DOS_FilePcj
IC:__ZN5MIXER10MakeVolumeEPcRfS1_
JC:__ZN15DOS_Drive_Cache7OpenDirEPNS_9CFileInfoEPKcRt
KC:__ZN15DOS_Drive_Cache17CreateShortNameIDEPNS_9CFileInfoEPKc
LC:__ZL7read_sbjj
MC:__ZL10EA_32_44_nv_429
NC:__Z18DOS_FCBGetFileSizett
OC:__Z14DOS_FindDevicePKc
PC:__ZN13CHandlerEvent15MakeDefaultBindEPc
QC:__ZL8FPU_FBSTj
RC:__zip_ef_utf8
SC:___newlocale
TC:__ZN16TaskStateSegment11SetSelectorEj
UC:__ZNSt3__212basic_stringIcNS_11char_traitsIcEENS_9allocatorIcEEE5eraseEmm
VC:__ZL8AddEntryP8PICEntry
WC:__Z17PROGRAMS_MakeFilePKcPFvPP7ProgramE
XC:_hash_resize
YC:__ZL10EA_32_84_nv_437
ZC:__Z18XMS_AllocateMemoryjRt
_C:__ZNK12_GLOBAL__N_116itanium_demangle15UnnamedTypeName9printLeftERNS_12OutputStreamE
$C:__ZN10cdromDriveC2EcPKcthtthRi
aD:__ZL12FormatNumberjPc
bD:__ZN5Adlib7Capture9CloseFileEv
cD:__ZN12_GLOBAL__N_116DefaultAllocator8makeNodeINS_16itanium_demangle15ClosureTypeNameEJRNS2_9NodeArrayERNS_10StringViewEEEEPT_DpOT0_
dD:__ZN12_GLOBAL__N_116DefaultAllocator8makeNodeINS_16itanium_demangle12FunctionTypeEJRPNS2_4NodeERNS2_9NodeArrayERNS2_10QualifiersERNS2_15FunctionRefQualES6_EEEPT_DpOT0_
eD:__Z13DOS_RemoveDirPKc
fD:__ZNSt3__24listIP5CBindNS_9allocatorIS2_EEE6spliceENS_21__list_const_iteratorIS2_PvEERS5_S8_S8_
gD:__Z20SVGA_Setup_TsengET3Kv
hD:__ZNSt3__212basic_stringIwNS_11char_traitsIwEENS_9allocatorIwEEE6__initIPKwEENS_9enable_ifIXsr21__is_forward_iteratorIT_EE5valueEvE4typeESA_SA_
iD:__ZNSt3__212basic_stringIwNS_11char_traitsIwEENS_9allocatorIwEEE6__initIPwEENS_9enable_ifIXsr21__is_forward_iteratorIT_EE5valueEvE4typeES9_S9_
jD:__ZN8Property8Set_helpERKNSt3__212basic_stringIcNS0_11char_traitsIcEENS0_9allocatorIcEEEE
kD:__ZN21CDROM_Interface_Image10BinaryFileC2EPKcRb
lD:_strcspn
mD:__ZN18GDTDescriptorTable4LLDTEj
nD:__Z11FPU_ESC7_EAjj
oD:__ZN12_GLOBAL__N_116itanium_demangle19parse_discriminatorEPKcS2_
pD:__ZN7CMscdex9GetCDInfoEhRhS0_R4SMSF
qD:_process
rD:__ZN15DOS_Drive_Cache8AddEntryEPKcb
sD:__zip_buffer_get_64
tD:__ZN4OPL314operator_decayEPNS_15operator_structE
uD:__ZN4OPL214operator_decayEPNS_15operator_structE
vD:__ZN8SBLASTERD2Ev
wD:__ZL8GUSResetv
xD:__ZL9DSP_Resetv
yD:__zip_ef_remove_internal
zD:__ZNK12Section_prop12GetPropValueERKNSt3__212basic_stringIcNS0_11char_traitsIcEENS0_9allocatorIcEEEE
AD:__ZN15CStickBindGroup16CreateConfigBindERPc
BD:__tr_flush_bits
CD:__ZN14AutoexecObject14CreateAutoexecEv
DD:__ZL10EA_32_44_nv
ED:__ZNSt3__214__num_put_base14__format_floatEPcPKcj
FD:__ZN7DOS_FCB8FileOpenEh
GD:__ZN12_GLOBAL__N_116DefaultAllocator8makeNodeINS_16itanium_demangle14IntegerLiteralEJRNS_10StringViewES5_EEEPT_DpOT0_
HD:__ZNK12_GLOBAL__N_116itanium_demangle13EnclosingExpr9printLeftERNS_12OutputStreamE
ID:__ZN7CMscdex8ReadVTOCEttjRtS0_
JD:__ZN12DriveManager12UnmountDriveEi
KD:__Z15GFX_StartUpdateRPhRj
LD:__Z15FPU_ESC5_Normalj
MD:__ZNSt3__213basic_istreamIcNS_11char_traitsIcEEE5seekgExNS_8ios_base7seekdirE
ND:__ZNSt3__218__insertion_sort_3IRPFbRKPN15DOS_Drive_Cache9CFileInfoES5_EPS3_EEvT0_SA_T_
OD:__ZN12_GLOBAL__N_116itanium_demangle22AbstractManglingParserINS0_14ManglingParserINS_16DefaultAllocatorEEES3_E17parseCVQualifiersEv
PD:__ZNSt3__225__num_get_signed_integralIxEET_PKcS3_Rji
QD:__ZN7CButton4DrawEv
RD:__ZN7CMscdex15GetDeviceStatusEh
SD:__ZNSt3__26vectorINS_12basic_stringIcNS_11char_traitsIcEENS_9allocatorIcEEEENS4_IS6_EEE26__swap_out_circular_bufferERNS_14__split_bufferIS6_RS7_EE
TD:__ZN21CDROM_Interface_Image11GetAudioSubERhS0_S0_R4SMSFS2_
UD:__Z11FPU_ESC3_EAjj
VD:__ZN22VGA_ChainedEGA_Handler12writeHandlerEjh
WD:__ZNSt3__212basic_stringIcNS_11char_traitsIcEENS_9allocatorIcEEE6__initIPKcEENS_9enable_ifIXsr21__is_forward_iteratorIT_EE5valueEvE4typeESA_SA_
XD:__ZNSt3__212basic_stringIcNS_11char_traitsIcEENS_9allocatorIcEEE6__initIPcEENS_9enable_ifIXsr21__is_forward_iteratorIT_EE5valueEvE4typeES9_S9_
YD:__ZN12_GLOBAL__N_116itanium_demangle22AbstractManglingParserINS0_14ManglingParserINS_16DefaultAllocatorEEES3_E20parsePositiveIntegerEPm
ZD:__ZL9write_p64jjj
_D:__ZNSt3__215basic_streambufIcNS_11char_traitsIcEEE6xsputnEPKcl
$D:__ZNK12_GLOBAL__N_116itanium_demangle15PixelVectorType9printLeftERNS_12OutputStreamE
aE:__ZN5CBind12ActivateBindEibb
bE:__zip_string_get
cE:___fseeko_unlocked
dE:__ZN11CommandLine15GetStringRemainERNSt3__212basic_stringIcNS0_11char_traitsIcEENS0_9allocatorIcEEEE
eE:__Z26INT10_EGA_RIL_ReadRegisterRht
fE:__Z15DOS_GetFileDatetPtS_
gE:__ZNK10__cxxabiv117__class_type_info29process_static_type_above_dstEPNS_19__dynamic_cast_infoEPKvS4_i
hE:__ZNK10__cxxabiv117__class_type_info16search_below_dstEPNS_19__dynamic_cast_infoEPKvib
iE:__ZL27VGA_Draw_Xlat16_Linear_Linejj
jE:__ZL16DSP_DMA_CallBackP10DmaChannel8DMAEvent
kE:__ZN5Adlib6Module8PortReadEjj
lE:__ZL9read_p201jj
mE:__ZL10EA_32_04_nv_330
nE:__ZN8HARDWAREC2EP7Section
oE:__ZN12_GLOBAL__N_116itanium_demangle14PODSmallVectorIPNS0_24ForwardTemplateReferenceELm4EE7reserveEm
pE:___strchrnul
qE:__ZN12_GLOBAL__N_116DefaultAllocator8makeNodeINS_16itanium_demangle10VectorTypeEJRPNS2_4NodeERNS_10StringViewEEEEPT_DpOT0_
rE:_inflateInit2_
sE:__ZN7CSerial8Read_MSREv
tE:__ZN12_GLOBAL__N_116DefaultAllocator8makeNodeINS_16itanium_demangle10VectorTypeEJRPNS2_4NodeENS_10StringViewEEEEPT_DpOT0_
uE:__Z14MAPPER_StartUpP7Section
vE:__ZNK12_GLOBAL__N_116itanium_demangle19SizeofParamPackExpr9printLeftERNS_12OutputStreamE
wE:__ZL10write_p3c2jjj
xE:__ZN12DriveManager13CycleAllDisksEv
yE:__ZNK10__cxxabiv121__vmi_class_type_info27has_unambiguous_public_baseEPNS_19__dynamic_cast_infoEPvi
zE:__ZN8isoDrive8FileStatEPKcP14FileStat_Block
AE:__Z24PAGING_LinkPage_ReadOnlyjj
BE:__zip_dirent_size
CE:__Z17INT10_SetDACBlockttj
DE:__ZL14Reboot_Handlerv
EE:_decrypt_header
FE:_create_temp_output
GE:__ZNSt3__26removeINS_11__wrap_iterIPcEEcEET_S4_S4_RKT0_
HE:__Z9Set_LabelPKcPcb
IE:__Z14read_p3d5_et3kjj
JE:__ZL17CPU_CycleIncreaseb
KE:_fputc
LE:__ZN7DOS_DTA15GetSearchParamsERhPc
ME:__ZZN12_GLOBAL__N_116itanium_demangle22AbstractManglingParserINS0_14ManglingParserINS_16DefaultAllocatorEEES3_E15parseNestedNameEPNS5_9NameStateEENKUlPNS0_4NodeEE_clES9_
NE:__ZN8isoDrive9loadImageEv
OE:__Z16VGA_SetCGA4Tablehhhh
PE:__ZN15C4AxisBindGroup10CheckEventEP9SDL_Event
QE:__ZNSt3__215basic_streambufIcNS_11char_traitsIcEEE6xsgetnEPcl
RE:__ZN15CStickBindGroup10CheckEventEP9SDL_Event
SE:__ZN10localDrive8FileStatEPKcP14FileStat_Block
TE:__ZL14SetActiveEventP6CEvent
UE:_vsnprintf
VE:__ZN12_GLOBAL__N_116itanium_demangle22AbstractManglingParserINS0_14ManglingParserINS_16DefaultAllocatorEEES3_E10parseSeqIdEPm
WE:__Z17MAPPER_AddHandlerPFvbE7MapKeysjPKcS3_
XE:__ZN14DOS_ParamBlock8LoadDataEv
YE:__ZN5DBOPL7Channel11SetChanDataEPKNS_4ChipEj
ZE:__ZL18EMM_AllocateMemorytRtb
_E:__Z20FinishSetMode_PVGA1AjP17VGA_ModeExtraData
$E:__ZL21VGA_DrawEGASingleLinej
aF:__Z27INT10_EGA_RIL_WriteRegisterRhht
bF:__zip_read_data
cF:__ZNK12_GLOBAL__N_116itanium_demangle21CtorVtableSpecialName9printLeftERNS_12OutputStreamE
dF:__ZL11write_tandyjjj
eF:__ZN7CSerial14Init_RegistersEv
fF:__ZL8FPU_FBLDjj
gF:__Z15SVGA_S3_ReadSEQjj
hF:__ZNSt3__27__sort4IRPFbRKPN15DOS_Drive_Cache9CFileInfoES5_EPS3_EEjT0_SA_SA_SA_T_
iF:__ZN8isoDrive12UpdateMscdexEcPKcRh
jF:__ZL13EGA16_CopyRowhhhhj
kF:__ZN7CSerial17ComputeInterruptsEv
lF:__ZL12MPU401_Resetv
mF:__Z15FPU_ESC4_Normalj
nF:__Z15FPU_ESC0_Normalj
oF:__ZN12Virtual_File4SeekEPjj
pF:__ZL22write_cga_color_selectj
qF:__ZL17CPU_CycleDecreaseb
rF:__ZL10write_pcjrjjj
sF:__ZNSt3__2plIcNS_11char_traitsIcEENS_9allocatorIcEEEENS_12basic_stringIT_T0_T1_EERKS9_SB_
tF:__ZL15TANDY16_FillRowhhhjh
uF:__Z13DOS_ChangeDirPKc
vF:__ZNK12_GLOBAL__N_116itanium_demangle8CallExpr9printLeftERNS_12OutputStreamE
wF:__Z7MSG_AddPKcS0_
xF:__ZNK12_GLOBAL__N_116itanium_demangle19PointerToMemberType10printRightERNS_12OutputStreamE
yF:__ZN12_GLOBAL__N_116itanium_demangle22AbstractManglingParserINS0_14ManglingParserINS_16DefaultAllocatorEEES3_E19parseIntegerLiteralENS_10StringViewE
zF:__ZL13driveInactiveh
AF:__Z16read_p3cf_pvga1ajj
BF:_strncasecmp
CF:__ZN9DOS_Shell9CMD_PAUSEEPc
DF:__Z9CPU_CPUIDv
EF:__Z16XGA_GetMixResultjjj
FF:__ZNSt3__26vectorIN21CDROM_Interface_Image5TrackENS_9allocatorIS2_EEE26__swap_out_circular_bufferERNS_14__split_bufferIS2_RS4_EE
GF:__Z12DOS_ReadFiletPhPtb
HF:__Z11DOS_MakeDirPKc
IF:__ZNSt3__26vectorIPNS_6locale5facetENS_15__sso_allocatorIS3_Lm28EEEE26__swap_out_circular_bufferERNS_14__split_bufferIS3_RS5_EE
JF:__ZNSt3__26vectorIPN15DOS_Drive_Cache9CFileInfoENS_9allocatorIS3_EEE26__swap_out_circular_bufferERNS_14__split_bufferIS3_RS5_EE
KF:__ZL12VGA_DrawPartj
LF:__Z25SVGA_Setup_ParadisePVGA1Av
MF:__ZN21CDROM_Interface_Image14ChannelControlE5SCtrl
NF:__ZN21CDROM_Interface_Image10ReadSectorEPhbm
OF:__ZN12_GLOBAL__N_116itanium_demangle14PODSmallVectorIPNS0_4NodeELm32EE7reserveEm
PF:__Z17DOS_UpdatePSPNamev
QF:__zip_new
RF:__ZNKSt3__210__time_put8__do_putEPwRS1_PK2tmcc
SF:__ZNK12_GLOBAL__N_116itanium_demangle17VendorExtQualType9printLeftERNS_12OutputStreamE
TF:__ZN13Virtual_Drive8FindNextER7DOS_DTA
UF:__ZN12_GLOBAL__N_116itanium_demangle22AbstractManglingParserINS0_14ManglingParserINS_16DefaultAllocatorEEES3_E9consumeIfENS_10StringViewE
VF:__zip_cp437_to_utf8
WF:__ZN15MidiHandler_oss4OpenEPKc
XF:__ZN12_GLOBAL__N_116itanium_demangle14PODSmallVectorIPNS0_4NodeELm8EE7reserveEm
YF:__ZL13PageFaultCorev
ZF:__ZN12_GLOBAL__N_116DefaultAllocator8makeNodeINS_16itanium_demangle15PixelVectorTypeEJRNS_10StringViewEEEEPT_DpOT0_
_F:__ZN10localDrive10FileCreateEPP8DOS_FilePct
$F:__Z8CPU_VERWj
aG:__ZN7isoFile4SeekEPjj
bG:__ZN12_GLOBAL__N_116DefaultAllocator8makeNodeINS_16itanium_demangle13EnclosingExprEJRA12_KcRPNS2_4NodeERA2_S4_EEEPT_DpOT0_
cG:__ZN12_GLOBAL__N_116DefaultAllocator8makeNodeINS_16itanium_demangle13EnclosingExprEJRA11_KcRPNS2_4NodeERA2_S4_EEEPT_DpOT0_
dG:__ZN12_GLOBAL__N_116DefaultAllocator8makeNodeINS_16itanium_demangle13EnclosingExprEJRA10_KcRPNS2_4NodeERA2_S4_EEEPT_DpOT0_
eG:__ZN12_GLOBAL__N_116DefaultAllocator8makeNodeINS_16itanium_demangle13EnclosingExprEJRA9_KcRPNS2_4NodeERA2_S4_EEEPT_DpOT0_
fG:__Z20VESA_GetDisplayStartRtS_
gG:__ZL16PROGRAMS_Handlerv
hG:__ZNSt3__26vectorIP13CHandlerEventNS_9allocatorIS2_EEE26__swap_out_circular_bufferERNS_14__split_bufferIS2_RS4_EE
iG:__ZNSt3__26vectorI10copysourceNS_9allocatorIS1_EEE26__swap_out_circular_bufferERNS_14__split_bufferIS1_RS3_EE
jG:__ZNSt3__26vectorIPFvPP7ProgramENS_9allocatorIS5_EEE26__swap_out_circular_bufferERNS_14__split_bufferIS5_RS7_EE
kG:__ZNK12_GLOBAL__N_116itanium_demangle16FunctionEncoding9printLeftERNS_12OutputStreamE
lG:__ZL15TANDY16_CopyRowhhhhj
mG:__ZNSt3__26vectorIP10CBindGroupNS_9allocatorIS2_EEE26__swap_out_circular_bufferERNS_14__split_bufferIS2_RS4_EE
nG:__ZNSt3__24listINS_12basic_stringIcNS_11char_traitsIcEENS_9allocatorIcEEEENS4_IS6_EEE5eraseENS_21__list_const_iteratorIS6_PvEESB_
oG:__ZN4OPL316operator_releaseEPNS_15operator_structE
pG:__ZN4OPL216operator_releaseEPNS_15operator_structE
qG:_copy_data
rG:__ZNSt3__26vectorIP9DOS_DriveNS_9allocatorIS2_EEE26__swap_out_circular_bufferERNS_14__split_bufferIS2_RS4_EE
sG:__ZN22VGA_ChainedVGA_Handler6writewEjj
tG:__Z16SVGA_S3_WriteSEQjjj
uG:__Z11FPU_ESC1_EAjj
vG:__ZNSt3__26vectorIP7CButtonNS_9allocatorIS2_EEE26__swap_out_circular_bufferERNS_14__split_bufferIS2_RS4_EE
wG:__ZNSt3__212__hash_tableINS_17__hash_value_typeINS_12basic_stringIcNS_11char_traitsIcEENS_9allocatorIcEEEEPFvRKS7_PKcPFvS9_RK10jsonstreamEEEENS_22__unordered_map_hasherIS7_SJ_NS_4hashIS7_EELb1EEENS_21__unordered_map_equalIS7_SJ_NS_8equal_toIS7_EELb1EEENS5_ISJ_EEED2Ev
xG:__ZL10EA_32_44_nv_338
yG:__ZNSt3__26vectorIP6CEventNS_9allocatorIS2_EEE26__swap_out_circular_bufferERNS_14__split_bufferIS2_RS4_EE
zG:__zip_file_get_offset
AG:__ZN12_GLOBAL__N_116DefaultAllocator8makeNodeINS_16itanium_demangle8FoldExprEJRbRNS_10StringViewERPNS2_4NodeES9_EEEPT_DpOT0_
BG:__Z15IO_WriteDefaultjjj
CG:__ZNSt3__213basic_istreamIcNS_11char_traitsIcEEE4readEPcl
DG:__ZNSt3__26vectorI5ValueNS_9allocatorIS1_EEE26__swap_out_circular_bufferERNS_14__split_bufferIS1_RS3_EE
EG:__ZN8Property8Get_helpEv
FG:__ZN15DOS_Drive_Cache11DeleteEntryEPKcb
GG:__Z18INT10_SetCursorPoshhh
HG:__ZNSt3__212basic_stringIcNS_11char_traitsIcEENS_9allocatorIcEEE6resizeEmc
IG:__ZNSt3__212__hash_tableINS_17__hash_value_typeINS_12basic_stringIcNS_11char_traitsIcEENS_9allocatorIcEEEEPFvRKS7_PKcPFvS9_RK10jsonstreamEEEENS_22__unordered_map_hasherIS7_SJ_NS_4hashIS7_EELb1EEENS_21__unordered_map_equalIS7_SJ_NS_8equal_toIS7_EELb1EEENS5_ISJ_EEE21__construct_node_hashIRKNS_4pairIS8_SI_EEJEEENS_10unique_ptrINS_11__hash_nodeISJ_PvEENS_22__hash_node_destructorINS5_IS12_EEEEEEmOT_DpOT0_
JG:__ZL9write_cgajjj
KG:__ZL19EMM_ReallocatePagestRt
LG:__zip_dirent_process_ef_utf_8
MG:__Z20read_directory_firstP10dir_structPcRb
NG:__Z15restart_programRNSt3__26vectorINS_12basic_stringIcNS_11char_traitsIcEENS_9allocatorIcEEEENS4_IS6_EEEE
OG:__ZNSt3__29__num_getIwE19__stage2_float_prepERNS_8ios_baseEPwRwS5_
PG:__ZNSt3__219__double_or_nothingIwEEvRNS_10unique_ptrIT_PFvPvEEERPS2_S9_
QG:__ZNSt3__219__double_or_nothingIjEEvRNS_10unique_ptrIT_PFvPvEEERPS2_S9_
RG:__ZL10EA_32_84_nv_346
SG:__Z24PIC_RemoveSpecificEventsPFvjEj
TG:__Z19read_directory_nextP10dir_structPcRb
UG:__Z19XGA_Write_Multifuncjj
VG:__ZNSt3__29__num_getIcE19__stage2_float_prepERNS_8ios_baseEPcRcS5_
WG:__ZNSt3__213basic_istreamIcNS_11char_traitsIcEEE5tellgEv
XG:__ZN8fatDrive14AllocationInfoEPtPhS0_S0_
YG:__Z14ClipCursorAreaRsS_S_S_RtS0_S0_
ZG:__ZNKSt3__28time_getIwNS_19istreambuf_iteratorIwNS_11char_traitsIwEEEEE15__get_monthnameERiRS4_S4_RjRKNS_5ctypeIwEE
_G:__ZNKSt3__28time_getIcNS_19istreambuf_iteratorIcNS_11char_traitsIcEEEEE15__get_monthnameERiRS4_S4_RjRKNS_5ctypeIcEE
$G:__ZN12_GLOBAL__N_116itanium_demangle22AbstractManglingParserINS0_14ManglingParserINS_16DefaultAllocatorEEES3_E15parsePrefixExprENS_10StringViewE
aH:__ZL13EGA16_FillRowhhhjh
bH:__Z19MEM_GetNextFreePagev
cH:__zip_buffer_put_64
dH:__ZL8DrawTextjjPKch
eH:__ZL11CheckDMAEndv
fH:__ZNK12Section_prop9PrintDataEP8_IO_FILE
gH:__ZL14IO_ReadDefaultjj
hH:__ZL13TandyDACWritejjj
iH:__ZNKSt3__28time_getIwNS_19istreambuf_iteratorIwNS_11char_traitsIwEEEEE17__get_weekdaynameERiRS4_S4_RjRKNS_5ctypeIwEE
jH:__ZNKSt3__28time_getIcNS_19istreambuf_iteratorIcNS_11char_traitsIcEEEEE17__get_weekdaynameERiRS4_S4_RjRKNS_5ctypeIcEE
kH:__ZN5DBOPL8Operator7Write20EPKNS_4ChipEh
lH:__Z20VESA_SetDisplayStarttt
mH:__Z17PCSPEAKER_SetTypej
nH:__Z17DOS_FCBDeleteFilett
oH:__ZN6Config15AddSection_propEPKcPFvP7SectionEb
pH:__Z15FPU_ESC3_Normalj
qH:__ZNSt3__219__double_or_nothingIcEEvRNS_10unique_ptrIT_PFvPvEEERPS2_S9_
rH:_zip_error_to_str
sH:__ZN7CMscdex17GetSubChannelDataEhRhS0_S0_R4SMSFS2_
tH:__ZNSt3__212basic_stringIwNS_11char_traitsIwEENS_9allocatorIwEEE6__initEPKwm
uH:__ZNSt3__212basic_stringIwNS_11char_traitsIwEENS_9allocatorIwEEE6__initEmw
vH:__ZN7CSerial16getBituSubstringEPKcPjP11CommandLine
wH:__ZN11Prop_string8SetValueERKNSt3__212basic_stringIcNS0_11char_traitsIcEENS0_9allocatorIcEEEE
xH:__ZL17MIXER_Mix_NoSoundv
yH:__ZN13CKeyBindGroupC2Ej
zH:__Z12DOS_ChildPSPtt
AH:__ZN7CMscdex17GetChannelControlEhR5SCtrl
BH:__ZN7CMscdex13GetStatusWordEht
CH:__ZNSt3__26vectorINS_12basic_stringIcNS_11char_traitsIcEENS_9allocatorIcEEEENS4_IS6_EEE12__move_rangeEPS6_S9_S9_
DH:__ZL16write_p201_timedjjj
EH:__ZN7DOS_PSP11SetNumFilesEt
FH:__ZN6Config15AddSection_lineEPKcPFvP7SectionE
GH:__ZNSt3__2plIcNS_11char_traitsIcEENS_9allocatorIcEEEENS_12basic_stringIT_T0_T1_EEPKS6_RKS9_
HH:__Z19VGA_CheckScanLengthv
IH:__Z21DOS_GetAllocationInfohPtPhS_
JH:___fflush_unlocked
KH:__ZN21CDROM_Interface_ImageC2Eh
LH:__ZN12_GLOBAL__N_116DefaultAllocator8makeNodeINS_16itanium_demangle10BinaryExprEJRPNS2_4NodeERNS_10StringViewES6_EEEPT_DpOT0_
MH:__ZNKSt3__27codecvtIwc11__mbstate_tE10do_unshiftERS1_PcS4_RS4_
NH:__ZN7DOS_DTA11SetupSearchEhhPc
OH:__Z12DOS_SeekFiletPjjb
PH:__Z11swapInDisksv
QH:__ZL12CGA4_FillRowhhhjh
RH:___overflow
SH:__Z15CAPTURE_AddMidibjPh
TH:__Z14read_p3d5_et4kjj
UH:__ZN15DOS_Drive_Cache9CopyEntryEPNS_9CFileInfoES1_
VH:__ZNK12_GLOBAL__N_116itanium_demangle12NoexceptSpec9printLeftERNS_12OutputStreamE
WH:__ZNSt3__213basic_ostreamIcNS_11char_traitsIcEEE5flushEv
XH:__ZN8isoDrive16ReadCachedSectorEPPhj
YH:__Z7MSG_GetPKc
ZH:__ZL18DSP_PrepareDMA_New9DMA_MODESjbb
_H:__ZNK12_GLOBAL__N_116itanium_demangle12CtorDtorName9printLeftERNS_12OutputStreamE
$H:__ZN15DOS_Drive_Cache13GetExpandNameEPKc
aI:__ZN7Section14ExecuteDestroyEb
bI:__ZN12_GLOBAL__N_116itanium_demangle22AbstractManglingParserINS0_14ManglingParserINS_16DefaultAllocatorEEES3_EC2EPKcS7_
cI:__zip_register_source
dI:__zip_get_dirent
eI:__ZN21CDROM_Interface_Image10CanReadPVDEPNS_9TrackFileEib
fI:__ZL12OPL_CallBackj
gI:__ZL15read_p201_timedjj
hI:__ZN7Program8WriteOutEPKcz
iI:__ZN9localFile22UpdateDateTimeFromHostEv
jI:__ZN22VGA_ChainedVGA_Handler5readdEj
kI:__ZN15DOS_Drive_Cache8FindNextEtRPc
lI:_buffer_grow_fragments
mI:__ZNK12_GLOBAL__N_116itanium_demangle13FunctionParam9printLeftERNS_12OutputStreamE
nI:_fflush
oI:__ZN7fatFileC2EPKcjjP8fatDrive
pI:__ZN12_GLOBAL__N_116DefaultAllocator8makeNodeINS_16itanium_demangle22ElaboratedTypeSpefTypeEJRNS_10StringViewERPNS2_4NodeEEEEPT_DpOT0_
qI:_fclose
rI:__ZL13CheckVoiceIrqv
sI:__Z18DOS_CreateTempFilePcPt
tI:__ZNSt3__26locale5__impD2Ev
uI:__ZNSt3__218__search_substringIcNS_11char_traitsIcEEEEPKT_S5_S5_S5_S5_
vI:__ZNK12_GLOBAL__N_116itanium_demangle10MemberExpr9printLeftERNS_12OutputStreamE
wI:__ZN6CEventC2EPKc
xI:__ZN5Adlib7Capture10InitHeaderEv
yI:_zip_source_buffer_fragment_create
zI:_zip_fread
AI:__zip_dirent_init
BI:__ZN13Virtual_Drive9FindFirstEPcR7DOS_DTAb
CI:__ZL14slave_startIRQv
DI:__ZN9DOS_Shell11RunInternalEv
EI:__ZNKSt3__28time_getIwNS_19istreambuf_iteratorIwNS_11char_traitsIwEEEEE16do_get_monthnameES4_S4_RNS_8ios_baseERjP2tm
FI:__ZNKSt3__28time_getIwNS_19istreambuf_iteratorIwNS_11char_traitsIwEEEEE14do_get_weekdayES4_S4_RNS_8ios_baseERjP2tm
GI:__ZNKSt3__28time_getIcNS_19istreambuf_iteratorIcNS_11char_traitsIcEEEEE16do_get_monthnameES4_S4_RNS_8ios_baseERjP2tm
HI:__ZNKSt3__28time_getIcNS_19istreambuf_iteratorIcNS_11char_traitsIcEEEEE14do_get_weekdayES4_S4_RNS_8ios_baseERjP2tm
II:__ZN12_GLOBAL__N_116DefaultAllocator8makeNodeINS_16itanium_demangle17VendorExtQualTypeEJRPNS2_4NodeERNS_10StringViewEEEEPT_DpOT0_
JI:__ZN9Prop_pathC2ERKNSt3__212basic_stringIcNS0_11char_traitsIcEENS0_9allocatorIcEEEEN8Property10Changeable5ValueEPKc
KI:__ZL9QueueByteh
LI:__ZL12CGA2_FillRowhhhjh
MI:__ZNSt3__215__num_get_floatIeEET_PKcS3_Rj
NI:__ZN5DBOPL8Operator14TemplateVolumeILNS0_5StateE3EEEiv
OI:__ZN12_GLOBAL__N_120BumpPointerAllocator8allocateEm
PI:__ZNSt3__215__num_get_floatIfEET_PKcS3_Rj
QI:__ZNSt3__215__num_get_floatIdEET_PKcS3_Rj
RI:__ZN12_GLOBAL__N_116DefaultAllocator8makeNodeINS_16itanium_demangle15IntegerCastExprEJRPNS2_4NodeERNS_10StringViewEEEEPT_DpOT0_
SI:__Z16CPU_IO_Exceptionjj
TI:_strstr
UI:__ZL9read_p3c9jj
VI:__ZNKSt3__28time_getIwNS_19istreambuf_iteratorIwNS_11char_traitsIwEEEEE11do_get_timeES4_S4_RNS_8ios_baseERjP2tm
WI:__ZNKSt3__28time_getIcNS_19istreambuf_iteratorIcNS_11char_traitsIcEEEEE11do_get_timeES4_S4_RNS_8ios_baseERjP2tm
XI:__ZN9localFile5WriteEPhPt
YI:__ZN12_GLOBAL__N_116DefaultAllocator8makeNodeINS_16itanium_demangle14ConversionExprEJRPNS2_4NodeERNS2_9NodeArrayEEEEPT_DpOT0_
ZI:__ZN12_GLOBAL__N_116DefaultAllocator8makeNodeINS_16itanium_demangle13ObjCProtoNameEJRPNS2_4NodeERNS_10StringViewEEEEPT_DpOT0_
_I:__Z35INT10_SetupBasicVideoParameterTablev
$I:__ZN12_GLOBAL__N_116DefaultAllocator8makeNodeINS_16itanium_demangle14ConversionExprEJRPNS2_4NodeENS2_9NodeArrayEEEEPT_DpOT0_
aJ:__ZL15cmos_checktimerv
bJ:_strcasecmp
cJ:__ZNKSt3__28time_getIwNS_19istreambuf_iteratorIwNS_11char_traitsIwEEEEE11do_get_yearES4_S4_RNS_8ios_baseERjP2tm
dJ:__ZNKSt3__28time_getIcNS_19istreambuf_iteratorIcNS_11char_traitsIcEEEEE11do_get_yearES4_S4_RNS_8ios_baseERjP2tm
eJ:_zip_source_pkware
fJ:__ZNSt3__213basic_filebufIcNS_11char_traitsIcEEE12__write_modeEv
gJ:__ZN12_GLOBAL__N_116DefaultAllocator8makeNodeINS_16itanium_demangle9ArrayTypeEJRPNS2_4NodeERNS2_12NodeOrStringEEEEPT_DpOT0_
hJ:__Z16INT10_ReloadFontv
iJ:__ZN12_GLOBAL__N_116DefaultAllocator8makeNodeINS_16itanium_demangle12InitListExprEJRPNS2_4NodeENS2_9NodeArrayEEEEPT_DpOT0_
jJ:__ZL12GUS_CallBackj
kJ:__Z10mem_memcpyjjj
lJ:__ZNKSt3__27num_getIwNS_19istreambuf_iteratorIwNS_11char_traitsIwEEEEE6do_getES4_S4_RNS_8ios_baseERjRf
mJ:__ZNKSt3__27num_getIwNS_19istreambuf_iteratorIwNS_11char_traitsIwEEEEE6do_getES4_S4_RNS_8ios_baseERjRe
nJ:__ZNKSt3__27num_getIwNS_19istreambuf_iteratorIwNS_11char_traitsIwEEEEE6do_getES4_S4_RNS_8ios_baseERjRd
oJ:__ZNKSt3__27num_getIcNS_19istreambuf_iteratorIcNS_11char_traitsIcEEEEE6do_getES4_S4_RNS_8ios_baseERjRf
pJ:__ZNKSt3__27num_getIcNS_19istreambuf_iteratorIcNS_11char_traitsIcEEEEE6do_getES4_S4_RNS_8ios_baseERjRe
qJ:__ZNKSt3__27num_getIcNS_19istreambuf_iteratorIcNS_11char_traitsIcEEEEE6do_getES4_S4_RNS_8ios_baseERjRd
rJ:__ZN10CBindGroup16ActivateBindListEPNSt3__24listIP5CBindNS0_9allocatorIS3_EEEEib
sJ:__ZNSt3__213basic_ostreamIcNS_11char_traitsIcEEE6sentryD2Ev
tJ:__ZN7CMscdex20GetDocumentationNameEtj
uJ:__ZN12_GLOBAL__N_116DefaultAllocator8makeNodeINS_16itanium_demangle10PrefixExprEJRNS_10StringViewERPNS2_4NodeEEEEPT_DpOT0_
vJ:__ZN12_GLOBAL__N_116DefaultAllocator8makeNodeINS_16itanium_demangle10AbiTagAttrEJRPNS2_4NodeERNS_10StringViewEEEEPT_DpOT0_
wJ:__ZNKSt3__212basic_stringIcNS_11char_traitsIcEENS_9allocatorIcEEE7compareEmmPKcm
xJ:__zip_dirent_set_version_needed
yJ:_scalbn
zJ:__Z17INT10_WriteStringhhhhjth
AJ:__ZNKSt3__27num_getIwNS_19istreambuf_iteratorIwNS_11char_traitsIwEEEEE6do_getES4_S4_RNS_8ios_baseERjS8_
BJ:__ZNKSt3__27num_getIcNS_19istreambuf_iteratorIcNS_11char_traitsIcEEEEE6do_getES4_S4_RNS_8ios_baseERjS8_
CJ:__ZN7CMscdex16GetCopyrightNameEtj
DJ:__ZN12_GLOBAL__N_116DefaultAllocator8makeNodeINS_16itanium_demangle9DotSuffixEJRPNS2_4NodeENS_10StringViewEEEEPT_DpOT0_
EJ:__ZNKSt3__27num_getIwNS_19istreambuf_iteratorIwNS_11char_traitsIwEEEEE6do_getES4_S4_RNS_8ios_baseERjRy
FJ:__ZNKSt3__27num_getIwNS_19istreambuf_iteratorIwNS_11char_traitsIwEEEEE6do_getES4_S4_RNS_8ios_baseERjRt
GJ:__ZNKSt3__27num_getIwNS_19istreambuf_iteratorIwNS_11char_traitsIwEEEEE6do_getES4_S4_RNS_8ios_baseERjRm
HJ:__ZNKSt3__27num_getIcNS_19istreambuf_iteratorIcNS_11char_traitsIcEEEEE6do_getES4_S4_RNS_8ios_baseERjRy
IJ:__ZNKSt3__27num_getIcNS_19istreambuf_iteratorIcNS_11char_traitsIcEEEEE6do_getES4_S4_RNS_8ios_baseERjRt
JJ:__ZNKSt3__27num_getIcNS_19istreambuf_iteratorIcNS_11char_traitsIcEEEEE6do_getES4_S4_RNS_8ios_baseERjRm
KJ:__ZN7CMscdex15GetAbstractNameEtj
LJ:__ZL8FPU_ST80jj
MJ:_strtox_776
NJ:__ZL11VGA_CopyRowhhhhj
OJ:__ZNKSt3__28time_getIwNS_19istreambuf_iteratorIwNS_11char_traitsIwEEEEE10__get_yearERiRS4_S4_RjRKNS_5ctypeIwEE
PJ:__ZNKSt3__28time_getIcNS_19istreambuf_iteratorIcNS_11char_traitsIcEEEEE10__get_yearERiRS4_S4_RjRKNS_5ctypeIcEE
QJ:__ZNKSt3__27num_getIwNS_19istreambuf_iteratorIwNS_11char_traitsIwEEEEE6do_getES4_S4_RNS_8ios_baseERjRx
RJ:__ZNKSt3__27num_getIwNS_19istreambuf_iteratorIwNS_11char_traitsIwEEEEE6do_getES4_S4_RNS_8ios_baseERjRl
SJ:__ZNKSt3__27num_getIcNS_19istreambuf_iteratorIcNS_11char_traitsIcEEEEE6do_getES4_S4_RNS_8ios_baseERjRx
TJ:__ZNKSt3__27num_getIcNS_19istreambuf_iteratorIcNS_11char_traitsIcEEEEE6do_getES4_S4_RNS_8ios_baseERjRl
UJ:__ZNSt3__26locale5__imp7installEPNS0_5facetEl
VJ:__ZNSt3__214__num_put_base18__identify_paddingEPcS1_RKNS_8ios_baseE
WJ:__ZN13CHandlerEventC2EPKcPFvbE7MapKeysjS1_
XJ:__ZN12_GLOBAL__N_116DefaultAllocator8makeNodeINS_16itanium_demangle8CallExprEJRPNS2_4NodeENS2_9NodeArrayEEEEPT_DpOT0_
YJ:__ZNSt3__210__list_impINS_12basic_stringIcNS_11char_traitsIcEENS_9allocatorIcEEEENS4_IS6_EEE5clearEv
ZJ:__ZNSt3__212basic_stringIcNS_11char_traitsIcEENS_9allocatorIcEEE6__initEPKcmm
_J:__ZN14AutoexecObject13InstallBeforeERKNSt3__212basic_stringIcNS0_11char_traitsIcEENS0_9allocatorIcEEEE
$J:__ZN12_GLOBAL__N_116itanium_demangle22AbstractManglingParserINS0_14ManglingParserINS_16DefaultAllocatorEEES3_E20popTrailingNodeArrayEm
aK:__ZN16CContinuousEvent15DeActivateEventEb
bK:__ZL19TandyDACModeChangedv
cK:__ZL16DSP_ADC_CallBackP10DmaChannel8DMAEvent
dK:__Z13CPU_WRITE_DRXjj
eK:___ftello_unlocked
fK:__ZN8fatDrive15allocateClusterEjj
gK:__ZL17EMM_ReleaseMemoryt
hK:__zip_ef_get_by_id
iK:__ZN9DOS_Shell8CMD_CALLEPc
jK:__ZN7Program18WriteOut_NoParsingEPKc
kK:__Z8CPU_POPFj
lK:__ZNK12_GLOBAL__N_116itanium_demangle22ElaboratedTypeSpefType9printLeftERNS_12OutputStreamE
mK:_frexp
nK:__ZNSt3__212basic_stringIcNS_11char_traitsIcEENS_9allocatorIcEEE6__initEPKcm
oK:__ZN7Program9GetEnvNumEjRNSt3__212basic_stringIcNS0_11char_traitsIcEENS0_9allocatorIcEEEE
pK:__ZNSt3__26vectorI9SDL_EventNS_9allocatorIS1_EEE12__move_rangeEPS1_S5_S5_
qK:__ZNSt3__212basic_stringIcNS_11char_traitsIcEENS_9allocatorIcEEE6__initEmc
rK:__ZNKSt3__28time_getIwNS_19istreambuf_iteratorIwNS_11char_traitsIwEEEEE13__get_12_hourERiRS4_S4_RjRKNS_5ctypeIwEE
sK:__ZNKSt3__28time_getIcNS_19istreambuf_iteratorIcNS_11char_traitsIcEEEEE13__get_12_hourERiRS4_S4_RjRKNS_5ctypeIcEE
tK:__ZL12CGA4_CopyRowhhhhj
uK:__ZL24Tandy_TransferInProgressv
vK:__ZL17SBLASTER_CallBackj
wK:__ZNSt3__215basic_stringbufIcNS_11char_traitsIcEENS_9allocatorIcEEE9underflowEv
xK:__ZN11CommandLine9FindEntryEPKcRNSt3__215__list_iteratorINS2_12basic_stringIcNS2_11char_traitsIcEENS2_9allocatorIcEEEEPvEEb
yK:__ZNKSt3__28time_getIwNS_19istreambuf_iteratorIwNS_11char_traitsIwEEEEE9__get_dayERiRS4_S4_RjRKNS_5ctypeIwEE
zK:__ZNKSt3__28time_getIwNS_19istreambuf_iteratorIwNS_11char_traitsIwEEEEE18__get_day_year_numERiRS4_S4_RjRKNS_5ctypeIwEE
AK:__ZNKSt3__28time_getIcNS_19istreambuf_iteratorIcNS_11char_traitsIcEEEEE9__get_dayERiRS4_S4_RjRKNS_5ctypeIcEE
BK:__ZNKSt3__28time_getIcNS_19istreambuf_iteratorIcNS_11char_traitsIcEEEEE18__get_day_year_numERiRS4_S4_RjRKNS_5ctypeIcEE
CK:__ZL11IOFaultCorev
DK:__ZN10localDrive7TestDirEPc
EK:__ZNKSt3__28time_getIwNS_19istreambuf_iteratorIwNS_11char_traitsIwEEEEE11__get_monthERiRS4_S4_RjRKNS_5ctypeIwEE
FK:__ZNKSt3__28time_getIcNS_19istreambuf_iteratorIcNS_11char_traitsIcEEEEE11__get_monthERiRS4_S4_RjRKNS_5ctypeIcEE
GK:__Z15DOS_SetFileAttrPKct
HK:__ZNK12_GLOBAL__N_116itanium_demangle13ReferenceType8collapseERNS_12OutputStreamE
IK:__ZL21MPU401_IntelligentOuth
JK:__ZNSt3__2plIcNS_11char_traitsIcEENS_9allocatorIcEEEENS_12basic_stringIT_T0_T1_EERKS9_S6_
KK:__ZN12Section_prop7Add_hexERKNSt3__212basic_stringIcNS0_11char_traitsIcEENS0_9allocatorIcEEEEN8Property10Changeable5ValueE3Hex
LK:__zip_buffer_peek
MK:__ZNSt3__214__split_bufferI9SDL_EventRNS_9allocatorIS1_EEE18__construct_at_endINS_13move_iteratorIPS1_EEEENS_9enable_ifIXsr21__is_forward_iteratorIT_EE5valueEvE4typeESB_SB_
NK:__ZNKSt3__28time_getIwNS_19istreambuf_iteratorIwNS_11char_traitsIwEEEEE13__get_weekdayERiRS4_S4_RjRKNS_5ctypeIwEE
OK:__ZNKSt3__28time_getIwNS_19istreambuf_iteratorIwNS_11char_traitsIwEEEEE12__get_secondERiRS4_S4_RjRKNS_5ctypeIwEE
PK:__ZNKSt3__28time_getIwNS_19istreambuf_iteratorIwNS_11char_traitsIwEEEEE12__get_minuteERiRS4_S4_RjRKNS_5ctypeIwEE
QK:__ZNKSt3__28time_getIcNS_19istreambuf_iteratorIcNS_11char_traitsIcEEEEE13__get_weekdayERiRS4_S4_RjRKNS_5ctypeIcEE
RK:__ZNKSt3__28time_getIcNS_19istreambuf_iteratorIcNS_11char_traitsIcEEEEE12__get_secondERiRS4_S4_RjRKNS_5ctypeIcEE
SK:__ZNKSt3__28time_getIcNS_19istreambuf_iteratorIcNS_11char_traitsIcEEEEE12__get_minuteERiRS4_S4_RjRKNS_5ctypeIcEE
TK:__ZN12_GLOBAL__N_116DefaultAllocator8makeNodeINS_16itanium_demangle10MemberExprEJRPNS2_4NodeERA3_KcS6_EEEPT_DpOT0_
UK:__ZN12_GLOBAL__N_116DefaultAllocator8makeNodeINS_16itanium_demangle10MemberExprEJRPNS2_4NodeERA2_KcS6_EEEPT_DpOT0_
VK:__ZL14TANDY_FindModev
WK:__Z14DOS_FreeMemoryt
XK:__Z11PIC_runIRQsv
YK:__ZNKSt3__28time_getIwNS_19istreambuf_iteratorIwNS_11char_traitsIwEEEEE10__get_hourERiRS4_S4_RjRKNS_5ctypeIwEE
ZK:__ZNKSt3__28time_getIcNS_19istreambuf_iteratorIcNS_11char_traitsIcEEEEE10__get_hourERiRS4_S4_RjRKNS_5ctypeIcEE
_K:__ZL18EMM_RestorePageMapt
$K:__Z16PIC_RemoveEventsPFvjE
aL:__Z16BIOS_SetComPortsPt
bL:__ZN9PCSPEAKERD2Ev
cL:__ZN12_GLOBAL__N_116DefaultAllocator8makeNodeINS_16itanium_demangle8CastExprEJRA17_KcRPNS2_4NodeES9_EEEPT_DpOT0_
dL:__ZN12_GLOBAL__N_116DefaultAllocator8makeNodeINS_16itanium_demangle8CastExprEJRA13_KcRPNS2_4NodeES9_EEEPT_DpOT0_
eL:__ZN12_GLOBAL__N_116DefaultAllocator8makeNodeINS_16itanium_demangle8CastExprEJRA12_KcRPNS2_4NodeES9_EEEPT_DpOT0_
fL:__ZN12_GLOBAL__N_116DefaultAllocator8makeNodeINS_16itanium_demangle8CastExprEJRA11_KcRPNS2_4NodeES9_EEEPT_DpOT0_
gL:__ZN7CButtonC2Ejjjj
hL:__ZN12_GLOBAL__N_116itanium_demangle7NewExprC2ENS0_9NodeArrayEPNS0_4NodeES2_bb
iL:__ZN12_GLOBAL__N_116DefaultAllocator8makeNodeINS_16itanium_demangle12InitListExprEJDnNS2_9NodeArrayEEEEPT_DpOT0_
jL:_zip_source_free
kL:__ZL13INT70_Handlerv
lL:__Z9StripWordRPc
mL:_atoi
nL:__ZL9FPU_FPREMv
oL:__zip_unicode_to_utf8
pL:__ZN9DOS_Shell9CMD_SHIFTEPc
qL:__ZN7DOS_PSP13CopyFileTableEPS_b
rL:__ZL17MPU401_EOIHandlerj
sL:__ZN12_GLOBAL__N_116DefaultAllocator8makeNodeINS_16itanium_demangle10VectorTypeEJRPNS2_4NodeES6_EEEPT_DpOT0_
tL:__ZN11CommandLine9FindExistEPKcb
uL:__ZL6EATREEj
vL:__ZN21CDROM_Interface_Image13GetCueKeywordERNSt3__212basic_stringIcNS0_11char_traitsIcEENS0_9allocatorIcEEEERNS0_13basic_istreamIcS3_EE
wL:__ZL12CGA2_CopyRowhhhhj
xL:__zip_buffer_new
yL:__ZN8fatDrive13appendClusterEj
zL:_fmt_u
AL:__ZNK12_GLOBAL__N_116itanium_demangle27ExpandedSpecialSubstitution11getBaseNameEv
BL:__ZN12_GLOBAL__N_116DefaultAllocator8makeNodeINS_16itanium_demangle21StructuredBindingNameEJNS2_9NodeArrayEEEEPT_DpOT0_
CL:__ZN12_GLOBAL__N_116DefaultAllocator8makeNodeINS_16itanium_demangle20TemplateArgumentPackEJRNS2_9NodeArrayEEEEPT_DpOT0_
DL:__ZN12_GLOBAL__N_116DefaultAllocator8makeNodeINS_16itanium_demangle16FloatLiteralImplIfEEJRNS_10StringViewEEEEPT_DpOT0_
EL:__ZN12_GLOBAL__N_116DefaultAllocator8makeNodeINS_16itanium_demangle16FloatLiteralImplIeEEJRNS_10StringViewEEEEPT_DpOT0_
FL:__ZN12_GLOBAL__N_116DefaultAllocator8makeNodeINS_16itanium_demangle16FloatLiteralImplIdEEJRNS_10StringViewEEEEPT_DpOT0_
GL:__Z16SaveVgaRegistersv
HL:__Z15VGA_SetBlinkingj
IL:_fourbyte_strstr
JL:___divdi3
KL:__ZNSt3__214__split_bufferINS_12basic_stringIcNS_11char_traitsIcEENS_9allocatorIcEEEERNS4_IS6_EEEC2EmmS8_
LL:__ZN12_GLOBAL__N_116DefaultAllocator8makeNodeINS_16itanium_demangle20DynamicExceptionSpecEJNS2_9NodeArrayEEEEPT_DpOT0_
ML:__ZL10FPU_FLDENVj
NL:__Z13DOS_FlushFilet
OL:__ZN8isoDrive14GetDirIteratorEPK11isoDirEntry
PL:__ZN14DOS_ParamBlock8SaveDataEv
QL:__Z12PIC_AddEventPFvjEfj
RL:_dirname
SL:__ZNK12_GLOBAL__N_110StringView10startsWithES0_
TL:__ZN8DOS_FileC2ERKS_
UL:__ZN15DOS_Drive_Cache9CFileInfoD2Ev
VL:__ZNSt3__212basic_stringIcNS_11char_traitsIcEENS_9allocatorIcEEEC2ERKS5_mmRKS4_
WL:__ZNSt3__212__hash_tableINS_17__hash_value_typeINS_12basic_stringIcNS_11char_traitsIcEENS_9allocatorIcEEEEPFvRKS7_PKcPFvS9_RK10jsonstreamEEEENS_22__unordered_map_hasherIS7_SJ_NS_4hashIS7_EELb1EEENS_21__unordered_map_equalIS7_SJ_NS_8equal_toIS7_EELb1EEENS5_ISJ_EEE17__deallocate_nodeEPNS_16__hash_node_baseIPNS_11__hash_nodeISJ_PvEEEE
XL:__ZNKSt3__210__time_put8__do_putEPcRS1_PK2tmcc
YL:__ZN5DBOPL8OperatorC2Ev
ZL:__ZNK12_GLOBAL__N_116itanium_demangle19SpecialSubstitution11getBaseNameEv
_L:__ZN12_GLOBAL__N_116DefaultAllocator8makeNodeINS_16itanium_demangle15UnnamedTypeNameEJRNS_10StringViewEEEEPT_DpOT0_
$L:__ZL11DOS_AddDaysj
aM:__ZL8FPU_FCOMjj
bM:__ZN6Events12pollSDLEventEP9SDL_Event
cM:__ZN10localDriveC2EPKcthtth
dM:__ZN12_GLOBAL__N_116DefaultAllocator8makeNodeINS_16itanium_demangle13FunctionParamEJRNS_10StringViewEEEEPT_DpOT0_
eM:__ZN9DOS_Shell7CMD_CLSEPc
fM:__ZN6ConfigD2Ev
gM:__ZN5Adlib6ModuleD2Ev
hM:__ZL17AddKeyButtonEventjjjjPKcS0_8KBD_KEYS
iM:__ZL14write_lightpenjjj
jM:_strtox
kM:__ZN12_GLOBAL__N_1eqERKNS_10StringViewES2_
lM:__Z13GFX_EndUpdatePKt
mM:__ZN12_GLOBAL__N_116DefaultAllocator8makeNodeINS_16itanium_demangle13ParameterPackEJNS2_9NodeArrayEEEEPT_DpOT0_
nM:__ZN12_GLOBAL__N_116DefaultAllocator8makeNodeINS_16itanium_demangle13NodeArrayNodeEJNS2_9NodeArrayEEEEPT_DpOT0_
oM:__ZN12_GLOBAL__N_116itanium_demangle16FunctionEncodingC2EPKNS0_4NodeES4_NS0_9NodeArrayES4_NS0_10QualifiersENS0_15FunctionRefQualE
pM:__ZNK12_GLOBAL__N_116itanium_demangle20PostfixQualifiedType9printLeftERNS_12OutputStreamE
qM:__ZN9CJHatBindC2EPNSt3__24listIP5CBindNS0_9allocatorIS3_EEEEP10CBindGroupjh
rM:__ZN12_GLOBAL__N_116DefaultAllocator8makeNodeINS_16itanium_demangle12TemplateArgsEJNS2_9NodeArrayEEEEPT_DpOT0_
sM:__ZN12_GLOBAL__N_116DefaultAllocator8makeNodeINS_16itanium_demangle12EnableIfAttrEJNS2_9NodeArrayEEEEPT_DpOT0_
tM:__ZNK12_GLOBAL__N_116itanium_demangle13QualifiedName9printLeftERNS_12OutputStreamE
uM:__ZL10INT14_WaitthhPh
vM:__ZNSt3__214__split_bufferI9SDL_EventRNS_9allocatorIS1_EEEC2EmmS4_
wM:__ZN12_GLOBAL__N_116DefaultAllocator8makeNodeINS_16itanium_demangle20PostfixQualifiedTypeEJRPNS2_4NodeERA11_KcEEEPT_DpOT0_
xM:__ZL15EMM_SavePageMapt
yM:__ZN9imageDisk20Write_AbsoluteSectorEjPv
zM:__ZN12_GLOBAL__N_116DefaultAllocator8makeNodeINS_16itanium_demangle20PostfixQualifiedTypeEJRPNS2_4NodeERA9_KcEEEPT_DpOT0_
AM:__ZL13modify_cyclesi
BM:__Z9MSG_WritePKc
CM:__Z18mem_unalignedreadwj
DM:__ZNKSt3__27codecvtIwc11__mbstate_tE9do_lengthERS1_PKcS5_m
EM:__ZNK12_GLOBAL__N_116itanium_demangle10NestedName9printLeftERNS_12OutputStreamE
FM:__Z21SDL_SetVideoMode_Wrapiiij
GM:__Z18XGA_Read_Multifuncv
HM:__ZNSt3__2L11init_wam_pmEv
IM:__ZNSt3__2L10init_am_pmEv
JM:__ZNK12_GLOBAL__N_116itanium_demangle9LocalName9printLeftERNS_12OutputStreamE
KM:__ZN9CJHatBind8BindNameEPc
LM:__ZN12_GLOBAL__N_116DefaultAllocator8makeNodeINS_16itanium_demangle8NameTypeEJRNS_10StringViewEEEEPT_DpOT0_
MM:__Z12VGA_SetupDACv
NM:__ZNK12_GLOBAL__N_116itanium_demangle11SpecialName9printLeftERNS_12OutputStreamE
OM:__ZN13DmaControllerC2Eh
PM:_zip_source_crc
QM:__ZNSt3__214__split_bufferIPNS_6locale5facetERNS_15__sso_allocatorIS3_Lm28EEEED2Ev
RM:__Z15VGA_SetupMemoryP7Section
SM:_context_new
TM:__zip_d2u_time
UM:__ZL11disney_readjj
VM:__ZN8fatDrive10FileUnlinkEPc
WM:__Z18BIOS_SetupKeyboardv
XM:__Z12DOS_FindNextv
YM:__ZNSt3__214__split_bufferIPN15DOS_Drive_Cache9CFileInfoERNS_9allocatorIS3_EEEC2EmmS6_
ZM:__ZNSt3__214__split_bufferIN21CDROM_Interface_Image5TrackERNS_9allocatorIS2_EEEC2EmmS5_
_M:__Z19mem_unalignedwritewjt
$M:__ZN7CSerial9Write_IEREh
aN:__ZN20VGA_TEXT_PageHandler5readbEj
bN:__ZN15DOS_Drive_Cache9GetFreeIDEPNS_9CFileInfoE
cN:__ZN10device_COM5WriteEPhPt
dN:_buffer_seek
eN:__ZL23VGA_Draw_2BPPHiRes_Linejj
fN:__ZN21CDROM_Interface_Image17GetAudioTrackInfoEiR4SMSFRh
gN:__ZN14PIC_Controller13check_for_irqEv
hN:___toread
iN:__ZN20VGA_TEXT_PageHandler6writebEjj
jN:__ZN12_GLOBAL__N_116DefaultAllocator8makeNodeINS_16itanium_demangle11SpecialNameEJRA41_KcRPNS2_4NodeEEEEPT_DpOT0_
kN:__ZN12_GLOBAL__N_116DefaultAllocator8makeNodeINS_16itanium_demangle11SpecialNameEJRA34_KcRPNS2_4NodeEEEEPT_DpOT0_
lN:__ZN12_GLOBAL__N_116DefaultAllocator8makeNodeINS_16itanium_demangle11SpecialNameEJRA27_KcRPNS2_4NodeEEEEPT_DpOT0_
mN:__ZN12_GLOBAL__N_116DefaultAllocator8makeNodeINS_16itanium_demangle11SpecialNameEJRA25_KcRPNS2_4NodeEEEEPT_DpOT0_
nN:__ZN12_GLOBAL__N_116DefaultAllocator8makeNodeINS_16itanium_demangle11SpecialNameEJRA22_KcRPNS2_4NodeEEEEPT_DpOT0_
oN:__ZN12_GLOBAL__N_116DefaultAllocator8makeNodeINS_16itanium_demangle11SpecialNameEJRA20_KcRPNS2_4NodeEEEEPT_DpOT0_
pN:__ZN12_GLOBAL__N_116DefaultAllocator8makeNodeINS_16itanium_demangle11SpecialNameEJRA19_KcRPNS2_4NodeEEEEPT_DpOT0_
qN:__ZN12_GLOBAL__N_116DefaultAllocator8makeNodeINS_16itanium_demangle11SpecialNameEJRA18_KcRPNS2_4NodeEEEEPT_DpOT0_
rN:__ZN12_GLOBAL__N_116DefaultAllocator8makeNodeINS_16itanium_demangle11SpecialNameEJRA14_KcRPNS2_4NodeEEEEPT_DpOT0_
sN:__ZN12_GLOBAL__N_116DefaultAllocator8makeNodeINS_16itanium_demangle11SpecialNameEJRA12_KcRPNS2_4NodeEEEEPT_DpOT0_
tN:__ZNSt3__214__split_bufferINS_12basic_stringIcNS_11char_traitsIcEENS_9allocatorIcEEEERNS4_IS6_EEE18__construct_at_endINS_13move_iteratorIPS6_EEEENS_9enable_ifIXsr21__is_forward_iteratorIT_EE5valueEvE4typeESF_SF_
uN:__ZN12_GLOBAL__N_116DefaultAllocator8makeNodeINS_16itanium_demangle11SpecialNameEJRA9_KcRPNS2_4NodeEEEEPT_DpOT0_
vN:__ZN12_GLOBAL__N_116DefaultAllocator8makeNodeINS_16itanium_demangle11PostfixExprEJRPNS2_4NodeERA3_KcEEEPT_DpOT0_
wN:__Z15GFX_GetBestModej
xN:__ZN5CBind8SetFlagsEPc
yN:_zip_source_seek
zN:__Z12XGA_GetPointjj
AN:___procfdname
BN:__Z15FPU_ESC2_Normalj
CN:__ZN10localDrive6RenameEPcS0_
DN:__zip_dirent_needs_zip64
EN:__ZL16OPL_SaveRawEventb
FN:__ZL10Pause_Loopv
GN:__ZNSt3__214__split_bufferIP13CHandlerEventRNS_9allocatorIS2_EEEC2EmmS5_
HN:__ZN7CMscdex12GetTrackInfoEhhRhR4SMSF
IN:__ZL8SetupPSPttt
JN:__ZL16DSP_ChangeStereob
KN:__ZL11VGA_FillRowhhhjh
LN:__ZNSt3__26locale2id5__getEv
MN:__ZNKSt3__28time_getIwNS_19istreambuf_iteratorIwNS_11char_traitsIwEEEEE11__get_year4ERiRS4_S4_RjRKNS_5ctypeIwEE
NN:__ZNKSt3__28time_getIcNS_19istreambuf_iteratorIcNS_11char_traitsIcEEEEE11__get_year4ERiRS4_S4_RjRKNS_5ctypeIcEE
ON:__ZN7CMscdex13GetVolumeNameEhPc
PN:__Z19CALLBACK_RunRealFartt
QN:__Z13KEYBOARD_InitP7Section
RN:__ZNSt3__214__split_bufferIPFvPP7ProgramERNS_9allocatorIS5_EEEC2EmmS8_
SN:__ZL13IsEnhancedKeyRt
TN:__ZNSt3__214__split_bufferIP10CBindGroupRNS_9allocatorIS2_EEEC2EmmS5_
UN:__ZN8Prop_hexC2ERKNSt3__212basic_stringIcNS0_11char_traitsIcEENS0_9allocatorIcEEEEN8Property10Changeable5ValueE3Hex
VN:__ZN5DBOPL8Operator14TemplateVolumeILNS0_5StateE4EEEiv
WN:__ZN9DOS_Shell8CMD_EXITEPc
XN:__Z14XGA_SetDualRegRjj
YN:__ZNSt3__214__split_bufferIP9DOS_DriveRNS_9allocatorIS2_EEEC2EmmS5_
ZN:__ZNSt3__214__split_bufferI10copysourceRNS_9allocatorIS1_EEEC2EmmS4_
_N:__ZL13DOS_25Handlerv
$N:__ZL17BIOS_HostTimeSyncv
aO:_threebyte_strstr
bO:__ZNSt3__214__split_bufferIP7CButtonRNS_9allocatorIS2_EEEC2EmmS5_
cO:__ZNSt3__214__split_bufferIP6CEventRNS_9allocatorIS2_EEEC2EmmS5_
dO:__Z24XMS_GetHandleInformationjRhS_Rt
eO:__ZNK6Config10GetSectionERKNSt3__212basic_stringIcNS0_11char_traitsIcEENS0_9allocatorIcEEEE
fO:__ZL14OpenDosboxFilePKc
gO:__ZNSt3__214__split_bufferI5ValueRNS_9allocatorIS1_EEEC2EmmS4_
hO:__ZNKSt3__212basic_stringIcNS_11char_traitsIcEENS_9allocatorIcEEE4findEcm
iO:__ZN9imageDisk19Read_AbsoluteSectorEjPv
jO:__ZN7isoFileC2EP8isoDrivePKcP14FileStat_Blockj
kO:__ZN12_GLOBAL__N_116itanium_demangle12FunctionTypeC2EPKNS0_4NodeENS0_9NodeArrayENS0_10QualifiersENS0_15FunctionRefQualES4_
lO:__ZL25VGA_Draw_4BPP_Line_Doublejj
mO:__ZN21InitPageUserROHandler14writed_checkedEjj
nO:__ZN21CDROM_Interface_Image15PlayAudioSectorEmm
oO:__Z13DOS_FCBCreatett
pO:__Z12CPU_READ_DRXjRj
qO:__ZN15MidiHandler_oss7PlayMsgEPh
rO:__ZNSt3__210__list_impIN7Section16Function_wrapperENS_9allocatorIS2_EEE5clearEv
sO:__ZNK10__cxxabiv117__class_type_info24process_found_base_classEPNS_19__dynamic_cast_infoEPvi
tO:__ZN12Section_prop15Add_multiremainERKNSt3__212basic_stringIcNS0_11char_traitsIcEENS0_9allocatorIcEEEEN8Property10Changeable5ValueES8_
uO:__Z29INT10_PerformGrayScaleSummingtt
vO:__ZNSt3__214__split_bufferIPNS_6locale5facetERNS_15__sso_allocatorIS3_Lm28EEEEC2EmmS6_
wO:__ZNKSt3__27collateIcE10do_compareEPKcS3_S3_S3_
xO:__ZNK12_GLOBAL__N_116itanium_demangle20DynamicExceptionSpec9printLeftERNS_12OutputStreamE
yO:__ZN5Adlib6Module9DualWriteEhhh
zO:_zip_source_commit_write
AO:__ZL10PathExistsPKc
BO:__ZN7Program15ChangeToLongCmdEv
CO:__ZN24VGA_UnchainedEGA_Handler6writedEjj
DO:__ZN12_GLOBAL__N_116itanium_demangle14PODSmallVectorIPNS0_24ForwardTemplateReferenceELm4EE9push_backERKS3_
EO:__ZN11GUSChannelsC2Eh
FO:__ZL14AddJAxisButtonjjjjPKcjjbP11CJAxisEvent
GO:__Z23DOS_DelMultiplexHandlerPFbvE
HO:__Z19BIOS_AddKeyToBuffert
IO:__ZN7CMscdex13GetCurrentPosEhR4SMSF
JO:__ZN7CMscdex11ReadSectorsEhbjtj
KO:__ZNKSt3__212basic_stringIcNS_11char_traitsIcEENS_9allocatorIcEEE5rfindEcm
LO:_fopen
MO:__ZNSt3__24listINS_12basic_stringIcNS_11char_traitsIcEENS_9allocatorIcEEEENS4_IS6_EEE5eraseENS_21__list_const_iteratorIS6_PvEE
NO:__ZNSt3__214__num_put_base12__format_intEPcPKcbj
OO:__ZNK12_GLOBAL__N_116itanium_demangle12EnableIfAttr9printLeftERNS_12OutputStreamE
PO:__Z16DOS_FCBFindFirsttt
QO:__Z14swapInNextDiskb
RO:__ZNSt3__26vectorI5ValueNS_9allocatorIS1_EEE11__vallocateEm
SO:__ZN15DOS_Drive_Cache13ClearFileInfoEPNS_9CFileInfoE
TO:__ZN12Section_prop9Add_multiERKNSt3__212basic_stringIcNS0_11char_traitsIcEENS0_9allocatorIcEEEEN8Property10Changeable5ValueES8_
UO:__ZN12Section_prop10Add_stringERKNSt3__212basic_stringIcNS0_11char_traitsIcEENS0_9allocatorIcEEEEN8Property10Changeable5ValueEPKc
VO:__ZZN12_GLOBAL__N_116itanium_demangle22AbstractManglingParserINS0_14ManglingParserINS_16DefaultAllocatorEEES3_E13parseEncodingEvENKUlvE_clEv
WO:__ZN9DOS_Shell10CMD_ATTRIBEPc
XO:__ZN5DBOPL8Operator13UpdateReleaseEPKNS_4ChipE
YO:_zip_open
ZO:__ZNSt3__26vectorIPN15DOS_Drive_Cache9CFileInfoENS_9allocatorIS3_EEE12__move_rangeEPS3_S7_S7_
_O:__ZNSt3__212basic_stringIcNS_11char_traitsIcEENS_9allocatorIcEEE6assignERKS5_mm
$O:__ZN4OPL318change_releaserateEjPNS_15operator_structE
aP:__ZN4OPL218change_releaserateEjPNS_15operator_structE
bP:__ZL12SetTextLinesv
cP:__ZZNK12_GLOBAL__N_116itanium_demangle8FoldExpr9printLeftERNS_12OutputStreamEENKUlvE_clEv
dP:__ZNSt3__210__list_impIP8PropertyNS_9allocatorIS2_EEE5clearEv
eP:__ZNSt3__210__list_impIP7SectionNS_9allocatorIS2_EEE5clearEv
fP:__ZN9DOS_Shell7CMD_REMEPc
gP:__ZN12_GLOBAL__N_116itanium_demangle22AbstractManglingParserINS0_14ManglingParserINS_16DefaultAllocatorEEES3_ED2Ev
hP:__ZNSt3__213__vector_baseINS_12basic_stringIcNS_11char_traitsIcEENS_9allocatorIcEEEENS4_IS6_EEED2Ev
iP:__ZN21InitPageUserROHandler14writew_checkedEjj
jP:__ZN12Section_prop8Add_pathERKNSt3__212basic_stringIcNS0_11char_traitsIcEENS0_9allocatorIcEEEEN8Property10Changeable5ValueEPKc
kP:__ZL18KEYBOARD_AddBufferh
lP:__zip_file_exists
mP:__ZNSt3__210__list_impIP5CBindNS_9allocatorIS2_EEE5clearEv
nP:__ZN4OPL316change_decayrateEjPNS_15operator_structE
oP:__ZN4OPL216change_decayrateEjPNS_15operator_structE
pP:__ZN12_GLOBAL__N_116itanium_demangle22AbstractManglingParserINS0_14ManglingParserINS_16DefaultAllocatorEEES3_E4makeINS0_16FunctionEncodingEJRPNS0_4NodeESA_NS0_9NodeArrayESA_RNS0_10QualifiersERNS0_15FunctionRefQualEEEES9_DpOT0_
qP:_inflateEnd
rP:__ZNK12_GLOBAL__N_116itanium_demangle13ParameterPack19hasRHSComponentSlowERNS_12OutputStreamE
sP:__ZN5DBOPL8Operator14TemplateVolumeILNS0_5StateE2EEEiv
tP:__Z13VGA_SetupMiscv
uP:_twobyte_strstr
vP:_strlen
wP:__ZNKSt3__27collateIwE10do_compareEPKwS3_S3_S3_
xP:__ZN16VGA_LIN4_Handler6writedEjj
yP:__ZN12Section_prop8Add_boolERKNSt3__212basic_stringIcNS0_11char_traitsIcEENS0_9allocatorIcEEEEN8Property10Changeable5ValueEb
zP:__ZL11FPU_FXTRACTv
AP:__ZL13PCJr_FindModev
BP:_zip_get_num_entries
CP:__ZN12Section_prop7Add_intERKNSt3__212basic_stringIcNS0_11char_traitsIcEENS0_9allocatorIcEEEEN8Property10Changeable5ValueEi
DP:__ZN12CCheckButton5ClickEv
EP:__ZNSt3__26vectorI5ValueNS_9allocatorIS1_EEEC2ERKS4_
FP:__ZN10cdromDrive8FileOpenEPP8DOS_FilePcj
GP:__Z13CALLBACK_Idlev
HP:_zip_source_get_compression_flags
IP:__ZN9localFile4ReadEPhPt
JP:__ZNK12_GLOBAL__N_116itanium_demangle13ParameterPack13getSyntaxNodeERNS_12OutputStreamE
KP:__ZL9write_cmsjjj
LP:__ZL14LoadMoveRegionjR10MoveRegion
MP:__ZNK12_GLOBAL__N_116itanium_demangle13ParameterPack15hasFunctionSlowERNS_12OutputStreamE
NP:__ZN25VGA_UnchainedRead_Handler5readdEj
OP:__ZN12_GLOBAL__N_116itanium_demangle13EnclosingExprC2ENS_10StringViewEPNS0_4NodeES2_
PP:__ZL12status_latchj
QP:__ZN24VGA_UnchainedVGA_Handler6writedEjj
RP:_fstat
SP:__ZL8write_sbjjj
TP:__ZNKSt3__27codecvtIDsc11__mbstate_tE6do_outERS1_PKDsS5_RS5_PcS7_RS7_
UP:__ZN10device_CON14GetInformationEv
VP:__Z10mem_writedjj
WP:__ZNKSt3__27codecvtIDsc11__mbstate_tE5do_inERS1_PKcS5_RS5_PDsS7_RS7_
XP:__ZNKSt3__27codecvtIDic11__mbstate_tE6do_outERS1_PKDiS5_RS5_PcS7_RS7_
YP:__ZN15CStickBindGroup14CreateAxisBindEjb
ZP:__ZN10cdromDrive9FindFirstEPcR7DOS_DTAb
_P:__ZNKSt3__27codecvtIDic11__mbstate_tE5do_inERS1_PKcS5_RS5_PDiS7_RS7_
$P:__ZNSt3__213basic_filebufIcNS_11char_traitsIcEEE11__read_modeEv
aQ:__ZNK12_GLOBAL__N_116itanium_demangle13ParameterPack12hasArraySlowERNS_12OutputStreamE
bQ:__Z9mem_readdj
cQ:__ZN15MidiHandler_oss9PlaySysexEPhj
dQ:__Z28INT10_GetAllPaletteRegistersj
eQ:__ZNSt3__26vectorIPNS_6locale5facetENS_15__sso_allocatorIS3_Lm28EEEE11__vallocateEm
fQ:__ZN15CStickBindGroup13CreateHatBindEjh
gQ:_strtok
hQ:__ZL15MakeAspectTablejjdj
iQ:__ZN21CDROM_Interface_Image11ReadSectorsEjbmm
jQ:_compression_source_new
kQ:_zip_source_seek_write
lQ:__zip_cdir_free
mQ:__ZNK12_GLOBAL__N_116itanium_demangle24ForwardTemplateReference19hasRHSComponentSlowERNS_12OutputStreamE
nQ:_zip_source_stat
oQ:_zip_source_make_command_bitmap
pQ:__ZNSt3__214__split_bufferINS_12basic_stringIcNS_11char_traitsIcEENS_9allocatorIcEEEERNS4_IS6_EEED2Ev
qQ:__ZN8Prop_intC2ERKNSt3__212basic_stringIcNS0_11char_traitsIcEENS0_9allocatorIcEEEEN8Property10Changeable5ValueEi
rQ:__ZNSt3__214__split_bufferIPN15DOS_Drive_Cache9CFileInfoERNS_9allocatorIS3_EEE18__construct_at_endINS_13move_iteratorIPS3_EEEENS_9enable_ifIXsr21__is_forward_iteratorIT_EE5valueEvE4typeESD_SD_
sQ:___strerror_l
tQ:__ZNK12_GLOBAL__N_116itanium_demangle22ConversionOperatorType9printLeftERNS_12OutputStreamE
uQ:__ZN25VGA_UnchainedRead_Handler11readHandlerEj
vQ:__Z11ScanCMDBoolPcPKc
wQ:__ZN6Events15fixEventKeyCodeEP9SDL_Event
xQ:__ZN22VGA_ChainedEGA_Handler6writedEjj
yQ:__ZN5Adlib7Capture8AddWriteEjh
zQ:__Z14DOS_UnlinkFilePKc
AQ:__ZNK12_GLOBAL__N_116itanium_demangle19GlobalQualifiedName9printLeftERNS_12OutputStreamE
BQ:__ZNK12_GLOBAL__N_116itanium_demangle12FunctionType9printLeftERNS_12OutputStreamE
CQ:__ZN16VGA_LIN4_Handler5readdEj
DQ:__ZN15CTriggeredEvent13ActivateEventEbb
EQ:__ZN10localDrive11GetFileAttrEPcPt
FQ:__zip_u2d_time
GQ:___shlim
HQ:__ZNSt3__212basic_stringIcNS_11char_traitsIcEENS_9allocatorIcEEEaSEc
IQ:__ZNK12_GLOBAL__N_116itanium_demangle24ForwardTemplateReference15hasFunctionSlowERNS_12OutputStreamE
JQ:__ZNK10__cxxabiv120__si_class_type_info16search_above_dstEPNS_19__dynamic_cast_infoEPKvS4_ib
KQ:__ZN7CSerialD2Ev
LQ:__ZN22VGA_ChainedEGA_Handler5readdEj
MQ:__ZN15keyboard_layout5resetEv
NQ:__Z15VESA_GetPalettejjj
OQ:_getcwd
PQ:__ZNK12_GLOBAL__N_116itanium_demangle16StdQualifiedName9printLeftERNS_12OutputStreamE
QQ:__ZN12_GLOBAL__N_116itanium_demangle22AbstractManglingParserINS0_14ManglingParserINS_16DefaultAllocatorEEES3_E4makeINS0_12FunctionTypeEJRPNS0_4NodeERNS0_9NodeArrayERNS0_10QualifiersERNS0_15FunctionRefQualESA_EEES9_DpOT0_
RQ:__ZNK12_GLOBAL__N_116itanium_demangle15LiteralOperator9printLeftERNS_12OutputStreamE
SQ:__ZNK12_GLOBAL__N_116itanium_demangle13ParameterPack10printRightERNS_12OutputStreamE
TQ:__ZN12_GLOBAL__N_116DefaultAllocator8makeNodeINS_16itanium_demangle8NameTypeEJRA22_KcEEEPT_DpOT0_
UQ:__ZN12_GLOBAL__N_116DefaultAllocator8makeNodeINS_16itanium_demangle8NameTypeEJRA19_KcEEEPT_DpOT0_
VQ:__ZN12_GLOBAL__N_116DefaultAllocator8makeNodeINS_16itanium_demangle8NameTypeEJRA18_KcEEEPT_DpOT0_
WQ:__ZN12_GLOBAL__N_116DefaultAllocator8makeNodeINS_16itanium_demangle8NameTypeEJRA16_KcEEEPT_DpOT0_
XQ:__ZN12_GLOBAL__N_116DefaultAllocator8makeNodeINS_16itanium_demangle8NameTypeEJRA15_KcEEEPT_DpOT0_
YQ:__ZN12_GLOBAL__N_116DefaultAllocator8makeNodeINS_16itanium_demangle8NameTypeEJRA14_KcEEEPT_DpOT0_
ZQ:__ZN12_GLOBAL__N_116DefaultAllocator8makeNodeINS_16itanium_demangle8NameTypeEJRA13_KcEEEPT_DpOT0_
_Q:__ZN12_GLOBAL__N_116DefaultAllocator8makeNodeINS_16itanium_demangle8NameTypeEJRA12_KcEEEPT_DpOT0_
$Q:__ZN12_GLOBAL__N_116DefaultAllocator8makeNodeINS_16itanium_demangle8NameTypeEJRA11_KcEEEPT_DpOT0_
aR:__ZN12_GLOBAL__N_116DefaultAllocator8makeNodeINS_16itanium_demangle8NameTypeEJRA10_KcEEEPT_DpOT0_
bR:_strncmp
cR:__ZNK12_GLOBAL__N_116itanium_demangle8DtorName9printLeftERNS_12OutputStreamE
dR:__ZN13Virtual_Drive8FileOpenEPP8DOS_FilePcj
eR:__ZN12_GLOBAL__N_116DefaultAllocator8makeNodeINS_16itanium_demangle8NameTypeEJRA9_KcEEEPT_DpOT0_
fR:__ZN12_GLOBAL__N_116DefaultAllocator8makeNodeINS_16itanium_demangle8NameTypeEJRA8_KcEEEPT_DpOT0_
gR:__ZN12_GLOBAL__N_116DefaultAllocator8makeNodeINS_16itanium_demangle8NameTypeEJRA7_KcEEEPT_DpOT0_
hR:__ZN12_GLOBAL__N_116DefaultAllocator8makeNodeINS_16itanium_demangle8NameTypeEJRA6_KcEEEPT_DpOT0_
iR:__ZN12_GLOBAL__N_116DefaultAllocator8makeNodeINS_16itanium_demangle8NameTypeEJRA5_KcEEEPT_DpOT0_
jR:__ZN12_GLOBAL__N_116DefaultAllocator8makeNodeINS_16itanium_demangle8NameTypeEJRA4_KcEEEPT_DpOT0_
kR:__ZL18DOSBOX_UnlockSpeedb
lR:__Z9read_p3c5jj
mR:__Z16MIXER_AddChannelPFvjEjPKc
nR:__ZNK12_GLOBAL__N_116itanium_demangle13ParameterPack9printLeftERNS_12OutputStreamE
oR:__ZNK12_GLOBAL__N_116itanium_demangle13ObjCProtoName12isObjCObjectEv
pR:__ZN5Value10set_stringERKNSt3__212basic_stringIcNS0_11char_traitsIcEENS0_9allocatorIcEEEE
qR:__ZL10write_p201jjj
rR:__ZL10HLT_Decodev
sR:__ZN7CSerial15ByteTransmittedEv
tR:_puts
uR:__Z11MEM_StrCopyjPcj
vR:__ZNK12_GLOBAL__N_116itanium_demangle24ForwardTemplateReference12hasArraySlowERNS_12OutputStreamE
wR:__ZN21CDROM_Interface_Image10BinaryFile9getLengthEv
xR:__ZN12Virtual_File4ReadEPhPt
yR:__ZN11GUSChannels11WritePanPotEh
zR:__ZN10device_COM4ReadEPhPt
AR:__Z15VESA_SetPalettejjj
BR:__ZN21CDROM_Interface_ImageD2Ev
CR:__ZN21CDROM_Interface_Image9SetDeviceEPci
DR:__ZN12DriveManager10AppendDiskEiP9DOS_Drive
ER:__ZL12TandyDACReadjj
FR:__ZNK12_GLOBAL__N_116itanium_demangle9ThrowExpr9printLeftERNS_12OutputStreamE
GR:__ZN21CDROM_Interface_Image11ClearTracksEv
HR:__ZL17HandleMouseMotionP20SDL_MouseMotionEvent
IR:__ZL13DTAExtendNamePcS_S_
JR:__Z28INT10_SetOverscanBorderColorh
KR:__ZN7CMscdex13GetVolumeSizeEh
LR:__ZN12_GLOBAL__N_116itanium_demangle14PODSmallVectorIPNS0_4NodeELm32EE9push_backERKS3_
MR:__ZN8fatDrive16deleteClustChainEj
NR:__ZN8isoDrive11GetFileAttrEPcPt
OR:__ZN8fatDrive9FindFirstEPcR7DOS_DTAb
PR:__ZN13CKeyBindGroup15CreateEventBindEP9SDL_Event
QR:__ZN12_GLOBAL__N_116itanium_demangle14PODSmallVectorIPNS0_4NodeELm8EE9push_backERKS3_
RR:__ZNK12_GLOBAL__N_116itanium_demangle24ForwardTemplateReference13getSyntaxNodeERNS_12OutputStreamE
SR:__ZL10SetCurModeP14VideoModeBlockt
TR:__Z20DOS_GetFreeDiskSpacehPtPhS_S_
UR:__ZL23KEYBOARD_TransferBufferj
VR:__Z26INT10_SetSingleDACRegisterhhhh
WR:__ZNSt3__24listINS_12basic_stringIcNS_11char_traitsIcEENS_9allocatorIcEEEENS4_IS6_EEE9pop_frontEv
XR:__ZL13INT17_Handlerv
YR:_zip_fopen_index_encrypted
ZR:_open
_R:__ZN12MessageBlockC2EPKcS1_
$R:__Z30INT10_SetupVideoParameterTablej
aS:__ZN5DBOPL7Handler8GenerateEP12MixerChannelj
bS:__ZN12_GLOBAL__N_116itanium_demangle15ClosureTypeNameC2ENS0_9NodeArrayENS_10StringViewE
cS:__ZL16MAPPER_LoadBindsv
dS:__ZN5Adlib7Capture10WriteCacheEv
eS:__Z11CPU_GET_CRXj
fS:__ZN6MyFifo4getbEv
gS:__ZL11UpdateTrackh
hS:__ZNK12_GLOBAL__N_116itanium_demangle8NameType9printLeftERNS_12OutputStreamE
iS:__ZN8fatDrive14zeroOutClusterEj
jS:__ZN12_GLOBAL__N_116itanium_demangle14IntegerLiteralC2ENS_10StringViewES2_
kS:__ZL24TandyDACGenerateDMASoundj
lS:_pad
mS:__ZNK12_GLOBAL__N_116itanium_demangle8BoolExpr9printLeftERNS_12OutputStreamE
nS:__ZN13CFCSBindGroupC2Ejj
oS:__Z17SVGA_Setup_Driverv
pS:__zip_deregister_source
qS:__ZNSt3__29__num_getIwE17__stage2_int_prepERNS_8ios_baseERw
rS:__ZNSt3__29__num_getIcE17__stage2_int_prepERNS_8ios_baseERc
sS:__ZNK10__cxxabiv129__pointer_to_member_type_info16can_catch_nestedEPKNS_16__shim_type_infoE
tS:__ZN21InitPageUserROHandler14writeb_checkedEjj
uS:__ZN15DOS_Drive_CacheC2Ev
vS:__ZL14TandyDACUpdatej
wS:__ZL20Mouse_SetSensitivityttt
xS:__ZN16TaskStateSegment12Get_SSx_ESPxEjRjS0_
yS:__ZN15InitPageHandler5readwEj
zS:__ZL18VGA_Draw_4BPP_Linejj
AS:__Z14RENDER_SetSizejjjfdbb
BS:__ZN5MIXER10ShowVolumeEPKcff
CS:__Z9mem_readwj
DS:__Z20DetermineMode_PVGA1Av
ES:__ZNK12_GLOBAL__N_116itanium_demangle24ForwardTemplateReference10printRightERNS_12OutputStreamE
FS:__ZN15InitPageHandler5readbEj
GS:__ZN12_GLOBAL__N_116itanium_demangle22AbstractManglingParserINS0_14ManglingParserINS_16DefaultAllocatorEEES3_E13makeNodeArrayIPPNS0_4NodeEEENS0_9NodeArrayET_SB_
HS:__ZL10FPU_FSTENVj
IS:__Z10mem_writewjt
JS:__ZN14PIC_Controller9start_irqEh
KS:__Z18DetermineMode_ET4Kv
LS:__Z18DetermineMode_ET3Kv
MS:__zip_read
NS:__ZNSt3__24listINS_12basic_stringIcNS_11char_traitsIcEENS_9allocatorIcEEEENS4_IS6_EEE10push_frontERKS6_
OS:__ZNSt3__24listI12MessageBlockNS_9allocatorIS1_EEE5eraseENS_21__list_const_iteratorIS1_PvEE
PS:__ZNK12_GLOBAL__N_116itanium_demangle24ForwardTemplateReference9printLeftERNS_12OutputStreamE
QS:__ZN15InitPageHandler6writewEjj
RS:__ZL14GUS_TimerEventj
SS:__Z13DOS_AddDeviceP10DOS_Device
TS:___stdio_seek
US:__ZN6MyFifo4addbEh
VS:__ZN15InitPageHandler6writebEjj
WS:__ZN12_GLOBAL__N_116itanium_demangle8FoldExprC2EbNS_10StringViewEPKNS0_4NodeES5_
XS:__Z9CPU_PUSHFj
YS:__Z13CPU_WRITE_CRXjj
ZS:__ZNSt3__24listIN7Section16Function_wrapperENS_9allocatorIS2_EEE10push_frontERKS2_
_S:__ZN15InitPageHandler5readdEj
$S:__ZN13Virtual_Drive8FileStatEPKcP14FileStat_Block
aT:__ZN20IO_WriteHandleObject7InstallEjPFvjjjEjj
bT:__ZN5Value9plaincopyERKS_
cT:__ZL20VGA_Draw_Linear_Linejj
dT:__ZN15InitPageHandler6writedEjj
eT:__ZL18VGA_Draw_1BPP_Linejj
fT:__ZN8Prop_int8SetValueERKNSt3__212basic_stringIcNS0_11char_traitsIcEENS0_9allocatorIcEEEE
gT:__ZN15DOS_Drive_Cache17RemoveTrailingDotEPc
hT:__ZN12Section_line15HandleInputlineERKNSt3__212basic_stringIcNS0_11char_traitsIcEENS0_9allocatorIcEEEE
iT:__ZL7get_keyRt
jT:__ZL13INT2F_Handlerv
kT:__Z14XGA_GetDualRegj
lT:__ZN19IO_ReadHandleObject7InstallEjPFjjjEjj
mT:__ZN11CommandLine11FindCommandEjRNSt3__212basic_stringIcNS0_11char_traitsIcEENS0_9allocatorIcEEEE
nT:__ZN21CDROM_Interface_Image10BinaryFile4readEPhii
oT:__ZNK10__cxxabiv122__base_class_type_info16search_above_dstEPNS_19__dynamic_cast_infoEPKvS4_ib
pT:__ZN5DBOPL7ChannelC2Ev
qT:__ZN12Section_propD2Ev
rT:__Z13vga_read_p3dajj
sT:_zip_source_layered_create
tT:__ZN15C4AxisBindGroupC2Ejj
uT:__Z16VGA_SetCGA2Tablehh
vT:_zip_source_close
wT:_zip_source_buffer_create
xT:__zip_cdir_new
yT:__ZNSt3__213__vector_baseI10copysourceNS_9allocatorIS1_EEED2Ev
zT:__ZN5DBOPL8Operator7WriteE0EPKNS_4ChipEh
AT:__ZL9ExpandDotPcS_
BT:__ZNSt3__212basic_stringIcNS_11char_traitsIcEENS_9allocatorIcEEEC2ERKS5_
CT:__ZN10CJAxisBind8BindNameEPc
DT:__Z19INT10_SelectDACPagehh
ET:__ZNK10__cxxabiv120__si_class_type_info27has_unambiguous_public_baseEPNS_19__dynamic_cast_infoEPvi
FT:__Z18DOS_GetSTDINStatusv
GT:__Z10mem_strlenj
HT:__ZNSt3__24listIN7Section16Function_wrapperENS_9allocatorIS2_EEE9push_backERKS2_
IT:__ZN22CALLBACK_HandlerObject8AllocateEPFjvEPKc
JT:__ZN13DmaControllerD2Ev
KT:__ZN12CCHBindGroupC2Ejj
LT:_store_int_273
MT:__Z13MEM_BlockReadjPvj
NT:__Z13DOS_DelDeviceP10DOS_Device
OT:__ZNSt3__24listIN7Section16Function_wrapperENS_9allocatorIS2_EEE5eraseENS_21__list_const_iteratorIS2_PvEE
PT:__ZNK10__cxxabiv122__base_class_type_info27has_unambiguous_public_baseEPNS_19__dynamic_cast_infoEPvi
QT:__ZN11MixerObject7InstallEPFvjEjPKc
RT:__ZN10cdromDrive6SetDirEPKc
ST:__ZL19Default_IRQ_Handlerv
TT:__ZNSt3__24listINS_12basic_stringIcNS_11char_traitsIcEENS_9allocatorIcEEEENS4_IS6_EEE9push_backERKS6_
UT:__ZN5Cross23CreatePlatformConfigDirERNSt3__212basic_stringIcNS0_11char_traitsIcEENS0_9allocatorIcEEEE
VT:__ZL13AddJHatButtonjjjjPKcjjj
WT:__Z16INT10_GetDACPagePhS_
XT:_zip_source_remove
YT:__ZN8Prop_hex8SetValueERKNSt3__212basic_stringIcNS0_11char_traitsIcEENS0_9allocatorIcEEEE
ZT:__ZN5DBOPL8Operator14TemplateVolumeILNS0_5StateE1EEEiv
_T:__ZN5DBOPL7Channel15UpdateFrequencyEPKNS_4ChipEh
$T:__ZN11CommandLine13Get_arglengthEv
aU:__ZN10DmaChannelC2Ehb
bU:__Z14MEM_BlockWritejPKvj
cU:__Z14GFX_SetPalettejjP12GFX_PalEntry
dU:__ZNSt3__213__vector_baseI5ValueNS_9allocatorIS1_EEED2Ev
eU:__ZNSt3__213unordered_mapINS_12basic_stringIcNS_11char_traitsIcEENS_9allocatorIcEEEEPFvRKS6_PKcPFvS8_RK10jsonstreamEENS_4hashIS6_EENS_8equal_toIS6_EENS4_INS_4pairIS7_SH_EEEEED2Ev
fU:__ZN11PageHandler5readdEj
gU:__zip_unchange_data
hU:__ZN12_GLOBAL__N_116itanium_demangle8CastExprC2ENS_10StringViewEPKNS0_4NodeES5_
iU:__ZL23EMM_RestoreMappingTablev
jU:__ZN15DOS_Drive_Cache7OpenDirEPKcRt
kU:__ZN11PageHandler6writedEjj
lU:__ZNSt3__214__split_bufferIN21CDROM_Interface_Image5TrackERNS_9allocatorIS2_EEED2Ev
mU:__ZN22CALLBACK_HandlerObject11Set_RealVecEh
nU:__ZL13DOS_26Handlerv
oU:__ZNSt3__214__split_bufferIPN15DOS_Drive_Cache9CFileInfoERNS_9allocatorIS3_EEED2Ev
pU:__ZN5ValueC2ERKNSt3__212basic_stringIcNS0_11char_traitsIcEENS0_9allocatorIcEEEENS_5EtypeE
qU:__ZN12_GLOBAL__N_116itanium_demangle10MemberExprC2EPKNS0_4NodeENS_10StringViewES4_
rU:__ZN12_GLOBAL__N_116itanium_demangle10BinaryExprC2EPKNS0_4NodeENS_10StringViewES4_
sU:__Z15DOS_GetFileAttrPKcPt
tU:__zip_ef_new
uU:__ZN22CALLBACK_HandlerObject7InstallEPFjvEjjPKc
vU:__ZN12_GLOBAL__N_116itanium_demangle10AbiTagAttrC2EPNS0_4NodeENS_10StringViewE
wU:__Z7CPU_HLTj
xU:__ZN5CBindC2EPNSt3__24listIPS_NS0_9allocatorIS2_EEEE
yU:__ZN5Adlib6Module9CtrlWriteEh
zU:__ZN21CDROM_Interface_Image14GetAudioTracksERiS0_R4SMSF
AU:__ZN10TANDYSOUNDD2Ev
BU:__ZN10CJAxisBind10ConfigNameEPc
CU:__ZL9Compositeb
DU:__ZL11DSP_DoWriteh
EU:__Z13DOS_SetupMiscv
FU:__ZNK10__cxxabiv122__base_class_type_info16search_below_dstEPNS_19__dynamic_cast_infoEPKvib
GU:__ZL8FPU_FXCHjj
HU:__ZL13convToDirFilePcS_
IU:__Z12VFILE_RemovePKc
JU:__ZNK10__cxxabiv117__pbase_type_info9can_catchEPKNS_16__shim_type_infoERPv
KU:__ZN9CJHatBind10ConfigNameEPc
LU:__ZN12MixerChannel6FillUpEv
MU:__Z29INT10_EGA_RIL_ReadRegisterSettj
NU:__ZNSt3__214__split_bufferI10copysourceRNS_9allocatorIS1_EEED2Ev
OU:__ZN21CDROM_Interface_Image8GetTrackEi
PU:__ZL8FPU_FXAMv
QU:__ZNSt3__24listIP5CBindNS_9allocatorIS2_EEE5eraseENS_21__list_const_iteratorIS2_PvEE
RU:__Z16read_herc_statusjj
SU:__ZNSt3__24listIPFbvENS_9allocatorIS2_EEE5eraseENS_21__list_const_iteratorIS2_PvEE
TU:__ZNSt3__212__hash_tableINS_17__hash_value_typeINS_12basic_stringIcNS_11char_traitsIcEENS_9allocatorIcEEEEPFvRKS7_PKcPFvS9_RK10jsonstreamEEEENS_22__unordered_map_hasherIS7_SJ_NS_4hashIS7_EELb1EEENS_21__unordered_map_equalIS7_SJ_NS_8equal_toIS7_EELb1EEENS5_ISJ_EEEC2ERKST_
UU:__zip_fseek
VU:__ZN5DBOPL8Operator11UpdateRatesEPKNS_4ChipE
WU:__ZN14PIC_Controller17update_active_irqEv
XU:__ZL16AddJButtonButtonjjjjPKcjj
YU:__ZN9DOS_ShellC2Ev
ZU:__ZNK12_GLOBAL__N_116itanium_demangle12InitListExpr9printLeftERNS_12OutputStreamE
_U:__Z17CALLBACK_Allocatev
$U:__ZNSt3__214__split_bufferIP13CHandlerEventRNS_9allocatorIS2_EEED2Ev
aV:__ZNSt3__213basic_filebufIcNS_11char_traitsIcEEE5closeEv
bV:__ZN22VGA_ChainedVGA_Handler5readwEj
cV:__ZN12_GLOBAL__N_116itanium_demangle22AbstractManglingParserINS0_14ManglingParserINS_16DefaultAllocatorEEES3_E4makeINS0_7NewExprEJRNS0_9NodeArrayERPNS0_4NodeES9_RbSD_EEESB_DpOT0_
dV:__ZN12_GLOBAL__N_116itanium_demangle22AbstractManglingParserINS0_14ManglingParserINS_16DefaultAllocatorEEES3_E4makeINS0_7NewExprEJRNS0_9NodeArrayERPNS0_4NodeES8_RbSD_EEESB_DpOT0_
eV:__Z18MEM_GetPageHandlerj
fV:__ZL10write_p3c6jjj
gV:__ZNSt3__214__split_bufferIPFvPP7ProgramERNS_9allocatorIS5_EEED2Ev
hV:__ZN7CSerial20changeLinePropertiesEv
iV:__ZL21AddJAxisButton_hiddenjjbP11CJAxisEvent
jV:__ZZN6Events12registerExitEvENK3__1clERKNSt3__212basic_stringIcNS1_11char_traitsIcEENS1_9allocatorIcEEEEPKcPFvS9_RK10jsonstreamE
kV:__ZNSt3__214__split_bufferIP10CBindGroupRNS_9allocatorIS2_EEED2Ev
lV:__ZN18GDTDescriptorTable13SetDescriptorEjR10Descriptor
mV:__ZN18GDTDescriptorTable13GetDescriptorEjR10Descriptor
nV:__ZL12TEXT_FillRowhhhjh
oV:__Z23IO_RegisterWriteHandlerjPFvjjjEjj
pV:__ZNSt3__218__find_first_of_ceIPKcS2_PFbccEEET_S5_S5_T0_S6_T1_
qV:__Z7lowcaseRNSt3__212basic_stringIcNS_11char_traitsIcEENS_9allocatorIcEEEE
rV:_perror
sV:___towrite
tV:__ZNSt3__214__split_bufferIP9DOS_DriveRNS_9allocatorIS2_EEED2Ev
uV:__ZNSt3__214__split_bufferI9SDL_EventRNS_9allocatorIS1_EEED2Ev
vV:__ZNSt3__214__split_bufferI5ValueRNS_9allocatorIS1_EEED2Ev
wV:__ZNKSt3__27codecvtIwc11__mbstate_tE11do_encodingEv
xV:__ZN8PropertyC2ERKNSt3__212basic_stringIcNS0_11char_traitsIcEENS0_9allocatorIcEEEENS_10Changeable5ValueE
yV:__ZN7DOS_DTA9SetResultEPKcjtth
zV:__ZN3DOSD2Ev
AV:__Z6upcaseRNSt3__212basic_stringIcNS_11char_traitsIcEENS_9allocatorIcEEEE
BV:__Z22IO_RegisterReadHandlerjPFjjjEjj
CV:__ZN5DBOPL8Operator15UpdateFrequencyEv
DV:__zip_source_new
EV:__ZNSt3__214__split_bufferIP7CButtonRNS_9allocatorIS2_EEED2Ev
FV:__ZNSt3__214__split_bufferIP6CEventRNS_9allocatorIS2_EEED2Ev
GV:__ZN7DOS_DTA9GetResultEPcRjRtS2_Rh
HV:__ZN12Section_lineC2ERKNSt3__212basic_stringIcNS0_11char_traitsIcEENS0_9allocatorIcEEEE
IV:__ZN7SectionC2ERKNSt3__212basic_stringIcNS0_11char_traitsIcEENS0_9allocatorIcEEEE
JV:__ZNSt3__215basic_streambufIcNS_11char_traitsIcEEE5uflowEv
KV:__ZNKSt3__29__num_getIwE12__do_widen_pIwEEPKT_RNS_8ios_baseEPS3_
LV:__ZN10CBindGroupC2Ev
MV:__Z7CPU_CLIv
NV:__Z16SVGA_S3_GetClockv
OV:__ZN7DOS_PSP17FindEntryByHandleEh
PV:__ZN7DOS_FCB6CreateEb
QV:__ZN22CALLBACK_HandlerObject7InstallEPFjvEjPKc
RV:__ZN14PIC_Controller9lower_irqEh
SV:__ZL15RENDER_CallBack23GFX_CallBackFunctions_t
TV:__Z7CPU_STIv
UV:__ZN18IllegalPageHandler6writebEjj
VV:__ZN12_GLOBAL__N_112OutputStreampLENS_10StringViewE
WV:__ZN15DOS_Drive_Cache8SetLabelEPKcbb
XV:__ZN22VGA_ChainedVGA_Handler6writebEjj
YV:__Z13TIMER_AddTickv
ZV:_strncat
_V:__Z16XMS_ResizeMemoryjj
$V:__ZN7CMscdex14GetMediaStatusEhRbS0_S0_
aW:__ZN7CButton5OnTopEjj
bW:__ZN5DBOPL8Operator12UpdateAttackEPKNS_4ChipE
cW:__ZN12_GLOBAL__N_116itanium_demangle22ElaboratedTypeSpefTypeC2ENS_10StringViewEPNS0_4NodeE
dW:__ZN10localDrive10FileExistsEPKc
eW:__ZL18VGA_Draw_2BPP_Linejj
fW:__ZN18IllegalPageHandler5readbEj
gW:__ZL16VGA_Text_Memwrapj
hW:__ZL11DSP_AddDatah
iW:__ZL24EMM_AllocateSystemHandlet
jW:_zip_stat_init
kW:__ZNKSt3__25ctypeIwE5do_isEPKwS3_Pt
lW:__ZN12_GLOBAL__N_116itanium_demangle22AbstractManglingParserINS0_14ManglingParserINS_16DefaultAllocatorEEES3_E4makeINS0_8FoldExprEJRbRNS_10StringViewERPNS0_4NodeESD_EEESC_DpOT0_
mW:__ZL6FROUNDd
nW:__Z19DOS_GetDefaultDrivev
oW:__ZL12GetResult_16tttt
pW:__Z15PAGING_ClearTLBv
qW:___string_read
rW:__ZNSt3__26vectorIPNS_6locale5facetENS_15__sso_allocatorIS3_Lm28EEEEC2Em
sW:__ZN9localFileC2EPKcP8_IO_FILE
tW:_zip_source_function_create
uW:__zip_progress_update
vW:__ZN14PIC_Controller9raise_irqEh
wW:__ZN12_GLOBAL__N_116itanium_demangle11SpecialNameC2ENS_10StringViewEPKNS0_4NodeE
xW:__ZL10FPU_FSCALEv
yW:___fmodeflags
zW:__ZNSt3__213__vector_baseIPNS_6locale5facetENS_15__sso_allocatorIS3_Lm28EEEED2Ev
AW:__ZNSt3__28ios_base4initEPv
BW:__ZN12_GLOBAL__N_116itanium_demangle10PrefixExprC2ENS_10StringViewEPNS0_4NodeE
CW:__ZL25EMM_GetPagesForAllHandlesjRt
DW:__ZN5DBOPL8Operator11UpdateDecayEPKNS_4ChipE
EW:__ZL10MakeTablesv
FW:__Z18IO_FreeReadHandlerjjj
GW:_write_cdir
HW:__ZN5DBOPL7Channel7WriteA0EPKNS_4ChipEh
IW:__ZN16CContinuousEvent13ActivateEventEbb
JW:__ZN13CKeyBindGroupD2Ev
KW:__Z19IO_FreeWriteHandlerjjj
LW:__Z12Herc_Palettev
MW:__ZN10localDrive9RemoveDirEPc
NW:__ZN10localDrive7MakeDirEPc
OW:__ZN14TSS_Descriptor7SetBusyEb
PW:_wmemmove
QW:_start
RW:_memcmp
SW:__ZNSt3__26vectorIPNS_6locale5facetENS_15__sso_allocatorIS3_Lm28EEEE6resizeEm
TW:__ZN4OPL315operator_outputEPNS_15operator_structEii
UW:__ZN4OPL215operator_outputEPNS_15operator_structEii
VW:__ZN5TIMERD2Ev
WW:_vasprintf
XW:__zip_buffer_skip
YW:__ZN11Prop_stringC2ERKNSt3__212basic_stringIcNS0_11char_traitsIcEENS0_9allocatorIcEEEEN8Property10Changeable5ValueEPKc
ZW:__ZL18TandyCheckLineMaskv
_W:__Z14read_p3c1_et4kjj
$W:__Z14read_p3c1_et3kjj
aX:__Z10INT10_InitP7Section
bX:__ZN15DOS_Drive_Cache16CompareShortnameEPKcS1_
cX:__ZL17VGA_DAC_SendColorjj
dX:__Z14XMS_LockMemoryjRj
eX:__Z10DOS_NewPSPtt
fX:__ZNSt3__213__lower_boundIRNS_6__lessIjmEEPKjmEET0_S6_S6_RKT1_T_
gX:__ZN12_GLOBAL__N_116DefaultAllocator8makeNodeINS_16itanium_demangle15ConditionalExprEJRPNS2_4NodeES6_S6_EEEPT_DpOT0_
hX:__ZN12_GLOBAL__N_116DefaultAllocator8makeNodeINS_16itanium_demangle15BracedRangeExprEJRPNS2_4NodeES6_S6_EEEPT_DpOT0_
iX:__Z14read_p3c5_et4kjj
jX:__Z14read_p3c5_et3kjj
kX:__zip_write
lX:__ZNKSt3__25ctypeIwE11do_scan_notEtPKwS3_
mX:__ZN7CMscdex12PlayAudioMSFEhjj
nX:__Z17DOS_GetCurrentDirhPc
oX:_fwrite
pX:__ZN7DOS_PSP17FindFreeFileEntryEv
qX:__ZL14DSP_ChangeRatej
rX:__ZN7Section11ExecuteInitEb
sX:__ZN12_GLOBAL__N_116itanium_demangle22AbstractManglingParserINS0_14ManglingParserINS_16DefaultAllocatorEEES3_E4makeINS0_10BinaryExprEJRPNS0_4NodeERNS_10StringViewESA_EEES9_DpOT0_
tX:__Z15write_p3c0_et4kjjj
uX:__Z15write_p3c0_et3kjjj
vX:__zip_hash_free
wX:__ZNSt3__2lsIcNS_11char_traitsIcEENS_9allocatorIcEEEERNS_13basic_ostreamIT_T0_EES9_RKNS_12basic_stringIS6_S7_T1_EE
xX:__ZN9Prop_boolC2ERKNSt3__212basic_stringIcNS0_11char_traitsIcEENS0_9allocatorIcEEEEN8Property10Changeable5ValueEb
yX:__ZN9MemStruct5GetItEjj
zX:__ZN24VGA_UnchainedEGA_Handler6writewEjj
AX:__ZNKSt3__24hashINS_12basic_stringIcNS_11char_traitsIcEENS_9allocatorIcEEEEEclERKS6_
BX:__ZN7CSerial8Read_LSREv
CX:__ZN7CMscdex10GetSubUnitEt
DX:__ZN4OPL318change_keepsustainEjPNS_15operator_structE
EX:__ZN4OPL218change_keepsustainEjPNS_15operator_structE
FX:__ZN12_GLOBAL__N_116itanium_demangle22AbstractManglingParserINS0_14ManglingParserINS_16DefaultAllocatorEEES3_E4makeINS0_15ClosureTypeNameEJRNS0_9NodeArrayERNS_10StringViewEEEEPNS0_4NodeEDpOT0_
GX:__ZN12_GLOBAL__N_116itanium_demangle10VectorTypeC2EPKNS0_4NodeENS0_12NodeOrStringE
HX:__ZN12_GLOBAL__N_116DefaultAllocator8makeNodeINS_16itanium_demangle10DeleteExprEJRPNS2_4NodeERbbEEEPT_DpOT0_
IX:__ZL15UpdateConductorv
JX:__ZL11DrawButtonsv
KX:__Z15write_p3c5_et4kjjj
LX:__Z15write_p3c5_et3kjjj
MX:__Z15DOS_FCBFindNexttt
NX:__ZN9MemStruct6SaveItEjjj
OX:__ZN15DOS_Drive_Cache9CFileInfoC2Ev
PX:__ZN12_GLOBAL__N_116DefaultAllocator8makeNodeINS_16itanium_demangle12CtorDtorNameEJRPNS2_4NodeEbRiEEEPT_DpOT0_
QX:__ZL24RENDER_FinishLineHandlerPKv
RX:__zip_buffer_set_offset
SX:__ZNSt3__219basic_ostringstreamIcNS_11char_traitsIcEENS_9allocatorIcEEED2Ev
TX:__ZNSt3__219basic_istringstreamIcNS_11char_traitsIcEENS_9allocatorIcEEED2Ev
UX:__ZN12_GLOBAL__N_116itanium_demangle9ArrayTypeC2EPKNS0_4NodeENS0_12NodeOrStringE
VX:__ZN12_GLOBAL__N_116itanium_demangle22AbstractManglingParserINS0_14ManglingParserINS_16DefaultAllocatorEEES3_E9NameStateC2EPS5_
WX:__ZN12_GLOBAL__N_116itanium_demangle22AbstractManglingParserINS0_14ManglingParserINS_16DefaultAllocatorEEES3_E4makeINS0_22ElaboratedTypeSpefTypeEJRNS_10StringViewERPNS0_4NodeEEEESB_DpOT0_
XX:__ZN12_GLOBAL__N_116itanium_demangle11PostfixExprC2EPKNS0_4NodeENS_10StringViewE
YX:__ZN12_GLOBAL__N_116DefaultAllocator8makeNodeINS_16itanium_demangle10BracedExprEJRPNS2_4NodeES6_bEEEPT_DpOT0_
ZX:_input
_X:__ZN12_GLOBAL__N_116itanium_demangle20PostfixQualifiedTypeC2EPNS0_4NodeENS_10StringViewE
$X:__ZL18Tandy_InitializeTSv
aY:__ZL18Tandy_InitializeSBv
bY:__ZN12_GLOBAL__N_116itanium_demangle9DotSuffixC2EPKNS0_4NodeENS_10StringViewE
cY:__ZN8Property6SetValERK5Valuebb
dY:__ZN7CMscdex6GetUPCEhRhPc
eY:__ZN12_GLOBAL__N_116itanium_demangle17VendorExtQualTypeC2EPKNS0_4NodeENS_10StringViewE
fY:__Z16DOS_CanonicalizePKcPc
gY:__ZN5Cross20GetPlatformConfigDirERNSt3__212basic_stringIcNS0_11char_traitsIcEENS0_9allocatorIcEEEE
hY:__ZN12_GLOBAL__N_116itanium_demangle15IntegerCastExprC2EPKNS0_4NodeENS_10StringViewE
iY:__ZN12CJButtonBind10ConfigNameEPc
jY:__ZN12_GLOBAL__N_116DefaultAllocator8makeNodeINS_16itanium_demangle13ReferenceTypeEJRPNS2_4NodeENS2_13ReferenceKindEEEEPT_DpOT0_
kY:__Z19VGA_ATTR_SetPalettehh
lY:__ZNSt3__28ios_base16__call_callbacksENS0_5eventE
mY:__ZNSt3__24listI12MessageBlockNS_9allocatorIS1_EEE9push_backERKS1_
nY:__ZNK10__cxxabiv117__class_type_info16search_above_dstEPNS_19__dynamic_cast_infoEPKvS4_ib
oY:__ZN5Cross14IsPathAbsoluteERKNSt3__212basic_stringIcNS0_11char_traitsIcEENS0_9allocatorIcEEEE
pY:__ZN12_GLOBAL__N_116itanium_demangle14ConversionExprC2EPKNS0_4NodeENS0_9NodeArrayE
qY:__ZN12_GLOBAL__N_116itanium_demangle13ObjCProtoNameC2EPKNS0_4NodeENS_10StringViewE
rY:__ZN12_GLOBAL__N_112OutputStream4growEm
sY:__Z17INT10_GetDACBlockttj
tY:__ZNSt3__26vectorI5ValueNS_9allocatorIS1_EEE18__construct_at_endIPS1_EENS_9enable_ifIXsr21__is_forward_iteratorIT_EE5valueEvE4typeES8_S8_m
uY:__ZN12CJButtonBind8BindNameEPc
vY:__ZL18DSP_PrepareDMA_Old9DMA_MODESbb
wY:__ZL12AddModButtonjjjjPKcj
xY:__Z14XMS_FreeMemoryj
yY:__ZNKSt3__220__time_get_c_storageIwE3__xEv
zY:__ZNKSt3__220__time_get_c_storageIwE3__rEv
AY:__ZNKSt3__220__time_get_c_storageIwE3__cEv
BY:__ZNKSt3__220__time_get_c_storageIwE3__XEv
CY:__ZNKSt3__220__time_get_c_storageIcE3__xEv
DY:__ZNKSt3__220__time_get_c_storageIcE3__rEv
EY:__ZNKSt3__220__time_get_c_storageIcE3__cEv
FY:__ZNKSt3__220__time_get_c_storageIcE3__XEv
GY:__ZN12_GLOBAL__N_116itanium_demangle22AbstractManglingParserINS0_14ManglingParserINS_16DefaultAllocatorEEES3_E4makeINS0_17VendorExtQualTypeEJRPNS0_4NodeERNS_10StringViewEEEES9_DpOT0_
HY:__ZN12_GLOBAL__N_116itanium_demangle12InitListExprC2EPKNS0_4NodeENS0_9NodeArrayE
IY:__ZN24VGA_UnchainedVGA_Handler6writewEjj
JY:__ZN4OPL37Handler8GenerateEP12MixerChannelj
KY:__ZN4OPL27Handler8GenerateEP12MixerChannelj
LY:__ZN12_GLOBAL__N_116itanium_demangle22AbstractManglingParserINS0_14ManglingParserINS_16DefaultAllocatorEEES3_E4makeINS0_13ReferenceTypeEJRPNS0_4NodeENS0_13ReferenceKindEEEES9_DpOT0_
MY:__ZL19DSP_E2_DMA_CallBackP10DmaChannel8DMAEvent
NY:___muldsi3
OY:__ZN12_GLOBAL__N_116itanium_demangle22AbstractManglingParserINS0_14ManglingParserINS_16DefaultAllocatorEEES3_E4makeINS0_15IntegerCastExprEJRPNS0_4NodeERNS_10StringViewEEEES9_DpOT0_
PY:__ZN12_GLOBAL__N_116itanium_demangle22AbstractManglingParserINS0_14ManglingParserINS_16DefaultAllocatorEEES3_E4makeINS0_15ConditionalExprEJRPNS0_4NodeESA_SA_EEES9_DpOT0_
QY:__ZN12_GLOBAL__N_116itanium_demangle22AbstractManglingParserINS0_14ManglingParserINS_16DefaultAllocatorEEES3_E4makeINS0_15BracedRangeExprEJRPNS0_4NodeESA_SA_EEES9_DpOT0_
RY:__Z15MEM_FreeLargestv
SY:__ZNSt3__212basic_stringIcNS_11char_traitsIcEENS_9allocatorIcEEEaSERKS5_
TY:__ZNKSt3__25ctypeIwE10do_scan_isEtPKwS3_
UY:__ZN15keyboard_layoutD2Ev
VY:__ZN12_GLOBAL__N_122initializeOutputStreamEPcPmRNS_12OutputStreamEm
WY:__ZN12_GLOBAL__N_116itanium_demangle8CallExprC2EPKNS0_4NodeENS0_9NodeArrayE
XY:__Z11GFX_ShowMsgPKcz
YY:__ZNSt3__214basic_ifstreamIcNS_11char_traitsIcEEE4openEPKcj
ZY:__ZN6MyFifo6getTopEv
_Y:__ZN12_GLOBAL__N_116itanium_demangle22AbstractManglingParserINS0_14ManglingParserINS_16DefaultAllocatorEEES3_E4makeINS0_13EnclosingExprEJRA10_KcRPNS0_4NodeERA2_S8_EEESC_DpOT0_
$Y:__ZNSt3__24listIP5CBindNS_9allocatorIS2_EEE10push_frontERKS2_
aZ:__ZN16VGA_LIN4_Handler6writewEjj
bZ:__ZN12Section_prop8Get_propEi
cZ:_copysign
dZ:__ZN25VGA_UnchainedRead_Handler5readwEj
eZ:__ZN18DOS_KeyboardLayoutD2Ev
fZ:__ZN12_GLOBAL__N_116itanium_demangle22AbstractManglingParserINS0_14ManglingParserINS_16DefaultAllocatorEEES3_E4makeINS0_27ExpandedSpecialSubstitutionEJRNS0_14SpecialSubKindEEEEPNS0_4NodeEDpOT0_
gZ:__ZN12_GLOBAL__N_116itanium_demangle22AbstractManglingParserINS0_14ManglingParserINS_16DefaultAllocatorEEES3_E4makeINS0_14ConversionExprEJRPNS0_4NodeERNS0_9NodeArrayEEEES9_DpOT0_
hZ:__ZN12_GLOBAL__N_116itanium_demangle22AbstractManglingParserINS0_14ManglingParserINS_16DefaultAllocatorEEES3_E4makeINS0_13ObjCProtoNameEJRPNS0_4NodeERNS_10StringViewEEEES9_DpOT0_
iZ:__ZN12_GLOBAL__N_116itanium_demangle22AbstractManglingParserINS0_14ManglingParserINS_16DefaultAllocatorEEES3_E4makeINS0_13EnclosingExprEJRA9_KcRPNS0_4NodeERA2_S8_EEESC_DpOT0_
jZ:__ZN12_GLOBAL__N_116itanium_demangle22AbstractManglingParserINS0_14ManglingParserINS_16DefaultAllocatorEEES3_E4makeINS0_10MemberExprEJRPNS0_4NodeERA3_KcSA_EEES9_DpOT0_
kZ:_strcmp
lZ:__ZNSt3__24listIPFbvENS_9allocatorIS2_EEE10push_frontERKS2_
mZ:__ZNSt3__213basic_ostreamIcNS_11char_traitsIcEEE6sentryC2ERS3_
nZ:__ZN9PIC_8259AD2Ev
oZ:__ZN12MixerChannel6EnableEb
pZ:__ZL12INT8_Handlerv
qZ:_size_for_capacity
rZ:__ZN7CSerial9Write_LCREh
sZ:__ZN7CMscdexD2Ev
tZ:__ZN15DOS_Drive_Cache10SetBaseDirEPKc
uZ:__ZN12_GLOBAL__N_116itanium_demangle22AbstractManglingParserINS0_14ManglingParserINS_16DefaultAllocatorEEES3_E4makeINS0_14ConversionExprEJRPNS0_4NodeENS0_9NodeArrayEEEES9_DpOT0_
vZ:__Z14DOS_FileExistsPKc
wZ:__ZN7CMscdex15LoadUnloadMediaEhb
xZ:__ZN15DOS_Drive_Cache9SetResultEPNS_9CFileInfoERPcj
yZ:__Z22DOS_FCBSetRandomRecordtt
zZ:_hash_string
AZ:__ZN9DOS_Shell10ShowPromptEv
BZ:__ZN9BatchFileD2Ev
CZ:__ZN12_GLOBAL__N_116itanium_demangle22AbstractManglingParserINS0_14ManglingParserINS_16DefaultAllocatorEEES3_E4makeINS0_9ArrayTypeEJRPNS0_4NodeERNS0_12NodeOrStringEEEES9_DpOT0_
DZ:__ZL9read_p3c2jj
EZ:__ZN6Config10GetSectionEi
FZ:__ZN11CJAxisEventC2EPKcjjbPS_
GZ:__ZN13Virtual_Drive11GetFileAttrEPcPt
HZ:__ZN12_GLOBAL__N_116itanium_demangle22AbstractManglingParserINS0_14ManglingParserINS_16DefaultAllocatorEEES3_E4makeINS0_12InitListExprEJRPNS0_4NodeENS0_9NodeArrayEEEES9_DpOT0_
IZ:__ZN12_GLOBAL__N_116itanium_demangle22AbstractManglingParserINS0_14ManglingParserINS_16DefaultAllocatorEEES3_E4makeINS0_10VectorTypeEJRPNS0_4NodeERNS_10StringViewEEEES9_DpOT0_
JZ:__ZN12_GLOBAL__N_116itanium_demangle22AbstractManglingParserINS0_14ManglingParserINS_16DefaultAllocatorEEES3_E4makeINS0_10PrefixExprEJRNS_10StringViewERPNS0_4NodeEEEESB_DpOT0_
KZ:__ZN12_GLOBAL__N_116itanium_demangle22AbstractManglingParserINS0_14ManglingParserINS_16DefaultAllocatorEEES3_E4makeINS0_10AbiTagAttrEJRPNS0_4NodeERNS_10StringViewEEEES9_DpOT0_
LZ:__ZN12_GLOBAL__N_116DefaultAllocator8makeNodeINS_16itanium_demangle8QualTypeEJRPNS2_4NodeERNS2_10QualifiersEEEEPT_DpOT0_
MZ:__ZN12MixerChannel3MixEj
NZ:__Z19IO_USEC_write_delayv
OZ:__ZNSt3__218__libcpp_refstringC2EPKc
PZ:__ZNKSt3__25ctypeIcE10do_toupperEPcPKc
QZ:__ZNKSt3__25ctypeIcE10do_tolowerEPcPKc
RZ:__ZN5Adlib4Chip4ReadEv
SZ:__ZN4CMOSD2Ev
TZ:__ZN22VGA_ChainedEGA_Handler6writewEjj
UZ:__ZN19VGA_Changes_Handler6writedEjj
VZ:__ZN12_GLOBAL__N_116DefaultAllocator8makeNodeINS_16itanium_demangle21CtorVtableSpecialNameEJRPNS2_4NodeES6_EEEPT_DpOT0_
WZ:__Z16VGA_DAC_SetEntryjhhh
XZ:__ZNSt3__28numpunctIwEC2Em
YZ:__ZN12_GLOBAL__N_116itanium_demangle22AbstractManglingParserINS0_14ManglingParserINS_16DefaultAllocatorEEES3_E4makeINS0_14IntegerLiteralEJRNS_10StringViewES9_EEEPNS0_4NodeEDpOT0_
ZZ:__ZN12_GLOBAL__N_116itanium_demangle22AbstractManglingParserINS0_14ManglingParserINS_16DefaultAllocatorEEES3_E4makeINS0_12CtorDtorNameEJRPNS0_4NodeEbRiEEES9_DpOT0_
_Z:__ZN12_GLOBAL__N_116itanium_demangle22AbstractManglingParserINS0_14ManglingParserINS_16DefaultAllocatorEEES3_E4makeINS0_10VectorTypeEJRPNS0_4NodeENS_10StringViewEEEES9_DpOT0_
$Z:__Z12CPU_READ_CRXjRj
a_:__ZNKSt3__25ctypeIwE9do_narrowEPKwS3_cPc
b_:__ZN4OPL316operator_advanceEPNS_15operator_structEi
c_:__ZN4OPL216operator_advanceEPNS_15operator_structEi
d_:__ZN5Adlib7Capture6AddBufEhh
e_:__ZN12_GLOBAL__N_116itanium_demangle22AbstractManglingParserINS0_14ManglingParserINS_16DefaultAllocatorEEES3_E4makeINS0_8QualTypeEJRPNS0_4NodeERNS0_10QualifiersEEEES9_DpOT0_
f_:__ZN12_GLOBAL__N_116itanium_demangle22AbstractManglingParserINS0_14ManglingParserINS_16DefaultAllocatorEEES3_E4makeINS0_10BracedExprEJRPNS0_4NodeESA_bEEES9_DpOT0_
g_:__ZN12_GLOBAL__N_116DefaultAllocator8makeNodeINS_16itanium_demangle20NameWithTemplateArgsEJRPNS2_4NodeES6_EEEPT_DpOT0_
h_:__Z12CPU_READ_TRXjRj
i_:__zip_dirent_clone
j_:__ZNSt3__28numpunctIcEC2Em
k_:__ZNKSt3__25ctypeIwE10do_toupperEPwPKw
l_:__ZNKSt3__25ctypeIwE10do_tolowerEPwPKw
m_:__ZN12_GLOBAL__N_116DefaultAllocator8makeNodeINS_16itanium_demangle19PointerToMemberTypeEJRPNS2_4NodeES6_EEEPT_DpOT0_
n_:__ZNSt3__219__libcpp_snprintf_lEPcmP15__locale_structPKcz
o_:__ZN20CDROM_Interface_Fake11GetAudioSubERhS0_S0_R4SMSFS2_
p_:__ZN12_GLOBAL__N_116itanium_demangle22AbstractManglingParserINS0_14ManglingParserINS_16DefaultAllocatorEEES3_E4makeINS0_9DotSuffixEJRPNS0_4NodeENS_10StringViewEEEES9_DpOT0_
q_:__ZN12_GLOBAL__N_116itanium_demangle22AbstractManglingParserINS0_14ManglingParserINS_16DefaultAllocatorEEES3_E4makeINS0_21CtorVtableSpecialNameEJRPNS0_4NodeESA_EEES9_DpOT0_
r_:__ZN12_GLOBAL__N_116itanium_demangle22AbstractManglingParserINS0_14ManglingParserINS_16DefaultAllocatorEEES3_E4makeINS0_13EnclosingExprEJRA12_KcRPNS0_4NodeERA2_S8_EEESC_DpOT0_
s_:__ZN12_GLOBAL__N_116itanium_demangle22AbstractManglingParserINS0_14ManglingParserINS_16DefaultAllocatorEEES3_E4makeINS0_13EnclosingExprEJRA11_KcRPNS0_4NodeERA2_S8_EEESC_DpOT0_
t_:__ZN12_GLOBAL__N_116itanium_demangle22AbstractManglingParserINS0_14ManglingParserINS_16DefaultAllocatorEEES3_E4makeINS0_10DeleteExprEJRPNS0_4NodeERbbEEES9_DpOT0_
u_:__ZN11SERIALPORTSD2Ev
v_:__ZL11InitLUTs_32v
w_:__ZL11InitLUTs_16v
x_:__ZN12_GLOBAL__N_116DefaultAllocator8makeNodeINS_16itanium_demangle18ArraySubscriptExprEJRPNS2_4NodeES6_EEEPT_DpOT0_
y_:__Z13PAGING_Enableb
z_:__Z12DOS_FCBClosett
A_:__ZNK12Section_line12GetPropValueERKNSt3__212basic_stringIcNS0_11char_traitsIcEENS0_9allocatorIcEEEE
B_:__ZN12_GLOBAL__N_116itanium_demangle22AbstractManglingParserINS0_14ManglingParserINS_16DefaultAllocatorEEES3_E4makeINS0_20NameWithTemplateArgsEJRPNS0_4NodeESA_EEES9_DpOT0_
C_:__ZN12_GLOBAL__N_116itanium_demangle22AbstractManglingParserINS0_14ManglingParserINS_16DefaultAllocatorEEES3_E4makeINS0_10MemberExprEJRPNS0_4NodeERA2_KcSA_EEES9_DpOT0_
D_:__ZN10localDrive16GetSystemFilePtrEPKcS1_
E_:__ZN5ValueaSE3Hex
F_:__ZN5ValueC2EPKc
G_:__ZN12_GLOBAL__N_116itanium_demangle22AbstractManglingParserINS0_14ManglingParserINS_16DefaultAllocatorEEES3_E4makeINS0_8CallExprEJRPNS0_4NodeENS0_9NodeArrayEEEES9_DpOT0_
H_:__ZN12_GLOBAL__N_116itanium_demangle22AbstractManglingParserINS0_14ManglingParserINS_16DefaultAllocatorEEES3_E4makeINS0_19PointerToMemberTypeEJRPNS0_4NodeESA_EEES9_DpOT0_
I_:__Z19DOS_SetDefaultDriveh
J_:__ZN22VGA_ChainedEGA_Handler5readwEj
K_:__ZN12_GLOBAL__N_116itanium_demangle8QualTypeC2EPKNS0_4NodeENS0_10QualifiersE
L_:__ZN12_GLOBAL__N_116itanium_demangle22AbstractManglingParserINS0_14ManglingParserINS_16DefaultAllocatorEEES3_E4makeINS0_8CastExprEJRA17_KcRPNS0_4NodeESD_EEESC_DpOT0_
M_:__ZN12_GLOBAL__N_116itanium_demangle22AbstractManglingParserINS0_14ManglingParserINS_16DefaultAllocatorEEES3_E4makeINS0_8CastExprEJRA13_KcRPNS0_4NodeESD_EEESC_DpOT0_
N_:__ZN12_GLOBAL__N_116itanium_demangle22AbstractManglingParserINS0_14ManglingParserINS_16DefaultAllocatorEEES3_E4makeINS0_8CastExprEJRA12_KcRPNS0_4NodeESD_EEESC_DpOT0_
O_:__ZN12_GLOBAL__N_116itanium_demangle22AbstractManglingParserINS0_14ManglingParserINS_16DefaultAllocatorEEES3_E4makeINS0_8CastExprEJRA11_KcRPNS0_4NodeESD_EEESC_DpOT0_
P_:__ZN12_GLOBAL__N_116itanium_demangle22AbstractManglingParserINS0_14ManglingParserINS_16DefaultAllocatorEEES3_E4makeINS0_19SpecialSubstitutionEJNS0_14SpecialSubKindEEEEPNS0_4NodeEDpOT0_
Q_:__ZN12_GLOBAL__N_116itanium_demangle22AbstractManglingParserINS0_14ManglingParserINS_16DefaultAllocatorEEES3_E4makeINS0_18ArraySubscriptExprEJRPNS0_4NodeESA_EEES9_DpOT0_
R_:__ZN12_GLOBAL__N_116itanium_demangle22AbstractManglingParserINS0_14ManglingParserINS_16DefaultAllocatorEEES3_E4makeINS0_12InitListExprEJDnNS0_9NodeArrayEEEEPNS0_4NodeEDpOT0_
S_:__ZN12_GLOBAL__N_116itanium_demangle21StructuredBindingNameC2ENS0_9NodeArrayE
T_:__Z26VGA_ActivateHardwareCursorv
U_:__Z20VGA_DAC_CombineColorhh
V_:__ZN20Prop_multival_remainC2ERKNSt3__212basic_stringIcNS0_11char_traitsIcEENS0_9allocatorIcEEEEN8Property10Changeable5ValueES8_
W_:__ZN12_GLOBAL__N_116itanium_demangle20TemplateArgumentPackC2ENS0_9NodeArrayE
X_:__ZN12_GLOBAL__N_116itanium_demangle20DynamicExceptionSpecC2ENS0_9NodeArrayE
Y_:__ZN12_GLOBAL__N_116itanium_demangle16FloatLiteralImplIfEC2ENS_10StringViewE
Z_:__ZN12_GLOBAL__N_116itanium_demangle16FloatLiteralImplIeEC2ENS_10StringViewE
__:__ZN12_GLOBAL__N_116itanium_demangle16FloatLiteralImplIdEC2ENS_10StringViewE
$_:__Z18IO_USEC_read_delayv
a$:_arg_n_272
b$:__ZNSt3__24listIP8PropertyNS_9allocatorIS2_EEE9push_backERKS2_
c$:__ZN7CMscdex14ReadSectorsMSFEhbjtj
d$:__ZN5DBOPL8Operator7Write80EPKNS_4ChipEh
e$:__ZN19VGA_Changes_Handler5readdEj
f$:__ZN14PIC_Controller7set_imrEh
g$:__ZN12_GLOBAL__N_116itanium_demangle22AbstractManglingParserINS0_14ManglingParserINS_16DefaultAllocatorEEES3_E4makeINS0_20PostfixQualifiedTypeEJRPNS0_4NodeERA11_KcEEES9_DpOT0_
h$:__ZN12_GLOBAL__N_116itanium_demangle15PixelVectorTypeC2ENS0_12NodeOrStringE
i$:__ZL11Mouse_Resetv
j$:__Z16SortByDirNameRevRKPN15DOS_Drive_Cache9CFileInfoES3_
k$:__ZNSt3__24listIP7SectionNS_9allocatorIS2_EEE9push_backERKS2_
l$:__ZN16VGA_LIN4_Handler5readwEj
m$:__ZN13CKeyBindGroup16CreateConfigBindERPc
n$:__ZN12_GLOBAL__N_116DefaultAllocator8makeNodeINS_16itanium_demangle27ExpandedSpecialSubstitutionEJRNS2_14SpecialSubKindEEEEPT_DpOT0_
o$:__ZL11FPU_FST_I64j
p$:__Z15doHeapOperationv
q$:__ZN12_GLOBAL__N_116itanium_demangle22AbstractManglingParserINS0_14ManglingParserINS_16DefaultAllocatorEEES3_E9consumeIfEc
r$:__ZN12_GLOBAL__N_116itanium_demangle22AbstractManglingParserINS0_14ManglingParserINS_16DefaultAllocatorEEES3_E4makeINS0_20PostfixQualifiedTypeEJRPNS0_4NodeERA9_KcEEES9_DpOT0_
s$:_memmove
t$:__ZNSt3__24listIP5CBindNS_9allocatorIS2_EEE9push_backERKS2_
u$:__ZNSt3__214basic_ifstreamIcNS_11char_traitsIcEEED2Ev
v$:__ZN8fatDrive12getEntryNameEPcS0_
w$:__ZN12_GLOBAL__N_116itanium_demangle15UnnamedTypeNameC2ENS_10StringViewE
x$:__ZN12_GLOBAL__N_116DefaultAllocator8makeNodeINS_16itanium_demangle13QualifiedNameEJRPNS2_4NodeES6_EEEPT_DpOT0_
y$:__ZN12DriveManager15InitializeDriveEi
z$:__ZL13INT10_InitVGAv
A$:__Z13SortByDirNameRKPN15DOS_Drive_Cache9CFileInfoES3_
B$:__Z13CPU_WRITE_TRXjj
C$:__ZN22VGA_LFBChanges_Handler6writedEjj
D$:__ZN12_GLOBAL__N_116itanium_demangle22AbstractManglingParserINS0_14ManglingParserINS_16DefaultAllocatorEEES3_E4makeINS0_11SpecialNameEJRA34_KcRPNS0_4NodeEEEESC_DpOT0_
E$:__ZN12_GLOBAL__N_116itanium_demangle13ReferenceTypeC2EPKNS0_4NodeENS0_13ReferenceKindE
F$:__ZL17DISNEY_PlayStereojPhS_
G$:__ZN12_GLOBAL__N_116itanium_demangle13FunctionParamC2ENS_10StringViewE
H$:__Z28INT10_SetupRomMemoryChecksumv
I$:__Z19RestoreVgaRegistersv
J$:_rand
K$:__ZN5Adlib7Capture8ClearBufEv
L$:__ZN15keyboard_layoutC2Ev
M$:__ZN12_GLOBAL__N_116itanium_demangle22AbstractManglingParserINS0_14ManglingParserINS_16DefaultAllocatorEEES3_E4makeINS0_21StructuredBindingNameEJNS0_9NodeArrayEEEEPNS0_4NodeEDpOT0_
N$:__ZN12_GLOBAL__N_116itanium_demangle22AbstractManglingParserINS0_14ManglingParserINS_16DefaultAllocatorEEES3_E4makeINS0_20TemplateArgumentPackEJRNS0_9NodeArrayEEEEPNS0_4NodeEDpOT0_
O$:__ZN12_GLOBAL__N_116itanium_demangle22AbstractManglingParserINS0_14ManglingParserINS_16DefaultAllocatorEEES3_E4makeINS0_16FloatLiteralImplIfEEJRNS_10StringViewEEEEPNS0_4NodeEDpOT0_
P$:__ZN12_GLOBAL__N_116itanium_demangle22AbstractManglingParserINS0_14ManglingParserINS_16DefaultAllocatorEEES3_E4makeINS0_16FloatLiteralImplIeEEJRNS_10StringViewEEEEPNS0_4NodeEDpOT0_
Q$:__ZN12_GLOBAL__N_116itanium_demangle22AbstractManglingParserINS0_14ManglingParserINS_16DefaultAllocatorEEES3_E4makeINS0_16FloatLiteralImplIdEEJRNS_10StringViewEEEEPNS0_4NodeEDpOT0_
R$:__ZN12_GLOBAL__N_116itanium_demangle22AbstractManglingParserINS0_14ManglingParserINS_16DefaultAllocatorEEES3_E4makeINS0_11PostfixExprEJRPNS0_4NodeERA3_KcEEES9_DpOT0_
S$:__Z27RestoreCursorBackgroundTextv
T$:__Z13RENDER_SetPalhhhh
U$:__ZN12_GLOBAL__N_116itanium_demangle13NodeArrayNodeC2ENS0_9NodeArrayE
V$:__ZN12_GLOBAL__N_116itanium_demangle12TemplateArgsC2ENS0_9NodeArrayE
W$:__ZN7CMscdex12IsValidDriveEt
X$:__ZN12_GLOBAL__N_116itanium_demangle22AbstractManglingParserINS0_14ManglingParserINS_16DefaultAllocatorEEES3_E4makeINS0_20DynamicExceptionSpecEJNS0_9NodeArrayEEEEPNS0_4NodeEDpOT0_
Y$:__ZN12_GLOBAL__N_116itanium_demangle22AbstractManglingParserINS0_14ManglingParserINS_16DefaultAllocatorEEES3_E4makeINS0_13QualifiedNameEJRPNS0_4NodeESA_EEES9_DpOT0_
Z$:__ZN12_GLOBAL__N_116itanium_demangle12EnableIfAttrC2ENS0_9NodeArrayE
_$:__Z16MIXER_DelChannelP12MixerChannel
$$:__ZNSt3__213basic_filebufIcNS_11char_traitsIcEEED2Ev
a0:__Z10GFX_GetRGBhhh
b0:_allocate
c0:__ZN7CMscdex13GetDriverInfoEj
d0:__ZN12_GLOBAL__N_116DefaultAllocator8makeNodeINS_16itanium_demangle10NestedNameEJRPNS2_4NodeES6_EEEPT_DpOT0_
e0:_zip_source_tell
f0:__ZL10PIT0_Eventj
g0:__ZN4OPL315enable_operatorEjPNS_15operator_structEj
h0:__ZN4OPL215enable_operatorEjPNS_15operator_structEj
i0:__ZN12_GLOBAL__N_116itanium_demangle8NameTypeC2ENS_10StringViewE
j0:_zip_source_begin_write_cloning
k0:__ZN13CKeyBindGroup13CreateKeyBindEi
l0:__ZL11DSP_DoReseth
m0:__ZNSt3__219__libcpp_asprintf_lEPPcP15__locale_structPKcz
n0:__ZNK10__cxxabiv117__class_type_info27has_unambiguous_public_baseEPNS_19__dynamic_cast_infoEPvi
o0:__ZN7Program11GetEnvCountEv
p0:__ZN12_GLOBAL__N_116itanium_demangle22AbstractManglingParserINS0_14ManglingParserINS_16DefaultAllocatorEEES3_E4makeINS0_15UnnamedTypeNameEJRNS_10StringViewEEEEPNS0_4NodeEDpOT0_
q0:__ZN12_GLOBAL__N_116itanium_demangle22AbstractManglingParserINS0_14ManglingParserINS_16DefaultAllocatorEEES3_E4makeINS0_15PixelVectorTypeEJRNS_10StringViewEEEEPNS0_4NodeEDpOT0_
r0:__ZN12_GLOBAL__N_116itanium_demangle22AbstractManglingParserINS0_14ManglingParserINS_16DefaultAllocatorEEES3_E4makeINS0_10VectorTypeEJRPNS0_4NodeESA_EEES9_DpOT0_
s0:__ZN12_GLOBAL__N_116itanium_demangle22AbstractManglingParserINS0_14ManglingParserINS_16DefaultAllocatorEEES3_E4makeINS0_10NestedNameEJRPNS0_4NodeESA_EEES9_DpOT0_
t0:__ZN12_GLOBAL__N_116DefaultAllocator8makeNodeINS_16itanium_demangle9LocalNameEJRPNS2_4NodeES6_EEEPT_DpOT0_
u0:__Z14CALLBACK_SetupjPFjvEjjPKc
v0:_sbrk
w0:__ZNSt3__214__split_bufferIPNS_6locale5facetERNS_15__sso_allocatorIS3_Lm28EEEE18__construct_at_endEm
x0:__ZN10device_CONC2Ev
y0:__zip_buffer_get
z0:__ZN9localFile4SeekEPjj
A0:__ZL11FPU_FRNDINTv
B0:__Z13GetDMAChannelh
C0:_remove
D0:_opendir
E0:__ZZN6Events20registerPushSDLEventEvEN3__38__invokeERKNSt3__212basic_stringIcNS1_11char_traitsIcEENS1_9allocatorIcEEEEPKcPFvS9_RK10jsonstreamE
F0:__ZNKSt3__27collateIwE12do_transformEPKwS3_
G0:__ZNKSt3__27collateIcE12do_transformEPKcS3_
H0:__ZN8isoDrive10FileExistsEPKc
I0:__ZN7Section18AddDestroyFunctionEPFvPS_Eb
J0:__ZN7DOS_FCB7GetNameEPc
K0:__ZN22VGA_LFBChanges_Handler5readdEj
L0:__ZN12_GLOBAL__N_116itanium_demangle15ConditionalExprC2EPKNS0_4NodeES4_S4_
M0:__ZN12_GLOBAL__N_116itanium_demangle15BracedRangeExprC2EPKNS0_4NodeES4_S4_
N0:__ZN10device_NUL4ReadEPhPt
O0:__ZL13multiplex_xmsv
P0:__ZNSt3__218__libcpp_refstringD2Ev
Q0:__ZNSt3__217__libcpp_sscanf_lEPKcP15__locale_structS1_z
R0:__ZN4OPL316operator_sustainEPNS_15operator_structE
S0:__ZN4OPL216operator_sustainEPNS_15operator_structE
T0:__ZN12_GLOBAL__N_116itanium_demangle22AbstractManglingParserINS0_14ManglingParserINS_16DefaultAllocatorEEES3_E4makeINS0_9LocalNameEJRPNS0_4NodeESA_EEES9_DpOT0_
U0:__ZN12_GLOBAL__N_116itanium_demangle22AbstractManglingParserINS0_14ManglingParserINS_16DefaultAllocatorEEES3_E4makeINS0_22ParameterPackExpansionEJRPNS0_4NodeEEEES9_DpOT0_
V0:__ZN12_GLOBAL__N_116itanium_demangle22AbstractManglingParserINS0_14ManglingParserINS_16DefaultAllocatorEEES3_E4makeINS0_22ConversionOperatorTypeEJRPNS0_4NodeEEEES9_DpOT0_
W0:__ZN12_GLOBAL__N_116itanium_demangle22AbstractManglingParserINS0_14ManglingParserINS_16DefaultAllocatorEEES3_E4makeINS0_13FunctionParamEJRNS_10StringViewEEEEPNS0_4NodeEDpOT0_
X0:__ZN12_GLOBAL__N_116itanium_demangle22AbstractManglingParserINS0_14ManglingParserINS_16DefaultAllocatorEEES3_E4makeINS0_11SpecialNameEJRA41_KcRPNS0_4NodeEEEESC_DpOT0_
Y0:__ZN12_GLOBAL__N_116itanium_demangle22AbstractManglingParserINS0_14ManglingParserINS_16DefaultAllocatorEEES3_E4makeINS0_11SpecialNameEJRA27_KcRPNS0_4NodeEEEESC_DpOT0_
Z0:__ZN12_GLOBAL__N_116itanium_demangle22AbstractManglingParserINS0_14ManglingParserINS_16DefaultAllocatorEEES3_E4makeINS0_11SpecialNameEJRA25_KcRPNS0_4NodeEEEESC_DpOT0_
_0:__ZN12_GLOBAL__N_116itanium_demangle22AbstractManglingParserINS0_14ManglingParserINS_16DefaultAllocatorEEES3_E4makeINS0_11SpecialNameEJRA22_KcRPNS0_4NodeEEEESC_DpOT0_
$0:__ZN12_GLOBAL__N_116itanium_demangle22AbstractManglingParserINS0_14ManglingParserINS_16DefaultAllocatorEEES3_E4makeINS0_11SpecialNameEJRA20_KcRPNS0_4NodeEEEESC_DpOT0_
a1:__ZN12_GLOBAL__N_116itanium_demangle22AbstractManglingParserINS0_14ManglingParserINS_16DefaultAllocatorEEES3_E4makeINS0_11SpecialNameEJRA19_KcRPNS0_4NodeEEEESC_DpOT0_
b1:__ZN12_GLOBAL__N_116itanium_demangle22AbstractManglingParserINS0_14ManglingParserINS_16DefaultAllocatorEEES3_E4makeINS0_11SpecialNameEJRA18_KcRPNS0_4NodeEEEESC_DpOT0_
c1:__ZN12_GLOBAL__N_116itanium_demangle22AbstractManglingParserINS0_14ManglingParserINS_16DefaultAllocatorEEES3_E4makeINS0_11SpecialNameEJRA14_KcRPNS0_4NodeEEEESC_DpOT0_
d1:__ZN12_GLOBAL__N_116itanium_demangle22AbstractManglingParserINS0_14ManglingParserINS_16DefaultAllocatorEEES3_E4makeINS0_11SpecialNameEJRA12_KcRPNS0_4NodeEEEESC_DpOT0_
e1:__ZN12_GLOBAL__N_116DefaultAllocator8makeNodeINS_16itanium_demangle19SpecialSubstitutionEJNS2_14SpecialSubKindEEEEPT_DpOT0_
f1:__ZN12CSerialDummyC2EjP11CommandLine
g1:__Z10CPU_PopSeg8SegNamesb
h1:___cxa_can_catch
i1:__ZN5DBOPL8Operator7Write60EPKNS_4ChipEh
j1:__ZN12_GLOBAL__N_116itanium_demangle22AbstractManglingParserINS0_14ManglingParserINS_16DefaultAllocatorEEES3_E4makeINS0_11SpecialNameEJRA9_KcRPNS0_4NodeEEEESC_DpOT0_
k1:__ZN10CJAxisBindC2EPNSt3__24listIP5CBindNS0_9allocatorIS3_EEEEP10CBindGroupjb
l1:__ZN12_GLOBAL__N_116itanium_demangle12CtorDtorNameC2EPKNS0_4NodeEbi
m1:__ZN12_GLOBAL__N_116itanium_demangle10DeleteExprC2EPNS0_4NodeEbb
n1:__ZN12_GLOBAL__N_116itanium_demangle10BracedExprC2EPKNS0_4NodeES4_b
o1:__ZL12TEXT_CopyRowhhhhj
p1:__ZN8isoDrive7TestDirEPc
q1:__ZN7DOS_FCBC2Ettb
r1:__ZN7CMscdex11ResumeAudioEh
s1:__ZN12_GLOBAL__N_116itanium_demangle22AbstractManglingParserINS0_14ManglingParserINS_16DefaultAllocatorEEES3_E4makeINS0_13ParameterPackEJNS0_9NodeArrayEEEEPNS0_4NodeEDpOT0_
t1:__ZN12_GLOBAL__N_116itanium_demangle22AbstractManglingParserINS0_14ManglingParserINS_16DefaultAllocatorEEES3_E4makeINS0_13NodeArrayNodeEJNS0_9NodeArrayEEEEPNS0_4NodeEDpOT0_
u1:__ZN7Section15AddInitFunctionEPFvPS_Eb
v1:__ZN7DOS_FCB9SetResultEjtth
w1:__ZN7CMscdex17SendDriverRequestEtj
x1:__ZN15DOS_Drive_Cache12RemoveSpacesEPc
y1:__ZN15CStickBindGroup16CreateButtonBindEj
z1:__ZN12_GLOBAL__N_116itanium_demangle12NodeOrStringC2ENS_10StringViewE
A1:__ZL16SN76496_set_gaini
B1:__Z16XMS_UnlockMemoryj
C1:__ZN12_GLOBAL__N_116itanium_demangle22AbstractManglingParserINS0_14ManglingParserINS_16DefaultAllocatorEEES3_E4makeINS0_19SizeofParamPackExprEJRPNS0_4NodeEEEES9_DpOT0_
D1:__ZN12_GLOBAL__N_116itanium_demangle22AbstractManglingParserINS0_14ManglingParserINS_16DefaultAllocatorEEES3_E4makeINS0_19GlobalQualifiedNameEJRPNS0_4NodeEEEES9_DpOT0_
E1:__ZN12_GLOBAL__N_116itanium_demangle22AbstractManglingParserINS0_14ManglingParserINS_16DefaultAllocatorEEES3_E4makeINS0_12TemplateArgsEJNS0_9NodeArrayEEEEPNS0_4NodeEDpOT0_
F1:__ZN12_GLOBAL__N_116itanium_demangle22AbstractManglingParserINS0_14ManglingParserINS_16DefaultAllocatorEEES3_E4makeINS0_12EnableIfAttrEJNS0_9NodeArrayEEEEPNS0_4NodeEDpOT0_
G1:_vsscanf
H1:__ZNSt3__26vectorIPNS_6locale5facetENS_15__sso_allocatorIS3_Lm28EEEE18__construct_at_endEm
I1:__ZN5DBOPL8Operator5KeyOnEh
J1:__ZN12Section_propC2ERKNSt3__212basic_stringIcNS0_11char_traitsIcEENS0_9allocatorIcEEEE
K1:__zip_memmem
L1:__ZN12_GLOBAL__N_116itanium_demangle22AbstractManglingParserINS0_14ManglingParserINS_16DefaultAllocatorEEES3_E4makeINS0_24ForwardTemplateReferenceEJRmEEEPNS0_4NodeEDpOT0_
M1:__ZL18doGFX_CaptureMousev
N1:__ZL16VGA_ProcessSplitv
O1:__Z14DOS_SetupFilesv
P1:__ZN10CBindGroup18DeactivateBindListEPNSt3__24listIP5CBindNS0_9allocatorIS3_EEEEb
Q1:__ZZN6Events18registerScreenshotEvEN3__28__invokeERKNSt3__212basic_stringIcNS1_11char_traitsIcEENS1_9allocatorIcEEEEPKcPFvS9_RK10jsonstreamE
R1:__ZL12DSP_ReadDatav
S1:__Z14CALLBACK_SetupjPFjvEjPKc
T1:__ZN12_GLOBAL__N_116itanium_demangle22AbstractManglingParserINS0_14ManglingParserINS_16DefaultAllocatorEEES3_E4makeINS0_8NameTypeEJRNS_10StringViewEEEEPNS0_4NodeEDpOT0_
U1:__ZN12_GLOBAL__N_116itanium_demangle22AbstractManglingParserINS0_14ManglingParserINS_16DefaultAllocatorEEES3_E4makeINS0_16StdQualifiedNameEJRPNS0_4NodeEEEES9_DpOT0_
V1:__ZN12_GLOBAL__N_116DefaultAllocator8makeNodeINS_16itanium_demangle22ParameterPackExpansionEJRPNS2_4NodeEEEEPT_DpOT0_
W1:__ZN12_GLOBAL__N_116DefaultAllocator8makeNodeINS_16itanium_demangle22ConversionOperatorTypeEJRPNS2_4NodeEEEEPT_DpOT0_
X1:__ZL24RENDER_ClearCacheHandlerPKv
Y1:__ZL10FPU_FRSTORj
Z1:__Z14PAGING_MapPagejj
_1:__ZN7CMscdex12ReplaceDriveEP15CDROM_Interfaceh
$1:__ZN10localDrive14AllocationInfoEPtPhS0_S0_
a2:__ZN5INTRO12DisplayMountEv
b2:__ZN12_GLOBAL__N_116itanium_demangle22AbstractManglingParserINS0_14ManglingParserINS_16DefaultAllocatorEEES3_E4makeINS0_15LiteralOperatorEJRPNS0_4NodeEEEES9_DpOT0_
c2:__Z24INT10_VideoState_GetSizej
d2:_zip_error_to_data
e2:__zip_buffer_new_from_source
f2:__zip_allocate_new
g2:__ZL13DOS_27Handlerv
h2:__zip_buffer_left
i2:__Z12VGA_SetupGFXv
j2:_zip_source_file_create
k2:___unlist_locked_file
l2:__Z8DMA_InitP7Section
m2:_fmt_x
n2:__ZN6MEMORYD2Ev
o2:__ZN12_GLOBAL__N_116DefaultAllocator8makeNodeINS_16itanium_demangle19SizeofParamPackExprEJRPNS2_4NodeEEEEPT_DpOT0_
p2:__Z12VGA_SetupSEQv
q2:_ftruncate
r2:__ZZN6Events12registerExitEvEN3__18__invokeERKNSt3__212basic_stringIcNS1_11char_traitsIcEENS1_9allocatorIcEEEEPKcPFvS9_RK10jsonstreamE
s2:__ZN21InitPageUserROHandler6writedEjj
t2:__ZN12_GLOBAL__N_116DefaultAllocator8makeNodeINS_16itanium_demangle19GlobalQualifiedNameEJRPNS2_4NodeEEEEPT_DpOT0_
u2:__ZL23AddJButtonButton_hiddenjj
v2:_zip_source_write
w2:_getint
x2:__zip_string_equal
y2:__ZNK12_GLOBAL__N_116itanium_demangle20NameWithTemplateArgs9printLeftERNS_12OutputStreamE
z2:__ZN7SectionD2Ev
A2:__ZN3DMAD2Ev
B2:__ZN12_GLOBAL__N_116itanium_demangle22AbstractManglingParserINS0_14ManglingParserINS_16DefaultAllocatorEEES3_E4makeINS0_12NoexceptSpecEJRPNS0_4NodeEEEES9_DpOT0_
C2:__ZL13INT4B_Handlerv
D2:___ftello
E2:__ZL24Mouse_SetMickeyPixelRatess
F2:__Z16RENDER_EndUpdateb
G2:__ZNK12_GLOBAL__N_116itanium_demangle13ParameterPack23initializePackExpansionERNS_12OutputStreamE
H2:__ZN5Adlib6Module8CtrlReadEv
I2:__ZN12_GLOBAL__N_116itanium_demangle22AbstractManglingParserINS0_14ManglingParserINS_16DefaultAllocatorEEES3_E4makeINS0_11PointerTypeEJRPNS0_4NodeEEEES9_DpOT0_
J2:__ZNSt3__215basic_stringbufIcNS_11char_traitsIcEENS_9allocatorIcEEE7seekposENS_4fposI11__mbstate_tEEj
K2:__ZN5Value4copyERKS_
L2:__ZN12_GLOBAL__N_116itanium_demangle19PointerToMemberTypeC2EPKNS0_4NodeES4_
M2:__ZN11GUSChannels13WriteWaveCtrlEh
N2:__ZN11GUSChannels13WriteRampCtrlEh
O2:___memrchr
P2:__ZNK12_GLOBAL__N_116itanium_demangle8QualType9printLeftERNS_12OutputStreamE
Q2:__ZNK12_GLOBAL__N_116itanium_demangle21StructuredBindingName9printLeftERNS_12OutputStreamE
R2:__Z14TS_Get_AddressRjS_S_
S2:__ZN19VGA_Changes_Handler6writewEjj
T2:__ZN12_GLOBAL__N_116DefaultAllocator8makeNodeINS_16itanium_demangle16StdQualifiedNameEJRPNS2_4NodeEEEEPT_DpOT0_
U2:__ZL17GetDosDriveNumberh
V2:__Z15PIC_ActivateIRQj
W2:__Z11MSCDEX_InitP7Section
X2:__ZN12_GLOBAL__N_116DefaultAllocator8makeNodeINS_16itanium_demangle15LiteralOperatorEJRPNS2_4NodeEEEEPT_DpOT0_
Y2:__ZN10DmaChannel17Register_CallbackEPFvPS_8DMAEventE
Z2:__ZL18change_action_textPKch
_2:__Z15XGA_DrawWaitSubjj
$2:__ZN5Adlib5Timer5StartERKdi
a3:__ZN13Virtual_DriveC2Ev
b3:__ZL13CTMIXER_Resetv
c3:__ZN12_GLOBAL__N_116itanium_demangle22AbstractManglingParserINS0_14ManglingParserINS_16DefaultAllocatorEEES3_E4makeINS0_9ThrowExprEJRPNS0_4NodeEEEES9_DpOT0_
d3:__ZL9FPU_FINITv
e3:__ZN12_GLOBAL__N_120BumpPointerAllocator5resetEv
f3:__ZN12_GLOBAL__N_116DefaultAllocator8makeNodeINS_16itanium_demangle24ForwardTemplateReferenceEJRmEEEPT_DpOT0_
g3:__Z14VFILE_RegisterPKcPhj
h3:__Z14SB_Get_AddressRjS_S_
i3:__zip_hash_reserve_capacity
j3:__ZNSt3__215basic_streambufIcNS_11char_traitsIcEEE7seekoffExNS_8ios_base7seekdirEj
k3:__ZN4OPL315change_waveformEjPNS_15operator_structE
l3:__ZN12_GLOBAL__N_116itanium_demangle22AbstractManglingParserINS0_14ManglingParserINS_16DefaultAllocatorEEES3_E4makeINS0_8DtorNameEJRPNS0_4NodeEEEES9_DpOT0_
m3:__tr_init
n3:__ZN15DOS_Drive_CacheD2Ev
o3:__ZN12CSerialDummy16handleUpperEventEt
p3:__ZL10RawMidiAddh
q3:__Z10mem_writebjh
r3:__ZN8fatDrive17getFirstFreeClustEv
s3:__ZN12_GLOBAL__N_116itanium_demangle22AbstractManglingParserINS0_14ManglingParserINS_16DefaultAllocatorEEES3_E4makeINS0_8NameTypeEJRA18_KcEEEPNS0_4NodeEDpOT0_
t3:__ZN12_GLOBAL__N_116itanium_demangle22AbstractManglingParserINS0_14ManglingParserINS_16DefaultAllocatorEEES3_E4makeINS0_8NameTypeEJRA15_KcEEEPNS0_4NodeEDpOT0_
u3:__ZN12_GLOBAL__N_116itanium_demangle22AbstractManglingParserINS0_14ManglingParserINS_16DefaultAllocatorEEES3_E4makeINS0_8NameTypeEJRA14_KcEEEPNS0_4NodeEDpOT0_
v3:__ZN12_GLOBAL__N_116itanium_demangle22AbstractManglingParserINS0_14ManglingParserINS_16DefaultAllocatorEEES3_E4makeINS0_8NameTypeEJRA13_KcEEEPNS0_4NodeEDpOT0_
w3:__ZN12_GLOBAL__N_116itanium_demangle22AbstractManglingParserINS0_14ManglingParserINS_16DefaultAllocatorEEES3_E4makeINS0_8NameTypeEJRA12_KcEEEPNS0_4NodeEDpOT0_
x3:__ZN12_GLOBAL__N_116itanium_demangle22AbstractManglingParserINS0_14ManglingParserINS_16DefaultAllocatorEEES3_E4makeINS0_8NameTypeEJRA11_KcEEEPNS0_4NodeEDpOT0_
y3:__ZN12_GLOBAL__N_116itanium_demangle22AbstractManglingParserINS0_14ManglingParserINS_16DefaultAllocatorEEES3_E4makeINS0_8NameTypeEJRA10_KcEEEPNS0_4NodeEDpOT0_
z3:__ZN12_GLOBAL__N_116DefaultAllocator8makeNodeINS_16itanium_demangle12NoexceptSpecEJRPNS2_4NodeEEEEPT_DpOT0_
A3:__ZL8CGAModelb
B3:__ZN10device_NUL5WriteEPhPt
C3:__ZL12GetResult_32jjjj
D3:__ZN12_GLOBAL__N_120BumpPointerAllocator15allocateMassiveEm
E3:__ZN12_GLOBAL__N_116itanium_demangle22AbstractManglingParserINS0_14ManglingParserINS_16DefaultAllocatorEEES3_E4makeINS0_8NameTypeEJRA9_KcEEEPNS0_4NodeEDpOT0_
F3:__ZN12_GLOBAL__N_116itanium_demangle22AbstractManglingParserINS0_14ManglingParserINS_16DefaultAllocatorEEES3_E4makeINS0_8NameTypeEJRA6_KcEEEPNS0_4NodeEDpOT0_
G3:__ZN12_GLOBAL__N_116itanium_demangle22AbstractManglingParserINS0_14ManglingParserINS_16DefaultAllocatorEEES3_E4makeINS0_8NameTypeEJRA5_KcEEEPNS0_4NodeEDpOT0_
H3:__ZN12_GLOBAL__N_116itanium_demangle22AbstractManglingParserINS0_14ManglingParserINS_16DefaultAllocatorEEES3_E4makeINS0_8NameTypeEJRA4_KcEEEPNS0_4NodeEDpOT0_
I3:__ZN12_GLOBAL__N_116DefaultAllocator8makeNodeINS_16itanium_demangle11PointerTypeEJRPNS2_4NodeEEEEPT_DpOT0_
J3:__ZL17DecreaseFrameSkipb
K3:__ZN7CSerial16ByteTransmittingEv
L3:__ZN6PAGINGC2EP7Section
M3:__ZN12_GLOBAL__N_116itanium_demangle14ManglingParserINS_16DefaultAllocatorEECI2NS0_22AbstractManglingParserIS3_S2_EEEPKcS6_
N3:__ZN10device_NUL4SeekEPjj
O3:__ZN9DOS_ShellD2Ev
P3:__ZN15DOS_Drive_Cache5ClearEv
Q3:__Z9mem_readbj
R3:__ZSt9terminatev
S3:__ZNSt3__213__vector_baseIN21CDROM_Interface_Image5TrackENS_9allocatorIS2_EEED2Ev
T3:__ZN7ProgramD2Ev
U3:__ZN4OPL316disable_operatorEPNS_15operator_structEj
V3:__ZN4OPL216disable_operatorEPNS_15operator_structEj
W3:__ZNSt3__215basic_streambufIcNS_11char_traitsIcEEEC2Ev
X3:__ZNSt3__213__vector_baseIPN15DOS_Drive_Cache9CFileInfoENS_9allocatorIS3_EEED2Ev
Y3:__ZL17IncreaseFrameSkipb
Z3:__Z11ConvDecWordPc
_3:__ZN6CEvent7AddBindEP5CBind
$3:__ZN5DBOPLL14EnvelopeSelectEhRhS0_
a4:__ZN13Prop_multivalD2Ev
b4:__ZL17DSP_RaiseIRQEventj
c4:__ZL14DSP_SetSpeakerb
d4:__Z23Mouse_ChangePS2Callbacktt
e4:__Z14PAGING_InitTLBv
f4:___fseeko
g4:__ZN6DISNEYD2Ev
h4:__ZN24VGA_UnchainedEGA_Handler6writebEjj
i4:__ZN15DOS_Drive_Cache10EmptyCacheEv
j4:__ZN12_GLOBAL__N_116DefaultAllocator8makeNodeINS_16itanium_demangle9ThrowExprEJRPNS2_4NodeEEEEPT_DpOT0_
k4:__Z18PAGING_UnlinkPagesjj
l4:__Z11SERIAL_InitP7Section
m4:__ZNK12_GLOBAL__N_110StringView9dropFrontEm
n4:__ZL14DISNEY_disablej
o4:_zip_source_begin_write
p4:__ZN9imageDisk11Read_SectorEjjjPv
q4:__ZN7CSerial8Read_MCREv
r4:__ZN5DBOPL8Operator6KeyOffEh
s4:__ZN22VGA_LFBChanges_Handler6writewEjj
t4:__ZN12_GLOBAL__N_116itanium_demangle21CtorVtableSpecialNameC2EPKNS0_4NodeES4_
u4:__ZN12_GLOBAL__N_116DefaultAllocator8makeNodeINS_16itanium_demangle8DtorNameEJRPNS2_4NodeEEEEPT_DpOT0_
v4:__ZL11StripSpacesRPcc
w4:__Z17MAPPER_CheckEventP9SDL_Event
x4:__ZNKSt3__25ctypeIcE9do_narrowEPKcS3_cPc
y4:__ZN7CSerial8Read_ISREv
z4:__ZN21CDROM_Interface_Image12HasDataTrackEv
A4:__ZN12_GLOBAL__N_116itanium_demangle22AbstractManglingParserINS0_14ManglingParserINS_16DefaultAllocatorEEES3_E4lookEj
B4:__ZL9MIXER_Mixv
C4:_sn_write
D4:__ZNSt3__25ctypeIcEC2EPKtbm
E4:__ZN9imageDisk12Write_SectorEjjjPv
F4:__ZN12_GLOBAL__N_116itanium_demangle22AbstractManglingParserINS0_14ManglingParserINS_16DefaultAllocatorEEES3_E7consumeEv
G4:__ZN12_GLOBAL__N_116itanium_demangle22AbstractManglingParserINS0_14ManglingParserINS_16DefaultAllocatorEEES3_E4makeINS0_8BoolExprEJiEEEPNS0_4NodeEDpOT0_
H4:__ZN12_GLOBAL__N_116itanium_demangle20NameWithTemplateArgsC2EPNS0_4NodeES3_
I4:__ZNK12_GLOBAL__N_116itanium_demangle4Node11hasFunctionERNS_12OutputStreamE
J4:__ZN12_GLOBAL__N_116itanium_demangle18ArraySubscriptExprC2EPKNS0_4NodeES4_
K4:__Z24CPU_Core_Normal_Trap_Runv
L4:__ZNSt3__28ios_baseD2Ev
M4:__ZN12_GLOBAL__N_116itanium_demangle24ForwardTemplateReferenceC2Em
N4:__ZN12_GLOBAL__N_116itanium_demangle22AbstractManglingParserINS0_14ManglingParserINS_16DefaultAllocatorEEES3_E4makeINS0_8NameTypeEJRA22_KcEEEPNS0_4NodeEDpOT0_
O4:__ZN12_GLOBAL__N_116itanium_demangle22AbstractManglingParserINS0_14ManglingParserINS_16DefaultAllocatorEEES3_E4makeINS0_8NameTypeEJRA19_KcEEEPNS0_4NodeEDpOT0_
P4:__ZN12_GLOBAL__N_116itanium_demangle22AbstractManglingParserINS0_14ManglingParserINS_16DefaultAllocatorEEES3_E4makeINS0_8NameTypeEJRA16_KcEEEPNS0_4NodeEDpOT0_
Q4:__ZN5DBOPL4Chip9WriteAddrEjh
R4:__ZN24VGA_UnchainedVGA_Handler6writebEjj
S4:__ZN12Virtual_FileC2EPhj
T4:__Z18MAPPER_LosingFocusv
U4:__Z16DOS_SetupDevicesv
V4:__zip_set_open_error
W4:__ZNKSt3__27collateIwE7do_hashEPKwS3_
X4:__ZN9imageDisk12Get_GeometryEPjS0_S0_S0_
Y4:__ZN12_GLOBAL__N_116itanium_demangle22AbstractManglingParserINS0_14ManglingParserINS_16DefaultAllocatorEEES3_E4makeINS0_8NameTypeEJRA8_KcEEEPNS0_4NodeEDpOT0_
Z4:__ZN12_GLOBAL__N_116itanium_demangle22AbstractManglingParserINS0_14ManglingParserINS_16DefaultAllocatorEEES3_E4makeINS0_8NameTypeEJRA7_KcEEEPNS0_4NodeEDpOT0_
_4:__ZL10EA_32_87_nv
$4:__ZL10EA_32_86_nv
a5:__ZL10EA_32_85_nv
b5:__ZL10EA_32_83_nv
c5:__ZL10EA_32_82_nv
d5:__ZL10EA_32_81_nv
e5:__ZL10EA_32_80_nv
f5:__Z18CDROM_GetMountTypePci
g5:__ZNSt3__212basic_stringIcNS_11char_traitsIcEENS_9allocatorIcEEE7replaceEmmPKc
h5:__ZNKSt3__27collateIcE7do_hashEPKcS3_
i5:__ZNK12_GLOBAL__N_116itanium_demangle4Node8hasArrayERNS_12OutputStreamE
j5:__ZL9FPU_FSAVEj
k5:__ZL7FPU_FSTjj
l5:__ZN19VGA_Changes_Handler5readwEj
m5:__ZN12_GLOBAL__N_116itanium_demangle13QualifiedNameC2EPKNS0_4NodeES4_
n5:__ZN12CJButtonBindC2EPNSt3__24listIP5CBindNS0_9allocatorIS3_EEEEP10CBindGroupj
o5:__ZNK12_GLOBAL__N_116itanium_demangle4Node15hasRHSComponentERNS_12OutputStreamE
p5:__ZNK10__cxxabiv117__class_type_info29process_static_type_below_dstEPNS_19__dynamic_cast_infoEPKvi
q5:__ZL7diffYUVjj
r5:__ZL12SetupCMDLinetR14DOS_ParamBlock
s5:__Z30INT10_GetSinglePaletteRegisterhPh
t5:__ZL11DecreaseHueb
u5:__ZL11IncreaseHueb
v5:_write
w5:__ZN12_GLOBAL__N_116itanium_demangle4NodeC2ENS1_4KindENS1_5CacheES3_S3_
x5:__ZN12_GLOBAL__N_116itanium_demangle10NestedNameC2EPNS0_4NodeES3_
y5:__ZNKSt3__28numpunctIwE12do_falsenameEv
z5:__ZNKSt3__28numpunctIcE12do_falsenameEv
A5:__ZNK12_GLOBAL__N_116itanium_demangle4Node5printERNS_12OutputStreamE
B5:__ZL15InitBiosSegmentv
C5:__ZL13FPU_PREP_PUSHv
D5:__Z13ScanCMDRemainPc
E5:__ZNKSt3__28numpunctIwE11do_truenameEv
F5:__ZNKSt3__28numpunctIcE11do_truenameEv
G5:__ZN12_GLOBAL__N_116itanium_demangle9LocalNameC2EPNS0_4NodeES3_
H5:__Z13DOS_GetMemoryt
I5:__ZNSt3__213__vector_baseIP9DOS_DriveNS_9allocatorIS2_EEED2Ev
J5:__ZN7DOS_PSP13GetFileHandleEt
K5:__ZN12_GLOBAL__N_116DefaultAllocator8makeNodeINS_16itanium_demangle8BoolExprEJiEEEPT_DpOT0_
L5:__Z17Mouse_SetPS2Stateb
M5:__ZN22VGA_ChainedEGA_Handler6writebEjj
N5:__Z8CPU_ARPLRjj
O5:__Z6E_ExitPKcz
P5:__ZNKSt3__212_GLOBAL__N_111__fake_bindclEv
Q5:__ZN7DOS_PSP14SetCommandTailEj
R5:__ZN7DOS_FCB15GetSizeDateTimeERjRtS1_
S5:__ZN16VGA_LIN4_Handler6writebEjj
T5:__ZL16SwitchFullScreenb
U5:__ZN7DOS_PSP13SetFileHandleEth
V5:__ZN5Adlib6Module4InitENS_4ModeE
W5:__ZN12MixerChannel10AddSilenceEv
X5:__ZN10copysourceC2Ev
Y5:__ZL10EA_16_83_nv
Z5:__ZL10EA_16_82_nv
_5:__ZL10EA_16_81_nv
$5:__ZL10EA_16_80_nv
a6:___uflow
b6:__ZN5CBindD2Ev
c6:__Z14PIC_SetIRQMaskjb
d6:__ZNSt3__215basic_streambufIcNS_11char_traitsIcEEE7seekposENS_4fposI11__mbstate_tEEj
e6:__ZN8AUTOEXECD2Ev
f6:__ZN6CONFIG16securemode_checkEv
g6:dynCall_iiiiiiiii
h6:_fmt_o
i6:__zip_memdup
j6:__ZNSt3__24pairIKNS_12basic_stringIcNS_11char_traitsIcEENS_9allocatorIcEEEEPFvRS7_PKcPFvS8_RK10jsonstreamEEEC2ERKSI_
k6:__ZN4OPL215change_waveformEjPNS_15operator_structE
l6:__ZN12CEventButton5ClickEv
m6:__ZN3CMSD2Ev
n6:__ZN22VGA_ChainedVGA_Handler5readbEj
o6:__Z15VGA_StartResizej
p6:__ZN5Adlib5Timer5ResetERKd
q6:__ZN22VGA_LFBChanges_Handler5readwEj
r6:__ZN21InitPageUserROHandler6writewEjj
s6:__ZZ5_sendENK3__0clERKNSt3__212basic_stringIcNS0_11char_traitsIcEENS0_9allocatorIcEEEERK10jsonstream
t6:__ZNKSt3__28messagesIwE7do_openERKNS_12basic_stringIcNS_11char_traitsIcEENS_9allocatorIcEEEERKNS_6localeE
u6:__ZNKSt3__28messagesIcE7do_openERKNS_12basic_stringIcNS_11char_traitsIcEENS_9allocatorIcEEEERKNS_6localeE
v6:__ZN8fatDrive8FindNextER7DOS_DTA
w6:__ZN20CDROM_Interface_Fake17GetAudioTrackInfoEiR4SMSFRh
x6:__ZN8PropertyD2Ev
y6:__ZN7DOS_FCB7SetNameEhPcS0_
z6:__ZN14ROMPageHandler6writewEjj
A6:__ZN14ROMPageHandler6writedEjj
B6:__ZN14ROMPageHandler6writebEjj
C6:__ZN13Virtual_Drive10FileExistsEPKc
D6:__ZN11CJAxisEvent6ActiveEb
E6:__ZL16RawMidiAddNumberj
F6:___wasi_fd_is_valid
G6:___muldi3
H6:__Z16GFX_CaptureMousev
I6:__ZN7CSerial5setRIEb
J6:__ZN14AutoexecObjectC2Ev
K6:__ZN8CKeyBind8BindNameEPc
L6:__ZN7CMapperC2Ev
M6:__ZN4MIDID2Ev
N6:__ZL10EA_16_43_nv_404
O6:__ZL10EA_16_42_nv_403
P6:__ZL10EA_16_41_nv_402
Q6:__ZL10EA_16_40_nv_401
R6:__ZL11StripSpacesRPc
S6:__ZN7CMscdex9GetDrivesEj
T6:__ZN6CEvent13DeActivateAllEv
U6:__ZN12CCheckButtonC2EjjjjPKc8BC_Types
V6:__Z8CPU_LMSWj
W6:__Z13VGA_SetupAttrv
X6:__ZN8fatDrive26getAbsoluteSectFromBytePosEjj
Y6:__ZN25VGA_UnchainedRead_Handler5readbEj
Z6:__ZN12CEventButtonC2EjjjjPKcP6CEvent
_6:__ZN11CBindButtonC2EjjjjPKc8BB_Types
$6:__ZN10jsonstreamC2Ev
a7:__Z13MEM_FreeTotalv
b7:__ZN12_GLOBAL__N_116itanium_demangle27ExpandedSpecialSubstitutionC2ENS0_14SpecialSubKindE
c7:__ZL10EA_16_83_nv_412
d7:__ZL10EA_16_82_nv_411
e7:__ZL10EA_16_81_nv_410
f7:__ZL10EA_16_80_nv_409
g7:__ZN11PageHandler6writewEjj
h7:__Z26INT10_GetSingleDACRegisterhPhS_S_
i7:_zip_source_tell_write
j7:__ZN8isoDrive15FreeDirIteratorEi
k7:__ZN6Events5frameEv
l7:__ZN12_GLOBAL__N_112OutputStreampLEc
m7:__ZL10EA_32_05_nv
n7:__Z22MAPPER_UpdateJoysticksv
o7:__ZNKSt3__210moneypunctIwLb1EE16do_positive_signEv
p7:__ZNKSt3__210moneypunctIwLb0EE16do_positive_signEv
q7:__ZNKSt3__210moneypunctIcLb1EE16do_positive_signEv
r7:__ZNKSt3__210moneypunctIcLb0EE16do_positive_signEv
s7:__ZN7CSerial6setDSREb
t7:__ZN7CSerial6setCTSEb
u7:__ZN15DescriptorTable13GetDescriptorEjR10Descriptor
v7:__ZN7CSerial5setCDEb
w7:__ZN12_GLOBAL__N_116itanium_demangle11PointerTypeC2EPKNS0_4NodeE
x7:__ZN11GUSChannels13WriteRampRateEh
y7:__Z17VESA_SetCPUWindowhh
z7:__zip_read_string
A7:__ZNSt3__212_GLOBAL__N_111__fake_bindC2EMNS_6locale2idEFvvEPS3_
B7:__ZNKSt3__210moneypunctIwLb1EE14do_curr_symbolEv
C7:__ZNKSt3__210moneypunctIwLb0EE14do_curr_symbolEv
D7:__ZNKSt3__210moneypunctIcLb1EE14do_curr_symbolEv
E7:__ZNKSt3__210moneypunctIcLb0EE14do_curr_symbolEv
F7:__ZN19VGA_Changes_Handler6writebEjj
G7:__ZN10DOS_Device22ReadFromControlChannelEjtPt
H7:__Z20GFX_SwitchFullScreenv
I7:__ZNSt3__27codecvtIwc11__mbstate_tED2Ev
J7:__ZN9imageDisk12Set_GeometryEjjjj
K7:__ZN4OPL319change_sustainlevelEjPNS_15operator_structE
L7:__ZN4OPL219change_sustainlevelEjPNS_15operator_structE
M7:__ZN10DOS_Device21WriteToControlChannelEjtPt
N7:__ZN10CJHatEventC2EPKcjjj
O7:__Z11DOS_ToUpperc
P7:__zip_buffer_put_32
Q7:__ZN21CDROM_Interface_Image10BinaryFileD2Ev
R7:__ZL9write_p92jjj
S7:__ZNKSt3__210moneypunctIwLb1EE11do_groupingEv
T7:__ZNKSt3__210moneypunctIwLb0EE11do_groupingEv
U7:__ZNKSt3__210moneypunctIcLb1EE11do_groupingEv
V7:__ZNKSt3__210moneypunctIcLb0EE11do_groupingEv
W7:__ZN14CCaptionButton6ChangeEPKcz
X7:__ZN12_GLOBAL__N_116itanium_demangle19SpecialSubstitutionC2ENS0_14SpecialSubKindE
Y7:__ZL10EA_16_43_nv
Z7:__ZL10EA_16_42_nv
_7:__ZL10EA_16_41_nv
$7:__ZL10EA_16_40_nv
a8:_wmemcpy
b8:__zip_buffer_eof
c8:__ZNSt3__215basic_stringbufIcNS_11char_traitsIcEENS_9allocatorIcEEED2Ev
d8:__Z15getSendHandlersv
e8:__ZN12_GLOBAL__N_116itanium_demangle14PODSmallVectorIPNS0_24ForwardTemplateReferenceELm4EED2Ev
f8:__zip_hash_new
g8:__ZNSt3__212basic_stringIwNS_11char_traitsIwEENS_9allocatorIwEEED2Ev
h8:__ZNKSt3__27codecvtIcc11__mbstate_tE6do_outERS1_PKcS5_RS5_PcS7_RS7_
i8:__ZN11PageHandler5readwEj
j8:__ZNSt3__2lsINS_11char_traitsIcEEEERNS_13basic_ostreamIcT_EES6_PKc
k8:__ZNKSt3__27codecvtIcc11__mbstate_tE5do_inERS1_PKcS5_RS5_PcS7_RS7_
l8:__ZL14VESA_SetWindowv
m8:__ZL14SetupTandyBiosv
n8:__zip_file_new
o8:__ZN22VGA_ChainedEGA_Handler5readbEj
p8:__Z12CALLBACK_SIFb
q8:__ZN8CKeyBind10ConfigNameEPc
r8:__ZN12_GLOBAL__N_116itanium_demangle22ParameterPackExpansionC2EPKNS0_4NodeE
s8:__ZN12MixerChannel12UpdateVolumeEv
t8:__Z12CALLBACK_SZFb
u8:__ZNSt3__214__num_get_base10__get_baseERNS_8ios_baseE
v8:__ZNSt3__212_GLOBAL__N_14makeINS_8time_getIwNS_19istreambuf_iteratorIwNS_11char_traitsIwEEEEEEjEERT_T0_
w8:__ZNSt3__212_GLOBAL__N_14makeINS_8time_getIcNS_19istreambuf_iteratorIcNS_11char_traitsIcEEEEEEjEERT_T0_
x8:__ZN12_GLOBAL__N_116itanium_demangle22ConversionOperatorTypeC2EPKNS0_4NodeE
y8:__ZN12_GLOBAL__N_116itanium_demangle14PODSmallVectorIPNS0_24ForwardTemplateReferenceELm4EEixEm
z8:__ZL12em_exit_loopv
A8:__Z15isPointerLockedv
B8:__Z12CALLBACK_SCFb
C8:__ZN12_GLOBAL__N_120BumpPointerAllocator4growEv
D8:__ZL11FPU_FYL2XP1v
E8:__ZZ5_sendEN3__08__invokeERKNSt3__212basic_stringIcNS0_11char_traitsIcEENS0_9allocatorIcEEEERK10jsonstream
F8:__ZNK12_GLOBAL__N_116itanium_demangle20TemplateArgumentPack11getElementsEv
G8:__ZN12_GLOBAL__N_116itanium_demangle19SizeofParamPackExprC2EPKNS0_4NodeE
H8:dynCall_iiiiiiii
I8:___munmap
J8:__ZNKSt3__220__time_get_c_storageIwE8__monthsEv
K8:__ZN15CTriggeredEvent15DeActivateEventEb
L8:__ZN12_GLOBAL__N_116itanium_demangle19GlobalQualifiedNameC2EPNS0_4NodeE
M8:__ZN10copysourceC2ENSt3__212basic_stringIcNS0_11char_traitsIcEENS0_9allocatorIcEEEEb
N8:__ZL10EA_16_87_nv
O8:__ZL10EA_16_86_nv
P8:__ZL10EA_16_85_nv
Q8:__ZL10EA_16_84_nv
R8:__Z18VGA_StartUpdateLFBv
S8:__Z18INT10_ReadCharAttrPth
T8:__ZNKSt3__220__time_get_c_storageIcE8__monthsEv
U8:_stat
V8:_rename
W8:_access
X8:__ZZN6Events18registerScreenshotEvENK3__2clERKNSt3__212basic_stringIcNS1_11char_traitsIcEENS1_9allocatorIcEEEEPKcPFvS9_RK10jsonstreamE
Y8:__ZNSt3__211__call_onceERVmPvPFvS2_E
Z8:__ZNKSt3__220__time_get_c_storageIwE7__weeksEv
_8:__ZNKSt3__220__time_get_c_storageIwE7__am_pmEv
$8:__ZN7DOS_FCB15SetSizeDateTimeEjtt
a9:__ZN7CMscdex12InitNewMediaEh
b9:__ZN16VGA_LIN4_Handler5readbEj
c9:_mkdir
d9:_chmod
e9:__zip_ef_size
f9:__ZNKSt3__27codecvtIwc11__mbstate_tE13do_max_lengthEv
g9:__ZNKSt3__220__time_get_c_storageIcE7__weeksEv
h9:__ZNKSt3__220__time_get_c_storageIcE7__am_pmEv
i9:__ZNK12_GLOBAL__N_116itanium_demangle19PointerToMemberType19hasRHSComponentSlowERNS_12OutputStreamE
j9:__ZN12_GLOBAL__N_116itanium_demangle16StdQualifiedNameC2EPNS0_4NodeE
k9:__ZN12_GLOBAL__N_116itanium_demangle15LiteralOperatorC2EPKNS0_4NodeE
l9:__ZNKSt3__210moneypunctIwLb1EE16do_negative_signEv
m9:__ZNKSt3__210moneypunctIwLb0EE16do_negative_signEv
n9:__ZNKSt3__210moneypunctIcLb1EE16do_negative_signEv
o9:__ZNKSt3__210moneypunctIcLb0EE16do_negative_signEv
p9:__ZN22VGA_LFBChanges_Handler6writebEjj
q9:__ZN11CTextButton4DrawEv
r9:___cxx_global_var_init_2177
s9:__ZNSt3__212basic_stringIwNS_11char_traitsIwEENS_9allocatorIwEEE6assignEPKw
t9:__ZNSt3__212basic_stringIcNS_11char_traitsIcEENS_9allocatorIcEEE6assignEPKc
u9:__ZNSt3__212basic_stringIcNS_11char_traitsIcEENS_9allocatorIcEEE6appendEPKc
v9:__ZN9Prop_bool8SetValueERKNSt3__212basic_stringIcNS0_11char_traitsIcEENS0_9allocatorIcEEEE
w9:__ZN5Adlib7Capture9MakeEntryEhRh
x9:__ZN19VGA_Changes_Handler5readbEj
y9:__Z5rtrimPc
z9:__Z24Mouse_BeforeNewVideoModeb
A9:__Z23CALLBACK_SetDescriptionjPKc
B9:__zip_get_name
C9:__ZNSt3__219basic_ostringstreamIcNS_11char_traitsIcEENS_9allocatorIcEEED1Ev
D9:__ZNSt3__219basic_istringstreamIcNS_11char_traitsIcEENS_9allocatorIcEEED1Ev
E9:__ZN5DBOPL4ChipC2Ev
F9:__ZN14DOS_ParamBlock5ClearEv
G9:__ZN12_GLOBAL__N_116itanium_demangle12NoexceptSpecC2EPKNS0_4NodeE
H9:__ZN11GUSChannels13WriteWaveFreqEt
I9:__ZL9FPU_FYL2Xv
J9:__Z10CPU_Push16j
K9:__ZNKSt3__25ctypeIcE8do_widenEPKcS3_Pc
L9:__ZN8fatDrive10FileExistsEPKc
M9:__ZN12MessageBlockC2ERKS_
N9:__ZL9write_p61jjj
O9:__ZN6EventsC2Ev
P9:__ZN20CDROM_Interface_Fake14GetAudioTracksERiS0_R4SMSF
Q9:__ZN10localDrive17GetSystemFilenameEPcPKc
R9:__ZL15read_cms_detectjj
S9:__Z28INT10_GetOverscanBorderColorPh
T9:__Z17MIXER_FindChannelPKc
U9:_snprintf
V9:__ZN7DOS_PSP14RestoreVectorsEv
W9:__ZN5ValueaSERKS_
X9:__Znwm
Y9:__ZNKSt3__25ctypeIwE8do_widenEPKcS3_Pw
Z9:__ZNK12_GLOBAL__N_116itanium_demangle13ReferenceType19hasRHSComponentSlowERNS_12OutputStreamE
_9:__ZN7CMscdex14GetMediaStatusEhRh
$9:__ZN12_GLOBAL__N_116itanium_demangle9ThrowExprC2EPKNS0_4NodeE
aaa:__ZN10device_CON9ClearAnsiEv
baa:__ZL9check_keyRt
caa:__ZL13AddDelayEntryff
daa:__ZL10EA_16_47_nv_408
eaa:__ZL10EA_16_46_nv_407
faa:__ZL10EA_16_45_nv_406
gaa:__ZL10EA_16_44_nv_405
haa:__Z23DOS_AddMultiplexHandlerPFbvE
iaa:__Z18MEM_SetPageHandlerjjP11PageHandler
jaa:__ZNSt3__212basic_stringIcNS_11char_traitsIcEENS_9allocatorIcEEED2Ev
kaa:__ZNKSt3__26locale5__imp9has_facetEl
laa:__ZN5ValueaSEPKc
maa:__ZN12_GLOBAL__N_116itanium_demangle8DtorNameC2EPKNS0_4NodeE
naa:__ZL8read_p60jj
oaa:__ZL12GUI_ShutDownP7Section
paa:__Z20removeTrailingSpacesPc
qaa:__Z10strreplacePccc
raa:__ZNSt3__26localeD2Ev
saa:__ZNK12_GLOBAL__N_116itanium_demangle8NameType11getBaseNameEv
taa:__ZNK12_GLOBAL__N_116itanium_demangle11PointerType19hasRHSComponentSlowERNS_12OutputStreamE
uaa:__ZN14PIC_Controller8activateEv
vaa:__ZN13device_MSCDEX22ReadFromControlChannelEjtPt
waa:__ZN13device_MSCDEX21WriteToControlChannelEjtPt
xaa:__Z9CPU_Pop16v
yaa:__ZNSt3__26locale5__imp7installINS_9money_putIwNS_19ostreambuf_iteratorIwNS_11char_traitsIwEEEEEEEEvPT_
zaa:__ZNSt3__26locale5__imp7installINS_9money_putIcNS_19ostreambuf_iteratorIcNS_11char_traitsIcEEEEEEEEvPT_
Aaa:__ZNSt3__26locale5__imp7installINS_9money_getIwNS_19istreambuf_iteratorIwNS_11char_traitsIwEEEEEEEEvPT_
Baa:__ZNSt3__26locale5__imp7installINS_9money_getIcNS_19istreambuf_iteratorIcNS_11char_traitsIcEEEEEEEEvPT_
Caa:_bitshift64Ashr
Daa:__ZNSt3__26locale5__imp7installINS_8time_putIwNS_19ostreambuf_iteratorIwNS_11char_traitsIwEEEEEEEEvPT_
Eaa:__ZNSt3__26locale5__imp7installINS_8time_putIcNS_19ostreambuf_iteratorIcNS_11char_traitsIcEEEEEEEEvPT_
Faa:__ZNSt3__26locale5__imp7installINS_8time_getIwNS_19istreambuf_iteratorIwNS_11char_traitsIwEEEEEEEEvPT_
Gaa:__ZNSt3__26locale5__imp7installINS_8time_getIcNS_19istreambuf_iteratorIcNS_11char_traitsIcEEEEEEEEvPT_
Haa:__ZNKSt3__27codecvtIDsc11__mbstate_tE9do_lengthERS1_PKcS5_m
Iaa:__ZN4OPL315change_feedbackEjPNS_15operator_structE
Jaa:__ZN4OPL215change_feedbackEjPNS_15operator_structE
Kaa:__ZN15InitPageHandler13readw_checkedEjPt
Laa:__ZN15InitPageHandler13readd_checkedEjPj
Maa:__ZN13device_MSCDEX5WriteEPhPt
Naa:__ZL10EA_16_87_nv_416
Oaa:__ZL10EA_16_86_nv_415
Paa:__ZL10EA_16_85_nv_414
Qaa:__ZL10EA_16_84_nv_413
Raa:__Z10CPU_Push32j
Saa:_clearerr
Taa:__ZNSt3__26locale5__imp7installINS_7num_putIwNS_19ostreambuf_iteratorIwNS_11char_traitsIwEEEEEEEEvPT_
Uaa:__ZNSt3__26locale5__imp7installINS_7num_putIcNS_19ostreambuf_iteratorIcNS_11char_traitsIcEEEEEEEEvPT_
Vaa:__ZNSt3__26locale5__imp7installINS_7num_getIwNS_19istreambuf_iteratorIwNS_11char_traitsIwEEEEEEEEvPT_
Waa:__ZNSt3__26locale5__imp7installINS_7num_getIcNS_19istreambuf_iteratorIcNS_11char_traitsIcEEEEEEEEvPT_
Xaa:__ZNKSt3__27codecvtIDic11__mbstate_tE9do_lengthERS1_PKcS5_m
Yaa:__ZNK12_GLOBAL__N_116itanium_demangle8QualType19hasRHSComponentSlowERNS_12OutputStreamE
Zaa:__ZN7DOS_PSP11SaveVectorsEv
_aa:__ZN5ValueaSEi
$aa:__ZN5ValueaSEb
aba:__ZN15InitPageHandler13readb_checkedEjPh
bba:__ZN12CSerialDummy9setRTSDTREbb
cba:__ZL4outch
dba:__zip_buffer_get_32
eba:__ZTv0_n12_NSt3__219basic_ostringstreamIcNS_11char_traitsIcEENS_9allocatorIcEEED1Ev
fba:__ZTv0_n12_NSt3__219basic_ostringstreamIcNS_11char_traitsIcEENS_9allocatorIcEEED0Ev
gba:__ZTv0_n12_NSt3__219basic_istringstreamIcNS_11char_traitsIcEENS_9allocatorIcEEED1Ev
hba:__ZTv0_n12_NSt3__219basic_istringstreamIcNS_11char_traitsIcEENS_9allocatorIcEEED0Ev
iba:__ZN10device_EMM5WriteEPhPt
jba:_end
kba:__ZNK12_GLOBAL__N_116itanium_demangle8NameType7getNameEv
lba:__ZN9localFile5CloseEv
mba:__ZNK5ValuecvPKcEv
nba:__ZN5DBOPL8Operator7Write40EPKNS_4ChipEh
oba:__ZN10device_COMC2EP7CSerial
pba:__ZL13DISNEY_enablej
qba:__ZNSt3__26locale8__globalEv
rba:__ZNSt3__26locale7classicEv
sba:__ZN5DBOPL8Operator17UpdateAttenuationEv
tba:__ZN12_GLOBAL__N_116itanium_demangle8BoolExprC2Eb
uba:__Z13DOS_LayoutKeyjhhh
vba:__ZN8CKeyBindC2EPNSt3__24listIP5CBindNS0_9allocatorIS3_EEEEi
wba:__ZN14PIC_Controller15check_after_EOIEv
xba:__ZN13Virtual_Drive14AllocationInfoEPtPhS0_S0_
yba:__ZN11CTextButtonC2EjjjjPKc
zba:__ZN15keyboard_layout18read_keyboard_fileEi
Aba:__ZN15InitPageHandler14writew_checkedEjj
Bba:__Z14MEM_A20_Enableb
Cba:___ofl_add
Dba:__ZN22VGA_LFBChanges_Handler5readbEj
Eba:__ZL10EA_16_47_nv
Fba:__ZL10EA_16_46_nv
Gba:__ZL10EA_16_45_nv
Hba:__ZL10EA_16_44_nv
Iba:__Z9CPU_Pop32v
Jba:___uselocale
Kba:__ZNK12_GLOBAL__N_116itanium_demangle8QualType15hasFunctionSlowERNS_12OutputStreamE
Lba:__ZN7CMscdex16GetDefaultBufferEv
Mba:__ZN2IOC2EP7Section
Nba:__ZN15InitPageHandler14writeb_checkedEjj
Oba:__ZN15DOS_Drive_Cache14DeleteFileInfoEPNS_9CFileInfoE
Pba:__ZL19DOS_default_handlerv
Qba:__Z16MEM_ReleasePagesi
Rba:__Z10MEM_SetLFBjjP11PageHandlerS0_
Sba:__Z10FPU_GetTagv
Tba:__ZN12CSerialDummy12transmitByteEhb
Uba:__ZL15cmos_timereventj
Vba:__ZNK12_GLOBAL__N_116itanium_demangle20TemplateArgumentPack9printLeftERNS_12OutputStreamE
Wba:__ZN7DOS_PSP10CloseFilesEv
Xba:__ZN5Value7destroyEv
Yba:__Z2civ
Zba:__ZN4OPL314change_vibratoEjPNS_15operator_structE
_ba:__ZN4OPL214change_vibratoEjPNS_15operator_structE
$ba:__ZN12_GLOBAL__N_116itanium_demangle14PODSmallVectorIPNS0_24ForwardTemplateReferenceELm4EEC2Ev
aca:__ZN11CommandLineD2Ev
bca:dynCall_iiiiiii
cca:__ZN5Adlib6Module10CacheWriteEjh
dca:__ZN10DOS_Device5WriteEPhPt
eca:__ZL20set_clock_index_et4kj
fca:__ZL15default_handlerv
gca:__ZNKSt3__25ctypeIwE5do_isEtw
hca:__Z21MSCDEX_SetCDInterfaceii
ica:__Z20CALLBACK_RemoveSetupj
jca:__ZNSt3__212_GLOBAL__N_14makeINS_8time_putIwNS_19ostreambuf_iteratorIwNS_11char_traitsIwEEEEEEjEERT_T0_
kca:__ZNSt3__212_GLOBAL__N_14makeINS_8time_putIcNS_19ostreambuf_iteratorIcNS_11char_traitsIcEEEEEEjEERT_T0_
lca:__ZN8isoDrive14AllocationInfoEPtPhS0_S0_
mca:__ZN7DOS_FCB5ValidEv
nca:__ZN15InitPageHandler14writed_checkedEjj
oca:__ZN10DOS_Device4SeekEPjj
pca:__ZN10DOS_Device4ReadEPhPt
qca:__ZL11FPU_FSINCOSv
rca:__Z15VGA_KillDrawingv
sca:_bitshift64Shl
tca:__zip_buffer_offset
uca:__ZNK12_GLOBAL__N_116itanium_demangle8QualType12hasArraySlowERNS_12OutputStreamE
vca:__ZNK12_GLOBAL__N_116itanium_demangle8QualType10printRightERNS_12OutputStreamE
wca:__ZN7DOS_SDA4InitEv
xca:__ZN7CSerial9Write_MSREh
yca:___cxx_global_var_init_3369
zca:___cxx_global_var_init_2778
Aca:__ZNSt3__210__list_impINS_12basic_stringIcNS_11char_traitsIcEENS_9allocatorIcEEEENS4_IS6_EEED2Ev
Bca:__ZN21InitPageUserROHandler6writebEjj
Cca:__ZNK12_GLOBAL__N_116itanium_demangle9ArrayType9printLeftERNS_12OutputStreamE
Dca:__ZNK12_GLOBAL__N_116itanium_demangle13NodeArrayNode9printLeftERNS_12OutputStreamE
Eca:__ZN13CJButtonEventC2EPKcjj
Fca:__ZN12_GLOBAL__N_116itanium_demangle14PODSmallVectorIPNS0_4NodeELm32EED2Ev
Gca:__ZL15INT10_Seg40Initv
Hca:__ZL10FPU_FPATANv
Ica:__ZL10EA_32_47_nv_432
Jca:__ZL10EA_32_46_nv_431
Kca:__ZL10EA_32_45_nv_430
Lca:__ZL10EA_32_43_nv_428
Mca:__ZL10EA_32_42_nv_427
Nca:__ZL10EA_32_41_nv_426
Oca:__ZL10EA_32_40_nv_425
Pca:_sprintf
Qca:_fprintf
Rca:__ZN21CDROM_Interface_Image6GetUPCERhPc
Sca:__ZN10cdromDrive7UnMountEv
Tca:dynCall_iiiiiid
Uca:dynCall_iidiiii
Vca:__ZN7CMscdexC2Ev
Wca:__ZN5DBOPL7Channel7ResetC0EPKNS_4ChipE
Xca:__ZN12_GLOBAL__N_116itanium_demangle14PODSmallVectorIPNS0_4NodeELm8EED2Ev
Yca:_sscanf
Zca:__ZNSt3__211char_traitsIcE4findEPKcmRS2_
_ca:__ZNK12_GLOBAL__N_116itanium_demangle20NameWithTemplateArgs11getBaseNameEv
$ca:__ZN7CMscdex13GetTempBufferEv
ada:__ZN4OPL317adlib_write_indexEjh
bda:__ZN15keyboard_layout15get_layout_nameEv
cda:__ZL25MPU401_EOIHandlerDispatchv
dda:__Z15write_p3cd_et3kjjj
eda:_zip_source_rollback_write
fda:_wmemset
gda:_ftell
hda:__ZNK12_GLOBAL__N_116itanium_demangle19GlobalQualifiedName11getBaseNameEv
ida:__ZN12_GLOBAL__N_116itanium_demangle14PODSmallVectorIPNS0_4NodeELm8EE11clearInlineEv
jda:__ZN10Descriptor7GetBaseEv
kda:_printf
lda:__ZN8isoDrive7UnMountEv
mda:__ZN7CMscdex11ReadSectorsEtjtj
nda:__ZN20IO_WriteHandleObject9UninstallEv
oda:__ZN12_GLOBAL__N_116itanium_demangle14PODSmallVectorIPNS0_4NodeELm32EEixEm
pda:__Z23DOS_KeyboardLayout_InitP7Section
qda:__Z19XMS_QueryFreeMemoryRtS_
rda:dynCall_viiiiii
sda:_bitshift64Lshr
tda:__ZN8DOS_File7SetNameEPKc
uda:__ZN20CDROM_Interface_Fake6GetUPCERhPc
vda:__ZN12_GLOBAL__N_114SwapAndRestoreIPKcEC2ERS2_S2_
wda:__ZN12Section_lineD2Ev
xda:__ZNK12_GLOBAL__N_116itanium_demangle16StdQualifiedName11getBaseNameEv
yda:__ZN19IO_ReadHandleObject9UninstallEv
zda:__ZN12_GLOBAL__N_116itanium_demangle14PODSmallVectorIPNS0_4NodeELm8EEixEm
Ada:__ZN12_GLOBAL__N_114SwapAndRestoreIbEC2ERbb
Bda:__ZN5Adlib5Timer6UpdateEd
Cda:__ZN14CCaptionButtonC2Ejjjj
Dda:__ZN12MixerChannel7SetFreqEj
Eda:__ZL16UpdateEMSMappingv
Fda:__ZNK12_GLOBAL__N_116itanium_demangle13QualifiedName11getBaseNameEv
Gda:__ZN5Cross21GetPlatformConfigNameERNSt3__212basic_stringIcNS0_11char_traitsIcEENS0_9allocatorIcEEEE
Hda:__ZN7fatFile5CloseEv
Ida:_abort_message
Jda:__GLOBAL__sub_I_sdl_mapper_cpp
Kda:__ZNK12_GLOBAL__N_116itanium_demangle10NestedName11getBaseNameEv
Lda:__ZN8isoDrive10readSectorEPhj
Mda:__ZL8is_equalPKSt9type_infoS1_b
Nda:__ZL10EA_32_47_nv
Oda:__ZL10EA_32_46_nv
Pda:__ZL10EA_32_45_nv
Qda:__ZL10EA_32_43_nv
Rda:__ZL10EA_32_42_nv
Sda:__ZL10EA_32_41_nv
Tda:__ZL10EA_32_40_nv
Uda:__ZNSt3__26__clocEv
Vda:__ZN12_GLOBAL__N_116itanium_demangle14PODSmallVectorIPNS0_4NodeELm32EEC2Ev
Wda:_ferror
Xda:__ZNSt3__211char_traitsIcE7not_eofEi
Yda:__ZN9DOS_Block3pspEt
Zda:__ZN9DOS_Block3dtaEj
_da:__ZL10EA_32_87_nv_440
$da:__ZL10EA_32_86_nv_439
aea:__ZL10EA_32_85_nv_438
bea:__ZL10EA_32_83_nv_436
cea:__ZL10EA_32_82_nv_435
dea:__ZL10EA_32_81_nv_434
eea:__ZL10EA_32_80_nv_433
fea:__Z7lowcasePc
gea:_unlink
hea:__zip_buffer_put_16
iea:__ZNSt3__24pairIKNS_12basic_stringIcNS_11char_traitsIcEENS_9allocatorIcEEEEPFvRS7_PKcPFvS8_RK10jsonstreamEEED2Ev
jea:__ZNKSt3__25ctypeIcE10do_tolowerEc
kea:__ZN8fatDrive7TestDirEPc
lea:__ZN12_GLOBAL__N_116itanium_demangle14PODSmallVectorIPNS0_4NodeELm8EEC2Ev
mea:__ZN10Descriptor4SaveEj
nea:__Z6upcasePc
oea:__Z12incrementFDDv
pea:_umask
qea:_rmdir
rea:_pop_arg_long_double
sea:__ZNSt3__26locale5__imp7installINS_7codecvtIDsc11__mbstate_tEEEEvPT_
tea:__ZNSt3__26locale5__imp7installINS_7codecvtIDic11__mbstate_tEEEEvPT_
uea:__ZNSt3__211char_traitsIcE6assignEPcmc
vea:__ZN14CCaptionButton4DrawEv
wea:__ZN10device_EMMC2Eb
xea:_zip_fclose
yea:__ZNSt3__26locale5__imp7installINS_7codecvtIwc11__mbstate_tEEEEvPT_
zea:__ZNSt3__26locale5__imp7installINS_7codecvtIcc11__mbstate_tEEEEvPT_
Aea:__ZNSt3__214basic_ifstreamIcNS_11char_traitsIcEEED1Ev
Bea:__ZNKSt3__27codecvtIcc11__mbstate_tE9do_lengthERS1_PKcS5_m
Cea:__ZN9localFile5FlushEv
Dea:__ZL17bank_setup_pvga1av
Eea:__ZL12CycleHercPalb
Fea:_zip_source_buffer
Gea:__zip_fseek_u
Hea:_zip_source_window
Iea:__ZNSt3__25ctypeIcED2Ev
Jea:__ZNKSt3__25ctypeIcE10do_toupperEc
Kea:__ZN10copysourceaSERKS_
Lea:__ZN10cdromDrive11GetFileAttrEPcPt
Mea:__ZN10Descriptor4LoadEj
Nea:__Z17VESA_GetCPUWindowhRt
Oea:__Z15TANDYSOUND_InitP7Section
Pea:__ZNSt3__26localeC2Ev
Qea:__ZN9DOS_Block3pspEv
Rea:__ZN9DOS_Block3dtaEv
Sea:__ZN8HARDWARED2Ev
Tea:__ZN7DOS_FCB10GetSeqDataERhRt
Uea:__ZL10EA_16_06_nv
Vea:__Z16MEM_NextHandleAtij
Wea:__Z10getVersionv
Xea:__ZNSt3__213basic_ostreamIcNS_11char_traitsIcEEED1Ev
Yea:__ZNSt3__213basic_istreamIcNS_11char_traitsIcEEED1Ev
Zea:__ZN12MessageBlockD2Ev
_ea:_i64Subtract
$ea:__ZN7DOS_FCB9GetRecordERtRh
afa:__ZL20KEYBOARD_TickHandlerv
bfa:__ZL11FPU_FLD_I64jj
cfa:dynCall_iiiiii
dfa:__ZNSt3__26locale5__imp7installINS_10moneypunctIwLb1EEEEEvPT_
efa:__ZNSt3__26locale5__imp7installINS_10moneypunctIwLb0EEEEEvPT_
ffa:__ZNSt3__26locale5__imp7installINS_10moneypunctIcLb1EEEEEvPT_
gfa:__ZNSt3__26locale5__imp7installINS_10moneypunctIcLb0EEEEEvPT_
hfa:__ZN10CJHatEvent6ActiveEb
ifa:__Z14PCSPEAKER_InitP7Section
jfa:__ZN10Descriptor8GetLimitEv
kfa:__ZL11FPU_FST_F64j
lfa:__Z13SBLASTER_InitP7Section
mfa:__ZN9CModEvent6ActiveEb
nfa:__ZN12_GLOBAL__N_116itanium_demangle14PODSmallVectorIPNS0_24ForwardTemplateReferenceELm4EE8dropBackEm
ofa:__ZL12read_commandjj
pfa:__Z13JOYSTICK_InitP7Section
qfa:__zip_buffer_put
rfa:__ZN6MyFifoC2Ej
sfa:__Z13HARDWARE_InitP7Section
tfa:__Z12CPU_SetFlagsjj
ufa:__ZNK12_GLOBAL__N_116itanium_demangle22AbstractManglingParserINS0_14ManglingParserINS_16DefaultAllocatorEEES3_E7numLeftEv
vfa:__ZN21CDROM_Interface_Image18GetMediaTrayStatusERbS0_S0_
wfa:__Z14Mouse_AutoLockb
xfa:__ZTv0_n12_NSt3__214basic_ifstreamIcNS_11char_traitsIcEEED1Ev
yfa:__ZTv0_n12_NSt3__214basic_ifstreamIcNS_11char_traitsIcEEED0Ev
zfa:__ZN20CDROM_Interface_Fake18GetMediaTrayStatusERbS0_S0_
Afa:__ZN13DOS_InfoBlock10SetBuffersEtt
Bfa:__ZL9FPU_FPTANv
Cfa:__ZL10EA_16_43_nv_313
Dfa:__ZL10EA_16_42_nv_312
Efa:__ZL10EA_16_41_nv_311
Ffa:__ZL10EA_16_40_nv_310
Gfa:__Z8PIC_InitP7Section
Hfa:__Z11MPU401_InitP7Section
Ifa:__Z11DISNEY_InitP7Section
Jfa:dynCall_iiiiid
Kfa:__ZTv0_n12_NSt3__213basic_ostreamIcNS_11char_traitsIcEEED1Ev
Lfa:__ZTv0_n12_NSt3__213basic_ostreamIcNS_11char_traitsIcEEED0Ev
Mfa:__ZTv0_n12_NSt3__213basic_istreamIcNS_11char_traitsIcEEED1Ev
Nfa:__ZTv0_n12_NSt3__213basic_istreamIcNS_11char_traitsIcEEED0Ev
Ofa:__ZNSt3__26locale5__imp7installINS_8numpunctIwEEEEvPT_
Pfa:__ZNSt3__26locale5__imp7installINS_8numpunctIcEEEEvPT_
Qfa:__ZNSt3__26locale5__imp7installINS_8messagesIwEEEEvPT_
Rfa:__ZNSt3__26locale5__imp7installINS_8messagesIcEEEEvPT_
Sfa:__ZNK12_GLOBAL__N_116itanium_demangle12NodeOrString8asStringEv
Tfa:__ZN5Adlib7CaptureC2EPA512_h
Ufa:__ZN15VGA_Map_Handler14GetHostWritePtEj
Vfa:__ZN12_GLOBAL__N_114SwapAndRestoreIjEC2ERjj
Wfa:__ZN11PageHandler13readw_checkedEjPt
Xfa:__ZN11PageHandler13readd_checkedEjPj
Yfa:__ZN10copysourceC2ERKS_
Zfa:__Z18RemoveEMSPageFramev
_fa:__Z18PreparePCJRCartRomv
$fa:__Z10TIMER_InitP7Section
aga:__ZNSt3__28numpunctIwED2Ev
bga:__ZNSt3__28numpunctIcED2Ev
cga:__ZNSt3__26locale5__imp7installINS_7collateIwEEEEvPT_
dga:__ZNSt3__26locale5__imp7installINS_7collateIcEEEEvPT_
ega:__ZNSt3__219basic_ostringstreamIcNS_11char_traitsIcEENS_9allocatorIcEEED0Ev
fga:__ZNSt3__219basic_istringstreamIcNS_11char_traitsIcEENS_9allocatorIcEEED0Ev
gga:__ZN7DOS_FCB8GetDriveEv
hga:__ZN15VGA_Map_Handler13GetHostReadPtEj
iga:__ZN10DOS_DeviceC2ERKS_
jga:__ZL17VGA_VertInterruptj
kga:_context_free
lga:__ZNKSt3__29__num_getIwE10__do_widenERNS_8ios_baseEPw
mga:__ZNK12_GLOBAL__N_112OutputStream4backEv
nga:__ZN9DOS_Shell11SyntaxErrorEv
oga:__ZN11PageHandler13readb_checkedEjPh
pga:__Z18MSCDEX_RemoveDrivec
qga:__ZNSt3__26locale5__imp7installINS_5ctypeIwEEEEvPT_
rga:__ZNSt3__26locale5__imp7installINS_5ctypeIcEEEEvPT_
sga:__ZL11FPU_FLD_F32jj
tga:__ZL10EA_16_83_nv_321
uga:__ZL10EA_16_82_nv_320
vga:__ZL10EA_16_81_nv_319
wga:__ZL10EA_16_80_nv_318
xga:__Z9BIOS_InitP7Section
yga:__Z8MEM_InitP7Section
zga:__Z18MOUSE_Limit_Eventsj
Aga:__Z16AcceptsMode_ET3Kj
Bga:_llvm_ctpop_i32
Cga:__ZNKSt3__25ctypeIwE10do_toupperEw
Dga:__ZNKSt3__25ctypeIwE10do_tolowerEw
Ega:__ZN11GUSChannels14UpdateWaveRampEv
Fga:__ZN10DOS_Device14GetInformationEv
Gga:__ZL10EA_16_06_nv_399
Hga:__Z9CMOS_InitP7Section
Iga:__Z24MOUSE_UserInt_CB_Handlerv
Jga:dynCall_viiiii
Kga:__zip_progress_start
Lga:__ZL11PauseDOSBoxb
Mga:__Z9MIDI_InitP7Section
Nga:__Z8GUS_InitP7Section
Oga:__Z8DOS_InitP7Section
Pga:__ZNSt3__27codecvtIwc11__mbstate_tEC2Em
Qga:__ZNKSt3__26locale9use_facetERNS0_2idE
Rga:__ZNKSt3__26locale9has_facetERNS0_2idE
Sga:__ZL16MPU401_ResetDonej
Tga:__ZL11FPU_FLD_F64jj
Uga:__Z8XMS_InitP7Section
Vga:__Z8EMS_InitP7Section
Wga:__zip_progress_free
Xga:__ZZ4mainEN3__18__invokeEiPK32EmscriptenPointerlockChangeEventPv
Yga:__ZN21CDROM_Interface_Image14GetAudioStatusERbS0_
Zga:__ZN10DmaChannel7SetPageEh
_ga:__Z8CPU_InitP7Section
$ga:__Z5ltrimPc
aha:_zip_source_layered
bha:_zip_error_system_type
cha:__zip_progress_subrange
dha:__ZN4BOOT10printErrorEv
eha:__ZL12show_warningPKc
fha:__ZNSt3__28time_putIwNS_19ostreambuf_iteratorIwNS_11char_traitsIwEEEEED0Ev
gha:__ZNSt3__28time_putIcNS_19ostreambuf_iteratorIcNS_11char_traitsIcEEEEED0Ev
hha:__ZNSt3__215basic_stringbufIcNS_11char_traitsIcEENS_9allocatorIcEEED0Ev
iha:__ZNK10__cxxabiv123__fundamental_type_info9can_catchEPKNS_16__shim_type_infoERPv
jha:__ZN7DOS_FCB10SetSeqDataEht
kha:__ZN5Cross9CreateDirERKNSt3__212basic_stringIcNS0_11char_traitsIcEENS0_9allocatorIcEEEE
lha:__Z7IO_InitP7Section
mha:__Z14open_directoryPKc
nha:__ZNK5ValuecvbEv
oha:__ZN8JOYSTICKD2Ev
pha:__ZN7DOS_PSP7SetFCB2Ej
qha:__ZN16VGA_MMIO_Handler6writewEjj
rha:__ZN16VGA_MMIO_Handler6writedEjj
sha:__ZN16VGA_MMIO_Handler6writebEjj
tha:__Z25CPU_Enable_SkipAutoAdjustv
uha:__ZNSt3__210__list_impIN7Section16Function_wrapperENS_9allocatorIS2_EEED2Ev
vha:__ZNKSt3__29__num_getIcE10__do_widenERNS_8ios_baseEPc
wha:__ZNKSt3__210moneypunctIwLb1EE13do_pos_formatEv
xha:__ZNKSt3__210moneypunctIwLb1EE13do_neg_formatEv
yha:__ZNKSt3__210moneypunctIwLb0EE13do_pos_formatEv
zha:__ZNKSt3__210moneypunctIwLb0EE13do_neg_formatEv
Aha:__ZNKSt3__210moneypunctIcLb1EE13do_pos_formatEv
Bha:__ZNKSt3__210moneypunctIcLb1EE13do_neg_formatEv
Cha:__ZNKSt3__210moneypunctIcLb0EE13do_pos_formatEv
Dha:__ZNKSt3__210moneypunctIcLb0EE13do_neg_formatEv
Eha:__ZN7DOS_PSP7SetFCB1Ej
Fha:__ZN7DOS_FCB9SetRecordEth
Gha:__Z19removeLeadingSpacesPc
Hha:__ZNSt3__217__call_once_proxyINS_5tupleIJONS_12_GLOBAL__N_111__fake_bindEEEEEEvPv
Iha:__ZNKSt3__27codecvtIDsc11__mbstate_tE10do_unshiftERS1_PcS4_RS4_
Jha:__ZNKSt3__27codecvtIDic11__mbstate_tE10do_unshiftERS1_PcS4_RS4_
Kha:__ZNK12Section_line9PrintDataEP8_IO_FILE
Lha:__Z14SERIAL_DestroyP7Section
Mha:___lctrans_impl
Nha:__ZNKSt3__27codecvtIcc11__mbstate_tE10do_unshiftERS1_PcS4_RS4_
Oha:__ZL18KEYBOARD_SetPort60h
Pha:__Z9FPU_FLDCWj
Qha:__Z13SortByNameRevRKPN15DOS_Drive_Cache9CFileInfoES3_
Rha:__zip_buffer_get_16
Sha:___strdup
Tha:___DOUBLE_BITS_638
Uha:__ZN9CKeyEventC2EPKc8KBD_KEYS
Vha:__ZN8fatDrive17getClustFirstSectEj
Wha:__ZN12MixerChannel9SetVolumeEff
Xha:__ZN10DOS_Device5CloseEv
Yha:__ZL10EA_32_05_nv_422
Zha:__Z17PIC_DeActivateIRQj
_ha:__Z15GFX_ResetScreenv
$ha:__Z12OPL_ShutDownP7Section
aia:__ZNSt3__26localeC2ERKS0_
bia:__ZNK12_GLOBAL__N_116itanium_demangle14PODSmallVectorIPNS0_24ForwardTemplateReferenceELm4EE4sizeEv
cia:__ZN12_GLOBAL__N_116itanium_demangle14PODSmallVectorIPNS0_4NodeELm32EE8dropBackEm
dia:__Z8OPL_InitP7Section8OPL_Mode
eia:__Z15MSCDEX_ShutDownP7Section
fia:__Z15MSCDEX_AddDrivecPKcRh
gia:_compression_flags
hia:__ZN12CEventButton9BindColorEv
iia:__ZL15master_startIRQj
jia:_i64Add
kia:__ZN8Prop_int9SetMinMaxERK5ValueS2_
lia:__ZN11PageHandler14writew_checkedEjj
mia:__ZN11PageHandler14writed_checkedEjj
nia:__ZN11PageHandler14writeb_checkedEjj
oia:__Z17PAGING_SetDirBasej
pia:__Z16VESA_GetSVGAModeRt
qia:___DOUBLE_BITS
ria:__ZN9imageDisk11GetBiosTypeEv
sia:__ZN9Prop_pathD2Ev
tia:__ZN12_GLOBAL__N_112OutputStream5resetEPcm
uia:__ZL11FPU_FST_F32j
via:__Z16CAPTURE_AddImagejjjjjfPhS_
wia:__ZN11PageHandler6writebEjj
xia:__ZL19Serial_EventHandlerj
yia:__ZNK5ValuecviEv
zia:__ZN10DmaChannel10DoCallBackE8DMAEvent
Aia:__ZL21TandyDAC_DMA_CallBackP10DmaChannel8DMAEvent
Bia:__Z7Restartb
Cia:__Z14VGA_SetModeNow8VGAModes
Dia:dynCall_iiiii
Eia:__ZNK5Valuecv3HexEv
Fia:__ZN8DOS_FileC2Ev
Gia:__ZN7CSerial5clearEh
Hia:__ZL8FPU_FSINv
Iia:__ZL8FPU_FCOSv
Jia:__Z27DOS_KeyboardLayout_ShutDownP7Section
Kia:__ZN9CModEventC2EPKcj
Lia:__ZN15keyboard_layout18read_keyboard_fileEPKci
Mia:__ZN12DriveManager4InitEP7Section
Nia:__Z20TIMER_AddTickHandlerPFvvE
Oia:__Z11VGA_SetMode8VGAModes
Pia:__ZNSt3__28time_putIwNS_19ostreambuf_iteratorIwNS_11char_traitsIwEEEEED2Ev
Qia:__ZNSt3__28time_putIcNS_19ostreambuf_iteratorIcNS_11char_traitsIcEEEEED2Ev
Ria:__ZN7CSerial4riseEh
Sia:__ZN5MIXER8ListMidiEv
Tia:__ZL20set_clock_index_et3kj
Uia:__ZNKSt3__28numpunctIwE11do_groupingEv
Via:__ZNKSt3__28numpunctIcE11do_groupingEv
Wia:__ZNK12_GLOBAL__N_116itanium_demangle12NodeOrString8isStringEv
Xia:__ZN12_GLOBAL__N_116itanium_demangle9NodeArrayC2EPPNS0_4NodeEm
Yia:__ZL14DSP_ChangeMode9DSP_MODES
Zia:__zip_ef_free
_ia:__ZZ4mainENK3__1clEiPK32EmscriptenPointerlockChangeEventPv
$ia:__ZN13CJButtonEvent6ActiveEb
aja:__ZL10write_p3c8jjj
bja:__Z15write_p3cd_et4kjjj
cja:__ZNSt3__210__time_putD2Ev
dja:__ZNK12_GLOBAL__N_116itanium_demangle12NodeOrString6isNodeEv
eja:__ZN15CStickBindGroup9BindStartEv
fja:__ZN12_GLOBAL__N_116itanium_demangle14PODSmallVectorIPNS0_4NodeELm32EE8pop_backEv
gja:___cxx_global_var_init_1404
hja:__ZNK12_GLOBAL__N_116itanium_demangle14PODSmallVectorIPNS0_24ForwardTemplateReferenceELm4EE8isInlineEv
ija:__ZN7DOS_FCB9FileCloseERh
jja:__ZN7CSerial8Read_IEREv
kja:__ZN15VGA_LFB_Handler13GetHostReadPtEj
lja:__ZL10write_p3c7jjj
mja:__ZN16TaskStateSegment8Get_backEv
nja:__ZN12_GLOBAL__N_116DefaultAllocator17allocateNodeArrayEm
oja:__ZN11PageHandler5readbEj
pja:__ZL17MPU401_ReadStatusjj
qja:b11
rja:_zip_fopen_index
sja:__zip_buffer_put_8
tja:__ZN12MixerChannel15AddSamples_s16uEjPKt
uja:__ZN12MixerChannel15AddSamples_m16uEjPKt
vja:__ZN10Descriptor11GetSelectorEv
wja:__Z24INT10_TeletypeOutputAttrhhb
xja:__Z19TANDYSOUND_ShutDownP7Section
yja:__zip_string_write
zja:__zip_string_crc32
Aja:__ZN16CommandInterfaceD2Ev
Bja:__ZN13DmaController10GetChannelEh
Cja:__ZN12MixerChannel14AddSamples_s8sEjPKa
Dja:__ZN12MixerChannel14AddSamples_s32EjPKi
Eja:__ZN12MixerChannel14AddSamples_s16EjPKs
Fja:__ZN12MixerChannel14AddSamples_m8sEjPKa
Gja:__ZN12MixerChannel14AddSamples_m32EjPKi
Hja:__ZN12MixerChannel14AddSamples_m16EjPKs
Ija:__Z18PCSPEAKER_ShutDownP7Section
Jja:__Z13XMS_EnableA20b
Kja:__ZZ4mainEN3__08__invokeEiPK20EmscriptenMouseEventPv
Lja:__ZN8DOS_File6IsNameEPKc
Mja:__ZN21VGA_TANDY_PageHandler14GetHostWritePtEj
Nja:__ZN12MixerChannel13AddSamples_s8EjPKh
Oja:__ZN12MixerChannel13AddSamples_m8EjPKh
Pja:__ZN11CJAxisEvent14RepostActivityEv
Qja:__ZL9FPU_FSUBRjj
Rja:__ZL9FPU_FDIVRjj
Sja:__ZL10EA_16_47_nv_317
Tja:__ZL10EA_16_46_nv_316
Uja:__ZL10EA_16_45_nv_315
Vja:__ZL10EA_16_44_nv_314
Wja:__Z24CloseSecondDMAControllerv
Xja:__Z17SBLASTER_ShutDownP7Section
Yja:__Z15SetClock_PVGA1Ajj
Zja:__Z15JOYSTICK_Buttonjjb
_ja:dynCall_viiii
$ja:__ZZ4mainENK3__0clEiPK20EmscriptenMouseEventPv
aka:__ZN21VGA_TANDY_PageHandler13GetHostReadPtEj
bka:__ZL8FPU_FSUBjj
cka:__ZL8FPU_FMULjj
dka:__ZL8FPU_FDIVjj
eka:__ZL8FPU_FADDjj
fka:__ZL15DISNEY_ShutDownP7Section
gka:__Z16JOYSTICK_DestroyP7Section
hka:__Z16HARDWARE_DestroyP7Section
ika:__ZN7DOS_FCB7GetAttrERh
jka:__Z20INT10_TeletypeOutputhh
kka:__Z19MSCDEX_ReplaceDriveP15CDROM_Interfaceh
lka:__Z12DOS_SetDriveh
mka:_strtoull_l
nka:__ZNSt3__211char_traitsIcE7compareEPKcS3_m
oka:__ZN9DOS_DriveC2Ev
pka:__ZN5Adlib4ChipC2Ev
qka:__ZN16VGA_MMIO_Handler5readwEj
rka:__ZN16VGA_MMIO_Handler5readdEj
ska:__ZN16VGA_MMIO_Handler5readbEj
tka:__ZN16TaskStateSegment12SaveSelectorEv
uka:__ZN16CommandInterfaceC2Ev
vka:__Z14read_p3cd_et3kjj
wka:__Z14MPU401_DestroyP7Section
xka:__ZNK12_GLOBAL__N_116itanium_demangle14PODSmallVectorIPNS0_4NodeELm32EE4sizeEv
yka:__ZN14TSS_Descriptor6IsBusyEv
zka:__ZL24DOSBOX_RunMachineNoSleepv_2915
Aka:__ZL17VESA_PMSetPalettev
Bka:__ZL12MEM_ShutDownP7Section
Cka:__ZL10EA_16_87_nv_325
Dka:__ZL10EA_16_86_nv_324
Eka:__ZL10EA_16_85_nv_323
Fka:__ZL10EA_16_84_nv_322
Gka:__Z6get_PFv
Hka:__Z13TIMER_DestroyP7Section
Ika:_strtoll_l
Jka:_safe_create_dir
Kka:__ZNK12_GLOBAL__N_116itanium_demangle14PODSmallVectorIPNS0_4NodeELm8EE4sizeEv
Lka:__ZN7CSerial8setEventEtf
Mka:__ZN16VGA_PCJR_Handler14GetHostWritePtEj
Nka:__ZN16VGA_HERC_Handler14GetHostWritePtEj
Oka:__ZN14TSS_Descriptor5Is386Ev
Pka:__ZL24DOSBOX_RunMachineNoSleepv_628
Qka:__Z12XMS_ShutDownP7Section
Rka:__Z12MIDI_DestroyP7Section
Ska:__Z12GUS_ShutDownP7Section
Tka:__Z12EMS_ShutDownP7Section
Uka:__Z12DOS_ShutDownP7Section
Vka:__Z12CPU_ShutDownP7Section
Wka:__Z12CMS_ShutDownP7Section
Xka:__Z12CMOS_DestroyP7Section
Yka:__Z12BIOS_DestroyP7Section
Zka:__ZNSt3__212_GLOBAL__N_14makeINS_9money_putIwNS_19ostreambuf_iteratorIwNS_11char_traitsIwEEEEEEjEERT_T0_
_ka:__ZNSt3__212_GLOBAL__N_14makeINS_9money_putIcNS_19ostreambuf_iteratorIcNS_11char_traitsIcEEEEEEjEERT_T0_
$ka:__ZNSt3__212_GLOBAL__N_14makeINS_9money_getIwNS_19istreambuf_iteratorIwNS_11char_traitsIwEEEEEEjEERT_T0_
ala:__ZNSt3__212_GLOBAL__N_14makeINS_9money_getIcNS_19istreambuf_iteratorIcNS_11char_traitsIcEEEEEEjEERT_T0_
bla:__ZN15VGA_LFB_Handler14GetHostWritePtEj
cla:__ZN15DOS_Drive_Cache10ExpandNameEPc
dla:__Z11PIC_DestroyP7Section
ela:__Z11DMA_DestroyP7Section
fla:__zip_error_copy
gla:___wasi_syscall_ret
hla:__ZNK12_GLOBAL__N_116itanium_demangle14PODSmallVectorIPNS0_4NodeELm32EE5emptyEv
ila:__ZN7DOS_MCB11GetFileNameEPc
jla:__ZL10KillSwitchb
kla:__Z19DOS_GetLoadedLayoutv
lla:__Z10IO_DestroyP7Section
mla:__ZSt11__terminatePFvvE
nla:__ZNSt3__212_GLOBAL__N_14makeINS_7num_putIwNS_19ostreambuf_iteratorIwNS_11char_traitsIwEEEEEEjEERT_T0_
ola:__ZNSt3__212_GLOBAL__N_14makeINS_7num_putIcNS_19ostreambuf_iteratorIcNS_11char_traitsIcEEEEEEjEERT_T0_
pla:__ZNSt3__212_GLOBAL__N_14makeINS_7num_getIwNS_19istreambuf_iteratorIwNS_11char_traitsIwEEEEEEjEERT_T0_
qla:__ZNSt3__212_GLOBAL__N_14makeINS_7num_getIcNS_19istreambuf_iteratorIcNS_11char_traitsIcEEEEEEjEERT_T0_
rla:__ZN15keyboard_layout18main_language_codeEv
sla:__zip_entry_finalize
tla:__ZNSt3__211char_traitsIcE4moveEPcPKcm
ula:__ZN15MidiHandler_oss5CloseEv
vla:__ZN14PIC_Controller10deactivateEv
wla:__ZN10DmaChannel7SetMaskEb
xla:__ZN10Descriptor4TypeEv
yla:__ZL24DOSBOX_RunMachineNoSleepv
zla:__Z13CPU_Exceptionjj
Ala:_strtoll
Bla:__zip_source_invalidate
Cla:__ZNSt3__211char_traitsIcE4copyEPcPKcm
Dla:__ZN8isoDrive8ActivateEv
Ela:__ZN7CSerial11removeEventEt
Fla:__ZN12_GLOBAL__N_116itanium_demangle22AbstractManglingParserINS0_14ManglingParserINS_16DefaultAllocatorEEES3_E10getDerivedEv
Gla:__ZN12_GLOBAL__N_116itanium_demangle12NodeOrStringC2EPNS0_4NodeE
Hla:_get_algorithm
Ila:__ZN8Prop_intD2Ev
Jla:__ZN7Section16Function_wrapperC2EPFvPS_Eb
Kla:__ZN15DOS_Drive_Cache10IsCachedInEPNS_9CFileInfoE
Lla:__ZN10Descriptor3DPLEv
Mla:__ZN10Descriptor3BigEv
Nla:__ZL16write_cms_detectjjj
Ola:__ZZN12_GLOBAL__N_116itanium_demangle13ParameterPackC1ENS0_9NodeArrayEENKUlPNS0_4NodeEE1_clES4_
Pla:__ZZN12_GLOBAL__N_116itanium_demangle13ParameterPackC1ENS0_9NodeArrayEENKUlPNS0_4NodeEE0_clES4_
Qla:__ZNSt3__217_DeallocateCaller27__do_deallocate_handle_sizeEPvm
Rla:__ZNSt3__215basic_streambufIcNS_11char_traitsIcEEED0Ev
Sla:__Z8CPU_LIDTjj
Tla:__Z8CPU_LGDTjj
Ula:__Z16VESA_SetSVGAModet
Vla:__ZZN12_GLOBAL__N_116itanium_demangle13ParameterPackC1ENS0_9NodeArrayEENKUlPNS0_4NodeEE_clES4_
Wla:__ZN4OPL37Handler9WriteAddrEjh
Xla:__ZN20CDROM_Interface_Fake14GetAudioStatusERbS0_
Yla:__Z20CPU_Reset_AutoAdjustv
Zla:__ZNSt3__26locale2id6__initEv
_la:__ZNSt3__214basic_ifstreamIcNS_11char_traitsIcEEED0Ev
$la:__ZN11MixerObjectD2Ev
ama:__ZL8FPU_FLDZv
bma:__ZNSt3__26locale5facet16__on_zero_sharedEv
cma:b10
dma:_zip_source_supports
ema:__ZNSt3__213basic_ostreamIcNS_11char_traitsIcEEED0Ev
fma:__ZNSt3__213basic_istreamIcNS_11char_traitsIcEEED0Ev
gma:__ZNSt3__213basic_filebufIcNS_11char_traitsIcEEED0Ev
hma:__ZNSt3__210__list_impIP8PropertyNS_9allocatorIS2_EEED2Ev
ima:__ZNSt11logic_errorC2EPKc
jma:__ZNK12_GLOBAL__N_116itanium_demangle14PODSmallVectorIPNS0_4NodeELm32EE8isInlineEv
kma:__ZN8DOS_File9RemoveRefEv
lma:__ZN12_GLOBAL__N_110StringViewC2EPKcS2_
mma:__ZL21VGA_DisplayStartLatchj
nma:dynCall_iiii
oma:_strtoull
pma:__zip_unicode_to_utf8_len
qma:__ZNSt3__214__ptr_in_rangeIwEEbPKT_S3_S3_
rma:__ZNSt3__214__ptr_in_rangeIcEEbPKT_S3_S3_
sma:__ZNK12_GLOBAL__N_116itanium_demangle14PODSmallVectorIPNS0_4NodeELm8EE8isInlineEv
tma:__ZN7DOS_FCB7SetAttrEh
uma:__ZN12_GLOBAL__N_114SwapAndRestoreIbED2Ev
vma:__ZN12_GLOBAL__N_114SwapAndRestoreIPKcED2Ev
wma:__ZN12_GLOBAL__N_110StringViewC2EPKc
xma:__Z18JOYSTICK_GetMove_Yj
yma:__Z18JOYSTICK_GetMove_Xj
zma:__ZNSt3__29money_putIwNS_19ostreambuf_iteratorIwNS_11char_traitsIwEEEEED0Ev
Ama:__ZNSt3__29money_putIcNS_19ostreambuf_iteratorIcNS_11char_traitsIcEEEEED0Ev
Bma:__ZNSt3__29money_getIwNS_19istreambuf_iteratorIwNS_11char_traitsIwEEEEED0Ev
Cma:__ZNSt3__29money_getIcNS_19istreambuf_iteratorIcNS_11char_traitsIcEEEEED0Ev
Dma:__ZNSt3__210__list_impIP7SectionNS_9allocatorIS2_EEED2Ev
Ema:__ZN10cdromDrive10FileCreateEPP8DOS_FilePct
Fma:__ZNSt3__28time_getIwNS_19istreambuf_iteratorIwNS_11char_traitsIwEEEEED0Ev
Gma:__ZNSt3__28time_getIcNS_19istreambuf_iteratorIcNS_11char_traitsIcEEEEED0Ev
Hma:__ZN12_GLOBAL__N_120BumpPointerAllocatorC2Ev
Ima:__ZN12_GLOBAL__N_114SwapAndRestoreIjED2Ev
Jma:__Z13AUTOEXEC_InitP7Section
Kma:_zip_source_compress
Lma:__zip_buffer_size
Mma:__ZNSt3__27num_putIwNS_19ostreambuf_iteratorIwNS_11char_traitsIwEEEEED0Ev
Nma:__ZNSt3__27num_putIcNS_19ostreambuf_iteratorIcNS_11char_traitsIcEEEEED0Ev
Oma:__ZNSt3__27num_getIwNS_19istreambuf_iteratorIwNS_11char_traitsIwEEEEED0Ev
Pma:__ZNSt3__27num_getIcNS_19istreambuf_iteratorIcNS_11char_traitsIcEEEEED0Ev
Qma:__ZNSt3__26locale5__imp12make_classicEv
Rma:_zip_error_set
Sma:__ZNK12_GLOBAL__N_116itanium_demangle9NodeArrayixEm
Tma:__ZN8isoDrive10FileCreateEPP8DOS_FilePct
Uma:__ZN6MyFifo7setSizeEj
Vma:__ZN5DBOPL7Handler9WriteAddrEjh
Wma:__ZN11CommandLine11GetFileNameEv
Xma:__ZL9FPU_F2XM1v
Yma:_strchr
Zma:_fputs
_ma:__ZNSt3__215basic_streambufIcNS_11char_traitsIcEEE9pbackfailEi
$ma:__ZNSt3__210__list_impIP5CBindNS_9allocatorIS2_EEED2Ev
ana:__ZN12_GLOBAL__N_116itanium_demangleoRERNS0_10QualifiersES1_
bna:__ZL10EA_32_47_nv_341
cna:__ZL10EA_32_46_nv_340
dna:__ZL10EA_32_45_nv_339
ena:__ZL10EA_32_43_nv_337
fna:__ZL10EA_32_42_nv_336
gna:__ZL10EA_32_41_nv_335
hna:__ZL10EA_32_40_nv_334
ina:_getpid
jna:__ZNSt3__215basic_streambufIcNS_11char_traitsIcEEE8overflowEi
kna:__ZN6Events12write_stdoutEPKcm
lna:__ZN20CDROM_Interface_Fake11ReadSectorsEjbmm
mna:__ZN16DOS_DeviceHeader7SetNameEPKc
nna:__ZN12_GLOBAL__N_116itanium_demangle14PODSmallVectorIPNS0_24ForwardTemplateReferenceELm4EE5beginEv
ona:__Z9OPL_Writejjj
pna:__Z21IMGMOUNT_ProgramStartPP7Program
qna:__Z21BIOS_ZeroExtendedSizeb
rna:__ZNSt3__215basic_streambufIcNS_11char_traitsIcEEED2Ev
sna:__ZNSt3__211char_traitsIwE4moveEPwPKwm
tna:__ZN7DOS_FCB17ClearBlockRecsizeEv
una:__ZN5ValueC2ERKS_
vna:__ZN13device_MSCDEXC2Ev
wna:__ZN12_GLOBAL__N_116itanium_demangle14PODSmallVectorIPNS0_4NodeELm8EE5clearEv
xna:__ZL20LOADROM_ProgramStartPP7Program
yna:__ZL20LOADFIX_ProgramStartPP7Program
zna:__ZL18SHELL_ProgramStartPP7Program
Ana:__zip_entry_init
Bna:___syscall_ret
Cna:__ZNSt3__211char_traitsIwE6assignEPwmw
Dna:__ZNSt3__211char_traitsIwE4copyEPwPKwm
Ena:__ZNK12_GLOBAL__N_116itanium_demangle4Node11getBaseNameEv
Fna:__ZNK12_GLOBAL__N_116itanium_demangle16FunctionEncoding19hasRHSComponentSlowERNS_12OutputStreamE
Gna:__ZN6Events11shell_inputEPci
Hna:__ZN5DBOPL7Handler8WriteRegEjh
Ina:__Z18JOYSTICK_IsEnabledj
Jna:__Z11PAGING_InitP7Section
Kna:_wcslen
Lna:___ctype_get_mb_cur_max
Mna:__ZNSt3__28ios_base33__set_badbit_and_consider_rethrowEv
Nna:__ZN11device_LPT1C2Ev
Ona:__ZL19RESCAN_ProgramStartPP7Program
Pna:__ZL19CONFIG_ProgramStartPP7Program
Qna:__ZL11FPU_FLD_I16jj
Rna:_zip_get_name
Sna:_free_list
Tna:__ZN9MemStruct5SetPtEtt
Una:__ZN5DBOPL7Handler4InitEj
Vna:__ZN12MixerChannel8SetScaleEf
Wna:__ZN10device_NULC2Ev
Xna:dynCall_viii
Yna:__zip_string_free
Zna:__ZL18MOUNT_ProgramStartPP7Program
_na:__ZL18MIXER_ProgramStartPP7Program
$na:__ZL18INTRO_ProgramStartPP7Program
aoa:__ZL11FPU_FLD_F80j
boa:__Z13SetClock_ET4Kjj
coa:__Z13SetClock_ET3Kjj
doa:___cxa_is_pointer_type
eoa:__ZNK12_GLOBAL__N_116itanium_demangle16FunctionEncoding15hasFunctionSlowERNS_12OutputStreamE
foa:__ZNK12_GLOBAL__N_116itanium_demangle12FunctionType19hasRHSComponentSlowERNS_12OutputStreamE
goa:__ZNK10jsonstream5c_strEv
hoa:__ZN7DOS_MCB11SetFileNameEPKc
ioa:__ZN5DBOPL7HandlerC2Ev
joa:__ZN5Adlib5TimerC2Ev
koa:__ZN3LOGclEPKcddddd
loa:__Z23CALLBACK_GetDescriptionj
moa:__zip_source_set_source_archive
noa:__zip_buffer_get_8
ooa:__ZNK7Section7GetNameEv
poa:__ZN8fatDrive13getSectorSizeEv
qoa:__ZN6CEventD2Ev
roa:__ZN13DOS_InfoBlock18SetStartOfUMBChainEt
soa:__ZN10localDrive7UnMountEv
toa:__ZL17WGET_ProgramStartPP7Program
uoa:__ZL17KEYB_ProgramStartPP7Program
voa:__ZL17BOOT_ProgramStartPP7Program
woa:__ZL15DSP_FinishResetj
xoa:__Z20MSCDEX_GetVolumeNamehPc
yoa:__zip_get_encryption_implementation
zoa:__zip_buffer_free
Aoa:__ZL19Mixer_irq_importantv
Boa:__Z8CMS_InitP7Section
Coa:stackAlloc
Doa:_close
Eoa:__ZNSt3__29money_putIwNS_19ostreambuf_iteratorIwNS_11char_traitsIwEEEEED2Ev
Foa:__ZNSt3__29money_putIcNS_19ostreambuf_iteratorIcNS_11char_traitsIcEEEEED2Ev
Goa:__ZNSt3__29money_getIwNS_19istreambuf_iteratorIwNS_11char_traitsIwEEEEED2Ev
Hoa:__ZNSt3__29money_getIcNS_19istreambuf_iteratorIcNS_11char_traitsIcEEEEED2Ev
Ioa:__ZNKSt3__26vectorINS_12basic_stringIcNS_11char_traitsIcEENS_9allocatorIcEEEENS4_IS6_EEE8max_sizeEv
Joa:__ZNKSt3__26locale5__imp9use_facetEl
Koa:__ZN12CSerialDummyD2Ev
Loa:__ZN11CJAxisEvent16GetActivityCountEv
Moa:__ZL9FPU_FSQRTv
Noa:__ZL16MEM_ProgramStartPP7Program
Ooa:__Z23DOS_SetMemAllocStrategyt
Poa:__ZNSt3__28time_getIwNS_19istreambuf_iteratorIwNS_11char_traitsIwEEEEED2Ev
Qoa:__ZNSt3__28time_getIcNS_19istreambuf_iteratorIcNS_11char_traitsIcEEEEED2Ev
Roa:__ZNK12_GLOBAL__N_116itanium_demangle9NodeArray3endEv
Soa:__ZNK12_GLOBAL__N_116itanium_demangle9ArrayType19hasRHSComponentSlowERNS_12OutputStreamE
Toa:__ZNK12_GLOBAL__N_116itanium_demangle12FunctionType15hasFunctionSlowERNS_12OutputStreamE
Uoa:__ZN8fatDrive7UnMountEv
Voa:__ZN5ValueC2Eb
Woa:__ZN22VGA_ChainedEGA_Handler11readHandlerEj
Xoa:__ZL7isvalidc
Yoa:__ZL20get_clock_index_et4kv
Zoa:__Z18KEYBOARD_ClrBufferv
_oa:__ZNSt3__28ios_base5clearEj
$oa:__ZNSt3__27num_putIwNS_19ostreambuf_iteratorIwNS_11char_traitsIwEEEEED2Ev
apa:__ZNSt3__27num_putIcNS_19ostreambuf_iteratorIcNS_11char_traitsIcEEEEED2Ev
bpa:__ZNSt3__27num_getIwNS_19istreambuf_iteratorIwNS_11char_traitsIwEEEEED2Ev
cpa:__ZNSt3__27num_getIcNS_19istreambuf_iteratorIcNS_11char_traitsIcEEEEED2Ev
dpa:__ZN6MyFifo5clearEv
epa:__ZN21CDROM_Interface_Image10BinaryFileD0Ev
fpa:__ZN16DOS_DeviceHeader14SetNumSubUnitsEh
gpa:__ZN16DOS_DeviceHeader14SetDriveLetterEh
hpa:__ZN13DOS_InfoBlock16SetUMBChainStateEh
ipa:__ZL8FPU_FABSv
jpa:__ZL11FPU_FST_I32j
kpa:__ZL11FPU_FST_I16j
lpa:__Z9read_p3c0jj
mpa:_strpbrk
npa:__ZNSt3__212_GLOBAL__N_14makeINS_7codecvtIwc11__mbstate_tEEjEERT_T0_
opa:__ZNKSt3__25ctypeIwE9do_narrowEwc
ppa:__ZN22CALLBACK_HandlerObject15Get_RealPointerEv
qpa:__ZN16DOS_DeviceHeader12SetInterruptEt
rpa:__ZN16DOS_DeviceHeader12SetAttributeEt
spa:__ZN12DriveManager9DriveInfoC2Ev
tpa:__ZL8FPU_FPOPv
upa:dynCall_vidi
vpa:b9
wpa:__ZNKSt3__25ctypeIcE9do_narrowEcc
xpa:__ZN5ValueC2Ei
ypa:__ZN22CALLBACK_HandlerObjectC2Ev
zpa:__ZN16DOS_DeviceHeader19SetNextDeviceHeaderEj
Apa:__ZN16DOS_DeviceHeader11SetStrategyEt
Bpa:__ZL16EMM_GetFreePagesv
Cpa:__ZL10EA_32_87_nv_349
Dpa:__ZL10EA_32_86_nv_348
Epa:__ZL10EA_32_85_nv_347
Fpa:__ZL10EA_32_83_nv_345
Gpa:__ZL10EA_32_82_nv_344
Hpa:__ZL10EA_32_81_nv_343
Ipa:__ZL10EA_32_80_nv_342
Jpa:__Z7em_exiti
Kpa:__Z19SVGA_S3_AcceptsModej
Lpa:__Z15MAPPER_RunEventj
Mpa:__Z15JOYSTICK_Enablejb
Npa:_zip_source_decompress
Opa:__ZNSt3__26locale5__imp11make_globalEv
Ppa:__ZNSt3__215basic_streambufIcNS_11char_traitsIcEEE6setbufEPcl
Qpa:__ZN9CKeyEvent6ActiveEb
Rpa:__ZN7CMscdex8HasDriveEt
Spa:__ZN13DOS_InfoBlock19SetDiskBufferHeadPtEj
Tpa:__ZN10__cxxabiv123__fundamental_type_infoD0Ev
Upa:__Z18AcceptsMode_PVGA1Aj
Vpa:__Z15MSCDEX_HasDrivec
Wpa:__Z15JOYSTICK_Move_Yjf
Xpa:__Z15JOYSTICK_Move_Xjf
Ypa:__ZNK12_GLOBAL__N_116itanium_demangle4Node19hasRHSComponentSlowERNS_12OutputStreamE
Zpa:__ZN16VGA_PCJR_Handler13GetHostReadPtEj
_pa:__ZN13DOS_InfoBlock19SetDeviceChainStartEj
$pa:__ZN13DOS_InfoBlock11SetFirstMCBEt
aqa:__ZN10jsonstreamD2Ev
bqa:b8
cqa:b2
dqa:_swapc
eqa:__ZNK12_GLOBAL__N_116itanium_demangle4Node13getSyntaxNodeERNS_12OutputStreamE
fqa:__ZN7DOS_FCB9GetRandomERj
gqa:__ZN13Virtual_Drive10FileCreateEPP8DOS_FilePct
hqa:__ZN12_GLOBAL__N_116itanium_demangle12NodeOrStringC2Ev
iqa:__ZN10__cxxabiv121__vmi_class_type_infoD0Ev
jqa:__ZN10DmaChannel9ReachedTCEv
kqa:__ZL9read_datajj
lqa:__Z16AcceptsMode_ET4Kj
mqa:___udivdi3
nqa:__ZNSt3__215basic_streambufIcNS_11char_traitsIcEEE9underflowEv
oqa:__ZNK12_GLOBAL__N_116itanium_demangle9ArrayType12hasArraySlowERNS_12OutputStreamE
pqa:__ZN4OPL37Handler8WriteRegEjh
qqa:__ZN4OPL27Handler8WriteRegEjh
rqa:__ZN16CContinuousEventC2EPKc
sqa:__ZN11Module_baseC2EP7Section
tqa:__ZN10device_NUL22ReadFromControlChannelEjtPt
uqa:__ZN10device_CON22ReadFromControlChannelEjtPt
vqa:__ZN10__cxxabiv120__si_class_type_infoD0Ev
wqa:__ZL11FPU_FLD_I32jj
xqa:__ZNSt3__212_GLOBAL__N_14makeINS_7codecvtIDsc11__mbstate_tEEjEERT_T0_
yqa:__ZNSt3__212_GLOBAL__N_14makeINS_7codecvtIDic11__mbstate_tEEjEERT_T0_
zqa:__ZN7DOS_DTA15SetDirIDClusterEt
Aqa:__ZN15CTriggeredEventC2EPKc
Bqa:__ZN12_GLOBAL__N_116itanium_demangle14PODSmallVectorIPNS0_4NodeELm32EE3endEv
Cqa:__ZN12DriveManager9DriveInfoD2Ev
Dqa:__ZN10device_NUL21WriteToControlChannelEjtPt
Eqa:__ZN10device_EMM21WriteToControlChannelEjtPt
Fqa:__ZN10device_CON21WriteToControlChannelEjtPt
Gqa:__ZN10__cxxabiv119__pointer_type_infoD0Ev
Hqa:___cxa_guard_release
Iqa:__ZNSt3__27codecvtIwc11__mbstate_tED0Ev
Jqa:__ZNSt3__212_GLOBAL__N_14makeINS_7codecvtIcc11__mbstate_tEEjEERT_T0_
Kqa:__ZNSt11logic_errorD2Ev
Lqa:__ZNK12_GLOBAL__N_116itanium_demangle4Node15hasFunctionSlowERNS_12OutputStreamE
Mqa:__ZN7DOS_PSP14SetEnvironmentEt
Nqa:__ZN13DOS_InfoBlock15SetCurDirStructEj
Oqa:__ZN13CHandlerEvent6ActiveEb
Pqa:__ZN12_GLOBAL__N_120BumpPointerAllocatorD2Ev
Qqa:__ZN12_GLOBAL__N_116itanium_demangle14PODSmallVectorIPNS0_4NodeELm8EE3endEv
Rqa:__ZN12_GLOBAL__N_112OutputStream18setCurrentPositionEm
Sqa:__ZL23VGA_Other_VertInterruptj
Tqa:_out
Uqa:_mbrlen
Vqa:___emscripten_stdout_seek
Wqa:__ZNKSt3__29__num_getIcE12__do_widen_pERNS_8ios_baseEPc
Xqa:__ZN5ValueC2E3Hex
Yqa:__ZN12_GLOBAL__N_116itanium_demangle9NodeArrayC2Ev
Zqa:__ZN12_GLOBAL__N_116itanium_demangle14PODSmallVectorIPNS0_4NodeELm32EE5beginEv
_qa:__ZN10__cxxabiv117__class_type_infoD0Ev
$qa:__ZN10DOS_DeviceC2Ev
ara:__ZN12_GLOBAL__N_116itanium_demangle14PODSmallVectorIPNS0_4NodeELm8EE5beginEv
bra:__ZL8read_p61jj
cra:__ZL15illegal_handlerv
dra:dynCall_iii
era:b19
fra:_llvm_bswap_i32
gra:_fseek
hra:__ZNK12_GLOBAL__N_116itanium_demangle4Node12hasArraySlowERNS_12OutputStreamE
ira:__ZL10FPU_FLDL2Ev
jra:__zip_error_set_from_source
kra:__ZNSt3__211char_traitsIcE6assignERcRKc
lra:__ZN5DBOPL7Channel2OpEj
mra:__ZN15DOS_Drive_Cache10SetDirSortENS_8TDirSortE
nra:__ZN14RAMPageHandler14GetHostWritePtEj
ora:__ZN13DOS_InfoBlock18GetStartOfUMBChainEv
pra:__ZN13DOS_InfoBlock11SetFCBTableEj
qra:__ZN10copysourceD2Ev
rra:__ZL8OPL_Readjj
sra:__ZL11RENDER_Haltv
tra:__ZL10FPU_FLDLN2v
ura:__ZL10FPU_FLDLG2v
vra:__ZL10FPU_FLDL2Tv
wra:__Z11PS2_Handlerv
xra:___cxa_guard_acquire
yra:__ZNK12_GLOBAL__N_110StringView5emptyEv
zra:__ZN7DOS_PSPC2Et
Ara:__ZN4WGET17downloadSucceededEP18emscripten_fetch_t
Bra:__ZN21CDROM_Interface_Image10PauseAudioEb
Cra:__ZN14RAMPageHandler13GetHostReadPtEj
Dra:__ZL8FPU_FCHSv
Era:__ZL19VGA_Memory_ShutDownP7Section
Fra:__Z14read_p3cd_et4kjj
Gra:__ZNSt3__212_GLOBAL__N_14makeINS_5ctypeIcEEDnbjEERT_T0_T1_T2_
Hra:__ZNSt3__212_GLOBAL__N_14makeINS_10moneypunctIwLb1EEEjEERT_T0_
Ira:__ZNSt3__212_GLOBAL__N_14makeINS_10moneypunctIwLb0EEEjEERT_T0_
Jra:__ZNSt3__212_GLOBAL__N_14makeINS_10moneypunctIcLb1EEEjEERT_T0_
Kra:__ZNSt3__212_GLOBAL__N_14makeINS_10moneypunctIcLb0EEEjEERT_T0_
Lra:__ZNSt3__211char_traitsIwE6assignERwRKw
Mra:__ZN7DOS_PSP9SetParentEt
Nra:__ZL9FPU_FLDPIv
Ora:__ZL8read_p92jj
Pra:__ZL23MSCDEX_Strategy_Handlerv
Qra:__ZL10EA_16_03_nv_396
Rra:__ZL10EA_16_03_nv_305
Sra:__ZL10EA_16_02_nv_395
Tra:__ZL10EA_16_02_nv_304
Ura:__ZL10EA_16_01_nv_394
Vra:__ZL10EA_16_01_nv_303
Wra:__ZL10EA_16_00_nv_393
Xra:__ZL10EA_16_00_nv_302
Yra:__Z20CPU_PrepareExceptionjj
Zra:__ZNKSt3__28ios_base6getlocEv
_ra:__ZNK12_GLOBAL__N_116itanium_demangle4Node10printRightERNS_12OutputStreamE
$ra:__ZNK12_GLOBAL__N_110StringView4sizeEv
asa:__ZN9MemStruct5SetPtEj
bsa:__ZN8fatDrive12GetMediaByteEv
csa:__ZN7DOS_MCB9SetPSPSegEt
dsa:__ZN7DOS_DTA8SetDirIDEt
esa:__ZN7CButton6EnableEb
fsa:__ZN12_GLOBAL__N_112OutputStreamC2Ev
gsa:_fileno
hsa:___stdio_close
isa:__ZNKSt3__26vectorIPNS_6locale5facetENS_15__sso_allocatorIS3_Lm28EEEE8max_sizeEv
jsa:__ZNKSt3__26vectorIPN15DOS_Drive_Cache9CFileInfoENS_9allocatorIS3_EEE8max_sizeEv
ksa:__ZNKSt3__26vectorIN21CDROM_Interface_Image5TrackENS_9allocatorIS2_EEE8max_sizeEv
lsa:__ZN7DOS_SDAC2Ett
msa:__ZN4WGET14downloadFailedEP18emscripten_fetch_t
nsa:__ZN16DOS_DeviceHeader14GetNumSubUnitsEv
osa:__ZN13DOS_InfoBlock16GetUMBChainStateEv
psa:__ZN12_GLOBAL__N_116DefaultAllocatorD2Ev
qsa:__ZN12_GLOBAL__N_116DefaultAllocatorC2Ev
rsa:__ZN10cdromDrive6RenameEPcS0_
ssa:_vfprintf
tsa:__ZNKSt3__28time_getIwNS_19istreambuf_iteratorIwNS_11char_traitsIwEEEEE13do_date_orderEv
usa:__ZNKSt3__28time_getIcNS_19istreambuf_iteratorIcNS_11char_traitsIcEEEEE13do_date_orderEv
vsa:__ZNK12_GLOBAL__N_116itanium_demangle9NodeArray5emptyEv
wsa:__ZN7DOS_SDA8SetDriveEh
xsa:__ZN7DOS_SDA6SetPSPEt
ysa:__ZN7DOS_PSP7SetSizeEt
zsa:__ZN7DOS_MCB7SetSizeEt
Asa:__ZN6MyFifo9probeByteEv
Bsa:__ZN10__cxxabiv112_GLOBAL__N_115set_initializedEPj
Csa:__Z13MEM_BlockCopyjjj
Dsa:_zip_error_init
Esa:__zip_dirent_new
Fsa:__ZN7CSerial11receiveByteEh
Gsa:__ZN20CDROM_Interface_FakeC2Ev
Hsa:__ZN11device_LPT14ReadEPhPt
Isa:__ZL8FPU_PUSHd
Jsa:__ZL22write_crtc_index_otherjjj
Ksa:___cxx_global_var_init_4
Lsa:__ZNSt3__27codecvtIDsc11__mbstate_tED0Ev
Msa:__ZNSt3__27codecvtIDic11__mbstate_tED0Ev
Nsa:__ZNSt3__217__widen_from_utf8ILm32EED0Ev
Osa:__ZNSt3__215basic_streambufIcNS_11char_traitsIcEEE5imbueERKNS_6localeE
Psa:__ZN8isoDrive6RenameEPcS0_
Qsa:__ZN7DOS_MCB7SetTypeEh
Rsa:__ZL10EA_16_03_nv
Ssa:__ZL10EA_16_02_nv
Tsa:__ZL10EA_16_01_nv
Usa:__ZL10EA_16_00_nv
Vsa:b7
Wsa:___loc_is_allocated
Xsa:__ZNSt3__27codecvtIcc11__mbstate_tED0Ev
Ysa:__ZNSt3__216__narrow_to_utf8ILm32EED0Ev
Zsa:__ZNSt3__211char_traitsIcE2eqEcc
_sa:__ZN9DOS_DriveD2Ev
$sa:__ZN8DOS_File6AddRefEv
ata:__ZN5ValueC2Ev
bta:__ZN10Descriptor9GetOffsetEv
cta:__ZL17SN76496_set_clocki
dta:__ZNSt3__212_GLOBAL__N_14makeINS_8messagesIwEEjEERT_T0_
eta:__ZNSt3__212_GLOBAL__N_14makeINS_8messagesIcEEjEERT_T0_
fta:__ZL19VGA_DAC_UpdateColorj
gta:dynCall_vii
hta:_wctomb
ita:__zip_error_clear
jta:__ZNSt3__215__refstring_imp12_GLOBAL__N_113data_from_repEPNS1_9_Rep_baseE
kta:__ZNSt3__212_GLOBAL__N_14makeINS_7collateIwEEjEERT_T0_
lta:__ZNSt3__212_GLOBAL__N_14makeINS_7collateIcEEjEERT_T0_
mta:__ZNSt3__211char_traitsIwE11eq_int_typeEjj
nta:__ZNSt3__211char_traitsIcE11eq_int_typeEii
ota:__ZN7isoFile5CloseEv
pta:__ZN7DOS_FCB9SetRandomEj
qta:__ZN3LOGclEPKcddS1_
rta:__ZN21CDROM_Interface_Image9StopAudioEv
sta:__ZN10device_CON4SeekEPjj
tta:__ZN10device_COM4SeekEPjj
uta:__ZL10EA_16_06_nv_308
vta:__Z10trimStringPc
wta:b6
xta:_zip_error_fini
yta:_vsprintf
zta:__ZN7DOS_PSP8SetStackEj
Ata:__ZN7DOS_DTA15GetDirIDClusterEv
Bta:__ZN3HexeqERKS_
Cta:__ZN20CDROM_Interface_Fake15PlayAudioSectorEmm
Dta:__ZN11CJAxisEvent15SetOppositeAxisEPS_
Eta:__ZL16adlib_gusforwardjjj
Fta:__Z11FPU_ESC6_EAjj
Gta:__Z11FPU_ESC4_EAjj
Hta:__Z11FPU_ESC2_EAjj
Ita:__Z11FPU_ESC0_EAjj
Jta:_strerror
Kta:___cxa_pure_virtual
Lta:__ZNSt3__212_GLOBAL__N_14makeINS_5ctypeIwEEjEERT_T0_
Mta:__ZNKSt11logic_error4whatEv
Nta:__ZNK12_GLOBAL__N_110StringViewixEm
Ota:__ZN7DOS_PSP14GetEnvironmentEv
Pta:__ZN21CDROM_Interface_ImageD0Ev
Qta:__ZN16TaskStateSegmentC2Ev
Rta:__ZN12_GLOBAL__N_116itanium_demangle27ExpandedSpecialSubstitutionD0Ev
Sta:__ZL15VESA_PMSetStartv
Tta:__Z11cmos_selregjjj
Uta:__ZNSt3__212_GLOBAL__N_14makeINS_6locale5__impEjEERT_T0_
Vta:__ZN7DOS_SDA6SetDTAEj
Wta:__ZN12_GLOBAL__N_110StringViewC2Ev
Xta:__ZL10write_p3cejjj
Yta:_zip_source_keep
Zta:_decompress_allocate
_ta:__ZNSt3__210moneypunctIwLb1EED0Ev
$ta:__ZNSt3__210moneypunctIwLb0EED0Ev
aua:__ZNSt3__210moneypunctIcLb1EED0Ev
bua:__ZNSt3__210moneypunctIcLb0EED0Ev
cua:__ZN8fatDrive8FileStatEPKcP14FileStat_Block
dua:__ZN10DOS_Device15SetDeviceNumberEj
eua:_strncpy
fua:_closedir
gua:__ZNSt3__212_GLOBAL__N_14makeINS_8numpunctIwEEjEERT_T0_
hua:__ZNSt3__212_GLOBAL__N_14makeINS_8numpunctIcEEjEERT_T0_
iua:__ZNK12_GLOBAL__N_116itanium_demangle12NodeOrString6asNodeEv
jua:__ZN9DOS_Drive10EmptyCacheEv
kua:__ZN8DOS_FileD2Ev
lua:__ZN7DOS_DTA14GetSearchDriveEv
mua:__ZN6MyFifo6isFullEv
nua:__ZN3LOGclEPKcddd
oua:__ZN12_GLOBAL__N_116itanium_demangle24ForwardTemplateReferenceD0Ev
pua:__Z14vga_write_p3d4jjj
qua:__Z14getSwapRequestv
rua:_zcalloc
sua:_compress_allocate
tua:__zip_string_length
uua:__ZNSt3__212_GLOBAL__N_17countofIwEEmPKT_S4_
vua:__ZNK12_GLOBAL__N_112OutputStream18getCurrentPositionEv
wua:__ZN9imageDiskD2Ev
xua:__ZN9BatchFile5ShiftEv
yua:__ZN4OPL27Handler9WriteAddrEjh
zua:__ZN22CALLBACK_HandlerObjectD2Ev
Aua:__ZN10__cxxabiv112_GLOBAL__N_114is_initializedEPj
Bua:b18
Cua:_strcat
Dua:__ZNK12_GLOBAL__N_116itanium_demangle9NodeArray4sizeEv
Eua:__ZN9localFile14GetInformationEv
Fua:__ZN9MemStruct5SetPtEt
Gua:__ZN20CDROM_Interface_Fake9SetDeviceEPci
Hua:__ZN13Virtual_Drive7TestDirEPc
Iua:__ZN12_GLOBAL__N_116itanium_demangle22ParameterPackExpansionD0Ev
Jua:__ZN12_GLOBAL__N_116itanium_demangle22ElaboratedTypeSpefTypeD0Ev
Kua:__ZN12_GLOBAL__N_116itanium_demangle22ConversionOperatorTypeD0Ev
Lua:__ZN10__cxxabiv119__getExceptionClassEPK17_Unwind_Exception
Mua:__ZL18cga16_color_selecth
Nua:_isxdigit
Oua:__zip_dirent_free
Pua:___cxx_global_var_init_3282
Qua:___cxx_global_var_init_2202
Rua:__ZNSt3__29basic_iosIcNS_11char_traitsIcEEED2Ev
Sua:__ZNKSt3__26vectorIP13CHandlerEventNS_9allocatorIS2_EEE8max_sizeEv
Tua:__ZN7DOS_PSP9GetParentEv
Uua:__ZN4OPL37HandlerC2Ev
Vua:__ZN4OPL27HandlerC2Ev
Wua:__ZN18DOS_KeyboardLayoutD0Ev
Xua:__ZN15DescriptorTable8SetLimitEj
Yua:__ZN12_GLOBAL__N_116itanium_demangle21StructuredBindingNameD0Ev
Zua:__ZN12_GLOBAL__N_116itanium_demangle21CtorVtableSpecialNameD0Ev
_ua:_toupper
$ua:_tolower
ava:_strrchr
bva:__ZN9DOS_Drive8GetLabelEv
cva:__ZN7DOS_MCB9GetPSPSegEv
dva:__ZN7DOS_DTA8GetDirIDEv
eva:__ZN24VGA_UnchainedVGA_HandlerD0Ev
fva:__ZN24VGA_UnchainedEGA_HandlerD0Ev
gva:__ZN22CALLBACK_HandlerObject12Get_callbackEv
hva:__ZN20CDROM_Interface_FakeD0Ev
iva:__ZN16VGA_HERC_Handler13GetHostReadPtEj
jva:__ZN13DOS_InfoBlock14GetDeviceChainEv
kva:__ZN12_GLOBAL__N_116itanium_demangle20TemplateArgumentPackD0Ev
lva:__ZN12_GLOBAL__N_116itanium_demangle20PostfixQualifiedTypeD0Ev
mva:__ZN12_GLOBAL__N_116itanium_demangle20NameWithTemplateArgsD0Ev
nva:__ZN12_GLOBAL__N_116itanium_demangle20DynamicExceptionSpecD0Ev
ova:__ZL8FPU_FLD1v
pva:__Z15GFX_LosingFocusv
qva:__Z10write_p3c4jjj
rva:_mbsinit
sva:_do_read
tva:__ZNSt3__26locale5facetD0Ev
uva:__ZNSt3__26locale5__impD0Ev
vva:__ZNKSt3__26vectorIPFvPP7ProgramENS_9allocatorIS5_EEE8max_sizeEv
wva:__ZNK12_GLOBAL__N_116itanium_demangle9NodeArray5beginEv
xva:__ZNK12_GLOBAL__N_116itanium_demangle4Node7getKindEv
yva:__ZN6Config10SetStartUpEPFvvE
zva:__ZN20IO_WriteHandleObjectD2Ev
Ava:__ZN13DOS_InfoBlock10GetPointerEv
Bva:__ZN12_GLOBAL__N_116itanium_demangle19SpecialSubstitutionD0Ev
Cva:__ZN12_GLOBAL__N_116itanium_demangle19SizeofParamPackExprD0Ev
Dva:__ZN12_GLOBAL__N_116itanium_demangle19PointerToMemberTypeD0Ev
Eva:__ZN12_GLOBAL__N_116itanium_demangle19GlobalQualifiedNameD0Ev
Fva:__ZN12_GLOBAL__N_116itanium_demangle16FloatLiteralImplIfED0Ev
Gva:__ZN12_GLOBAL__N_116itanium_demangle16FloatLiteralImplIeED0Ev
Hva:__ZN12_GLOBAL__N_116itanium_demangle16FloatLiteralImplIdED0Ev
Iva:__ZN12CSerialDummy16updatePortConfigEth
Jva:__ZN10cdromDrive10FileUnlinkEPc
Kva:__ZL14CURSOR_POS_ROWh_1032
Lva:__ZL14CURSOR_POS_COLh_1028
Mva:__ZL10EA_32_05_nv_331
Nva:___cxx_global_var_init_3
Ova:___cxx_global_var_init_2
Pva:___cxx_global_var_init_1
Qva:__ZNSt3__28messagesIwED0Ev
Rva:__ZNSt3__28messagesIcED0Ev
Sva:__ZNSt3__25ctypeIcE21__classic_upper_tableEv
Tva:__ZNSt3__25ctypeIcE21__classic_lower_tableEv
Uva:__ZNSt3__212_GLOBAL__N_17countofIcEEmPKT_S4_
Vva:__ZNKSt3__26vectorIP10CBindGroupNS_9allocatorIS2_EEE8max_sizeEv
Wva:__ZN7DOS_SDA8GetDriveEv
Xva:__ZN7DOS_SDA6GetPSPEv
Yva:__ZN7DOS_PSP7GetSizeEv
Zva:__ZN7DOS_MCB7GetSizeEv
_va:__ZN3LOGclEPKcS1_S1_
$va:__ZN22VGA_LFBChanges_HandlerD0Ev
awa:__ZN22VGA_ChainedVGA_HandlerD0Ev
bwa:__ZN22VGA_ChainedEGA_HandlerD0Ev
cwa:__ZN20Prop_multival_remainD0Ev
dwa:__ZN12_GLOBAL__N_116itanium_demangle18ArraySubscriptExprD0Ev
ewa:__ZL9read_p3c7jj
fwa:__ZL20get_clock_index_et3kv
gwa:__ZL14CURSOR_POS_ROWh_869
hwa:__ZL14CURSOR_POS_COLh_868
iwa:__Z15GetClock_PVGA1Av
jwa:__Z13GetClock_ET4Kv
kwa:__Z13GetClock_ET3Kv
lwa:__ZNSt3__28numpunctIwED0Ev
mwa:__ZNSt3__28numpunctIcED0Ev
nwa:__ZNSt3__215__refstring_imp12_GLOBAL__N_113rep_from_dataEPKc
owa:__ZN9DOS_Drive6SetDirEPKc
pwa:__ZN3LOGC2E9LOG_TYPES14LOG_SEVERITIES
qwa:__ZN21VGA_TANDY_PageHandlerD0Ev
rwa:__ZN21InitPageUserROHandlerD0Ev
swa:__ZN19IO_ReadHandleObjectD2Ev
twa:__ZN12_GLOBAL__N_116itanium_demangle17VendorExtQualTypeD0Ev
uwa:__ZN10cdromDrive9RemoveDirEPc
vwa:__Z8CPU_LLDTj
wwa:__Z16CMOS_SetRegisterjh
xwa:__ZNKSt3__26vectorIP9DOS_DriveNS_9allocatorIS2_EEE8max_sizeEv
ywa:__ZNKSt3__26vectorI10copysourceNS_9allocatorIS1_EEE8max_sizeEv
zwa:__ZN8isoDrive10FileUnlinkEPc
Awa:__ZN7DOS_MCB7GetTypeEv
Bwa:__ZN6Events24supplyScreenshotIfNeededEv
Cwa:__ZN4OPL37Handler4InitEj
Dwa:__ZN4OPL27Handler4InitEj
Ewa:__ZN20VGA_TEXT_PageHandlerD0Ev
Fwa:__ZN15DescriptorTable7SetBaseEj
Gwa:__ZN12_GLOBAL__N_116itanium_demangle16StdQualifiedNameD0Ev
Hwa:__ZN12_GLOBAL__N_116itanium_demangle16FunctionEncodingD0Ev
Iwa:__ZNSt3__27collateIwED0Ev
Jwa:__ZNSt3__27collateIcED0Ev
Kwa:__ZNSt3__25ctypeIwED0Ev
Lwa:__ZN19VGA_Changes_HandlerD0Ev
Mwa:__ZN16SVGA_PVGA1A_DATA6lockedEv
Nwa:__ZN15CStickBindGroupD0Ev
Owa:__ZN15C4AxisBindGroupD0Ev
Pwa:__ZN12_GLOBAL__N_116itanium_demangle15UnnamedTypeNameD0Ev
Qwa:__ZN12_GLOBAL__N_116itanium_demangle15PixelVectorTypeD0Ev
Rwa:__ZN12_GLOBAL__N_116itanium_demangle15LiteralOperatorD0Ev
Swa:__ZN12_GLOBAL__N_116itanium_demangle15IntegerCastExprD0Ev
Twa:__ZN12_GLOBAL__N_116itanium_demangle15ConditionalExprD0Ev
Uwa:__ZN12_GLOBAL__N_116itanium_demangle15ClosureTypeNameD0Ev
Vwa:__ZN12_GLOBAL__N_116itanium_demangle15BracedRangeExprD0Ev
Wwa:__ZN10cdromDrive7MakeDirEPc
Xwa:__ZL21read_crtc_index_otherjj
Ywa:__Z17DOSBOX_RunMachinev
Zwa:__Z14MEM_NextHandlei
_wa:__ZNSt3__213basic_ostreamIcNS_11char_traitsIcEEED2Ev
$wa:__ZNSt3__213basic_istreamIcNS_11char_traitsIcEEED2Ev
axa:__ZNKSt3__26vectorIP7CButtonNS_9allocatorIS2_EEE8max_sizeEv
bxa:__ZN8isoDrive9RemoveDirEPc
cxa:__ZN7CSerial9Write_SPREh
dxa:__ZN18IllegalPageHandlerD0Ev
exa:__ZN13Virtual_Drive6RenameEPcS0_
fxa:__ZN12_GLOBAL__N_116itanium_demangle14IntegerLiteralD0Ev
gxa:__ZN12_GLOBAL__N_116itanium_demangle14ConversionExprD0Ev
hxa:__ZL14CURSOR_POS_ROWh
ixa:__ZL14CURSOR_POS_COLh
jxa:__Z15close_directoryP10dir_struct
kxa:b5
lxa:_llvm_cttz_i32
mxa:_catgets
nxa:__ZNKSt3__26vectorIP6CEventNS_9allocatorIS2_EEE8max_sizeEv
oxa:__ZNKSt3__26vectorI9SDL_EventNS_9allocatorIS1_EEE8max_sizeEv
pxa:__ZN8DOS_File8SetDriveEh
qxa:__ZN3LOGclEPKcdS1_
rxa:__ZN3LOGclEPKcS1_d
sxa:__ZN17VGA_Empty_HandlerD0Ev
txa:__ZN17VGA_Empty_Handler6writebEjj
uxa:__ZN13CFCSBindGroupD0Ev
vxa:__ZN12_GLOBAL__N_116itanium_demangle13ReferenceTypeD0Ev
wxa:__ZN12_GLOBAL__N_116itanium_demangle13QualifiedNameD0Ev
xxa:__ZN12_GLOBAL__N_116itanium_demangle13ParameterPackD0Ev
yxa:__ZN12_GLOBAL__N_116itanium_demangle13ObjCProtoNameD0Ev
zxa:__ZN12_GLOBAL__N_116itanium_demangle13NodeArrayNodeD0Ev
Axa:__ZN12_GLOBAL__N_116itanium_demangle13FunctionParamD0Ev
Bxa:__ZN12_GLOBAL__N_116itanium_demangle13EnclosingExprD0Ev
Cxa:__ZL7add_keyt
Dxa:__Z8GFX_Stopv
Exa:dynCall_ii
Fxa:___clang_call_terminate
Gxa:__ZNSt12length_errorD0Ev
Hxa:__ZNKSt3__28numpunctIwE16do_thousands_sepEv
Ixa:__ZNKSt3__25ctypeIwE8do_widenEc
Jxa:__ZN8isoDrive7MakeDirEPc
Kxa:__ZN7CButton8SetColorEh
Lxa:__ZN6CEvent8SetValueEi
Mxa:__ZN21CDROM_Interface_Image9TrackFileC2Ev
Nxa:__ZN16VGA_PCJR_HandlerD0Ev
Oxa:__ZN16VGA_MMIO_HandlerD0Ev
Pxa:__ZN16VGA_LIN4_HandlerD0Ev
Qxa:__ZN16VGA_HERC_HandlerD0Ev
Rxa:__ZN12_GLOBAL__N_116itanium_demangle12TemplateArgsD0Ev
Sxa:__ZN12_GLOBAL__N_116itanium_demangle12NoexceptSpecD0Ev
Txa:__ZN12_GLOBAL__N_116itanium_demangle12InitListExprD0Ev
Uxa:__ZN12_GLOBAL__N_116itanium_demangle12FunctionTypeD0Ev
Vxa:__ZN12_GLOBAL__N_116itanium_demangle12EnableIfAttrD0Ev
Wxa:__ZN12_GLOBAL__N_116itanium_demangle12CtorDtorNameD0Ev
Xxa:__ZN12CCHBindGroupD0Ev
Yxa:__ZN10DescriptorC2Ev
Zxa:_strtold_l
_xa:__ZNSt3__28ios_baseD0Ev
$xa:__ZNSt3__25ctypeIcED0Ev
aya:__ZNSt3__210moneypunctIwLb1EED2Ev
bya:__ZNSt3__210moneypunctIwLb0EED2Ev
cya:__ZNSt3__210moneypunctIcLb1EED2Ev
dya:__ZNSt3__210moneypunctIcLb0EED2Ev
eya:__ZNSt11logic_errorD0Ev
fya:__ZNKSt3__28numpunctIwE16do_decimal_pointEv
gya:__ZN8IMGMOUNTC2Ev
hya:__ZN7DOS_MCBC2Et
iya:__ZN7DOS_DTAC2Ej
jya:__ZN20CDROM_Interface_Fake14ChannelControlE5SCtrl
kya:__ZN16TaskStateSegment7IsValidEv
lya:__ZN16DOS_DeviceHeaderC2Ej
mya:__ZN16CContinuousEvent16GetActivityCountEv
nya:__ZN15VGA_Map_HandlerD0Ev
oya:__ZN15VGA_LFB_HandlerD0Ev
pya:__ZN15MidiHandler_ossD0Ev
qya:__ZN15InitPageHandlerD0Ev
rya:__ZN13device_MSCDEX4ReadEPhPt
sya:__ZN13Prop_multivalD0Ev
tya:__ZN13CKeyBindGroupD0Ev
uya:__ZN12_GLOBAL__N_116itanium_demangle11SpecialNameD0Ev
vya:__ZN12_GLOBAL__N_116itanium_demangle11PostfixExprD0Ev
wya:__ZN12_GLOBAL__N_116itanium_demangle11PointerTypeD0Ev
xya:__ZN12Virtual_File5WriteEPhPt
yya:__ZN11MidiHandler9PlaySysexEPhj
zya:__ZL16VESA_PMSetWindowv
Aya:__ZNSt3__220__time_get_c_storageIwEC2Ev
Bya:__ZNSt3__220__time_get_c_storageIcEC2Ev
Cya:__ZNKSt3__28numpunctIcE16do_thousands_sepEv
Dya:__ZNKSt3__28numpunctIcE16do_decimal_pointEv
Eya:__ZNKSt3__26vectorI5ValueNS_9allocatorIS1_EEE8max_sizeEv
Fya:__ZNKSt3__221__basic_string_commonILb1EE20__throw_out_of_rangeEv
Gya:__ZNKSt3__221__basic_string_commonILb1EE20__throw_length_errorEv
Hya:__ZN7LOADROMC2Ev
Iya:__ZN7LOADFIXC2Ev
Jya:__ZN21CDROM_Interface_Image15LoadUnloadMediaEb
Kya:__ZN14ROMPageHandlerD0Ev
Lya:__ZN14RAMPageHandlerD0Ev
Mya:__ZN13device_MSCDEX4SeekEPjj
Nya:__ZN12_GLOBAL__N_116itanium_demangle10VectorTypeD0Ev
Oya:__ZN12_GLOBAL__N_116itanium_demangle10PrefixExprD0Ev
Pya:__ZN12_GLOBAL__N_116itanium_demangle10NestedNameD0Ev
Qya:__ZN12_GLOBAL__N_116itanium_demangle10MemberExprD0Ev
Rya:__ZN12_GLOBAL__N_116itanium_demangle10DeleteExprD0Ev
Sya:__ZN12_GLOBAL__N_116itanium_demangle10BracedExprD0Ev
Tya:__ZN12_GLOBAL__N_116itanium_demangle10BinaryExprD0Ev
Uya:__ZN12_GLOBAL__N_116itanium_demangle10AbiTagAttrD0Ev
Vya:__ZL8read_p64jj
Wya:_strtof_l
Xya:_strtod_l
Yya:__ZNKSt3__220__vector_base_commonILb1EE20__throw_length_errorEv
Zya:__ZN6RESCANC2Ev
_ya:__ZN6CONFIGC2Ev
$ya:__ZN5DBOPL7HandlerD0Ev
aza:__ZN20CDROM_Interface_Fake15LoadUnloadMediaEb
bza:__ZN14DOS_ParamBlockC2Ej
cza:__ZN12Section_propD0Ev
dza:__ZN12Section_lineD0Ev
eza:__ZN12CSerialDummyD0Ev
fza:__Z19CALLBACK_DeAllocatej
gza:__Z16INT10_GetPelMaskRh
hza:__ZNSt3__215basic_streambufIcNS_11char_traitsIcEEE9showmanycEv
iza:__ZN5MOUNTC2Ev
jza:__ZN5MIXERC2Ev
kza:__ZN5INTROC2Ev
lza:__ZN4OPL37HandlerD0Ev
mza:__ZN4OPL27HandlerD0Ev
nza:__ZN3LOGclEPKcdd
oza:__ZN12_GLOBAL__N_116itanium_demangle9ThrowExprD0Ev
pza:__ZN12_GLOBAL__N_116itanium_demangle9LocalNameD0Ev
qza:__ZN12_GLOBAL__N_116itanium_demangle9DotSuffixD0Ev
rza:__ZN12_GLOBAL__N_116itanium_demangle9ArrayTypeD0Ev
sza:__ZN12_GLOBAL__N_112OutputStream9getBufferEv
tza:__ZN10device_EMM4ReadEPhPt
uza:__Z11DRIVES_InitP7Section
vza:__Z10MAPPER_Runb
wza:__ZN5Adlib6ModuleD0Ev
xza:__ZN4WGETC2Ev
yza:__ZN4KEYBC2Ev
zza:__ZN4BOOTC2Ev
Aza:__ZN12_GLOBAL__N_116itanium_demangle8QualTypeD0Ev
Bza:__ZN12_GLOBAL__N_116itanium_demangle8NameTypeD0Ev
Cza:__ZN12_GLOBAL__N_116itanium_demangle8FoldExprD0Ev
Dza:__ZN12_GLOBAL__N_116itanium_demangle8DtorNameD0Ev
Eza:__ZN12_GLOBAL__N_116itanium_demangle8CastExprD0Ev
Fza:__ZN12_GLOBAL__N_116itanium_demangle8CallExprD0Ev
Gza:__ZN12_GLOBAL__N_116itanium_demangle8BoolExprD0Ev
Hza:__ZN11SERIALPORTSD0Ev
Iza:__ZN11Module_baseD0Ev
Jza:__ZN11MidiHandlerD0Ev
Kza:__ZN10device_EMM4SeekEPjj
Lza:__ZN10__cxxabiv121__isOurExceptionClassEPK17_Unwind_Exception
Mza:__ZN9localFile18FlagReadOnlyMediumEv
Nza:__ZN7DOS_PSP8GetStackEv
Oza:__ZN7DOS_PSP8GetInt22Ev
Pza:__ZN3MEMC2Ev
Qza:__ZN13Virtual_DriveD0Ev
Rza:__ZN12_GLOBAL__N_116itanium_demangle7NewExprD0Ev
Sza:__ZN11Module_base13Change_ConfigEP7Section
Tza:__ZL8FPU_FTSTv
Uza:__Z13vga_read_p3d4jj
Vza:establishStackSpace
Wza:_free
Xza:__ZNKSt3__210moneypunctIwLb1EE16do_thousands_sepEv
Yza:__ZNKSt3__210moneypunctIwLb1EE16do_decimal_pointEv
Zza:__ZNKSt3__210moneypunctIwLb0EE16do_thousands_sepEv
_za:__ZNKSt3__210moneypunctIwLb0EE16do_decimal_pointEv
$za:__ZNK6Config10SecureModeEv
aAa:__ZNK12_GLOBAL__N_110StringView3endEv
bAa:__ZN7isoFile5WriteEPhPt
cAa:__ZN14CCaptionButtonD0Ev
dAa:__ZN13device_MSCDEXD0Ev
eAa:__ZN10localDrive12GetMediaByteEv
fAa:__ZN10device_COMD0Ev
gAa:__ZN10TANDYSOUNDD0Ev
hAa:b17
iAa:__ZNSt3__28messagesIwED2Ev
jAa:__ZNSt3__28messagesIcED2Ev
kAa:__ZNSt3__25ctypeIcE13classic_tableEv
lAa:__ZN7DOS_SDA6GetDTAEv
mAa:__ZN20CDROM_Interface_Fake10PauseAudioEb
nAa:__ZN12Virtual_FileD0Ev
oAa:__ZL9FPU_FUCOMjj
pAa:__ZL15IO_WriteBlockedjjj
qAa:__ZL11FPU_FST_F80j
rAa:_isspace
sAa:__ZNSt8bad_castD0Ev
tAa:__ZNSt3__27collateIwED2Ev
uAa:__ZNSt3__27collateIcED2Ev
vAa:__ZNSt3__215basic_streambufIcNS_11char_traitsIcEEE4syncEv
wAa:__ZNKSt3__27codecvtIDsc11__mbstate_tE16do_always_noconvEv
xAa:__ZNKSt3__27codecvtIDic11__mbstate_tE16do_always_noconvEv
yAa:__ZNKSt3__218__libcpp_refstring5c_strEv
zAa:__ZNK12_GLOBAL__N_110StringView5beginEv
AAa:__ZN6Config18SwitchToSecureModeEv
BAa:__ZN5Adlib7CaptureD2Ev
CAa:__ZN13Prop_multival10GetSectionEv
DAa:__ZN13CJButtonEventD0Ev
EAa:__ZN13CHandlerEventD0Ev
FAa:__ZN12CEventButtonD0Ev
GAa:__ZN12CCheckButtonD0Ev
HAa:__ZN11device_LPT1D0Ev
IAa:__ZN11Prop_stringD0Ev
JAa:__ZN10localDriveD0Ev
KAa:__ZN10cdromDriveD0Ev
LAa:__ZN10DmaChannel13Raise_RequestEv
MAa:__ZN10DmaChannel13Clear_RequestEv
NAa:dynCall_vi
OAa:__ZNKSt3__27codecvtIwc11__mbstate_tE16do_always_noconvEv
PAa:__ZNKSt3__27codecvtIcc11__mbstate_tE16do_always_noconvEv
QAa:__ZN5DBOPL8Operator14TemplateVolumeILNS0_5StateE0EEEiv
RAa:__ZN13CKeyBindGroup11ConfigStartEv
SAa:__ZN13CHandlerEvent10ButtonNameEv
TAa:__ZN11CTextButtonD0Ev
UAa:__ZN11CBindButtonD0Ev
VAa:__ZN10device_NULD0Ev
WAa:__ZN10device_EMMD0Ev
XAa:__ZN10device_COND0Ev
YAa:__ZN10DOS_DeviceD0Ev
ZAa:__ZL9read_p3cejj
_Aa:__ZL9read_p3ccjj
$Aa:__ZL9read_p3c8jj
aBa:__ZL9read_p3c6jj
bBa:__ZL16VGA_PanningLatchj
cBa:__ZN9Prop_pathD0Ev
dBa:__ZN9PIC_8259AD0Ev
eBa:__ZN9PCSPEAKERD0Ev
fBa:__ZN9DOS_ShellD0Ev
gBa:__ZN9BatchFileD0Ev
hBa:__ZN8isoDrive12GetMediaByteEv
iBa:__ZN8Prop_int6getMinEv
jBa:__ZN8Prop_int6getMaxEv
kBa:__ZN8DOS_File6IsOpenEv
lBa:__ZN7DOS_FCB8ExtendedEv
mBa:__ZN7CMscdex13GetFirstDriveEv
nBa:__ZN6PAGINGD0Ev
oBa:__ZN6MyFifo7isEmptyEv
pBa:__ZN12_GLOBAL__N_118MIXER_PushNewAudioEv
qBa:__ZN12CJButtonBindD0Ev
rBa:__ZN11CJAxisEventD0Ev
sBa:__ZL13DOS_20Handlerv
tBa:__ZL10EA_16_07_nv_400
uBa:__ZL10EA_16_07_nv_309
vBa:__ZL10EA_16_05_nv_398
wBa:__ZL10EA_16_05_nv_307
xBa:__ZL10EA_16_04_nv_397
yBa:__ZL10EA_16_04_nv_306
zBa:__Z9read_p3c4jj
ABa:_strcpy
BBa:_freelocale
CBa:___lctrans
DBa:__ZNSt3__217_DeallocateCaller9__do_callEPv
EBa:__ZNKSt3__27codecvtIDsc11__mbstate_tE13do_max_lengthEv
FBa:__ZNKSt3__27codecvtIDic11__mbstate_tE13do_max_lengthEv
GBa:__ZNKSt3__25ctypeIcE8do_widenEc
HBa:__ZN9localFileD0Ev
IBa:__ZN9Prop_boolD0Ev
JBa:__ZN8fatDriveD0Ev
KBa:__ZN18GDTDescriptorTable4SLDTEv
LBa:__ZN15DescriptorTable8GetLimitEv
MBa:__ZN10CJHatEventD0Ev
NBa:__Z12GFX_SetTitleiib
OBa:__ZNSt3__211char_traitsIcE12to_char_typeEi
PBa:__ZNKSt3__27codecvtIcc11__mbstate_tE13do_max_lengthEv
QBa:__ZN9imageDisk11getSectSizeEv
RBa:__ZN8isoDriveD0Ev
SBa:__ZN8SBLASTERD0Ev
TBa:__ZN8Prop_intD0Ev
UBa:__ZN8Prop_hexD0Ev
VBa:__ZN8JOYSTICKD0Ev
WBa:__ZN8HARDWARED0Ev
XBa:__ZN8AUTOEXECD0Ev
YBa:__ZN11PageHandler14GetHostWritePtEj
ZBa:__ZN10CJAxisBindD0Ev
_Ba:__ZL10EA_32_07_nv_424
$Ba:__ZL10EA_32_07_nv_333
aCa:__ZL10EA_32_06_nv_423
bCa:__ZL10EA_32_06_nv_332
cCa:__ZL10EA_32_03_nv_420
dCa:__ZL10EA_32_03_nv_329
eCa:__ZL10EA_32_02_nv_419
fCa:__ZL10EA_32_02_nv_328
gCa:__ZL10EA_32_01_nv_418
hCa:__ZL10EA_32_01_nv_327
iCa:__ZL10EA_32_00_nv_417
jCa:__ZL10EA_32_00_nv_326
kCa:__Z16INT10_SetPelMaskh
lCa:_zip_file_strerror
mCa:__ZSt18uncaught_exceptionv
nCa:__ZNSt3__211char_traitsIcE11to_int_typeEc
oCa:__ZNKSt3__27codecvtIDsc11__mbstate_tE11do_encodingEv
pCa:__ZNKSt3__27codecvtIDic11__mbstate_tE11do_encodingEv
qCa:__ZNKSt3__210moneypunctIcLb1EE16do_thousands_sepEv
rCa:__ZNKSt3__210moneypunctIcLb1EE16do_decimal_pointEv
sCa:__ZNKSt3__210moneypunctIcLb0EE16do_thousands_sepEv
tCa:__ZNKSt3__210moneypunctIcLb0EE16do_decimal_pointEv
uCa:__ZN9CModEventD0Ev
vCa:__ZN9CKeyEventD0Ev
wCa:__ZN8IMGMOUNTD0Ev
xCa:__ZN7isoFileD0Ev
yCa:__ZN7fatFileD0Ev
zCa:__ZN3CPUD0Ev
ACa:__ZN13Virtual_Drive10FileUnlinkEPc
BCa:__ZN11PageHandler13GetHostReadPtEj
CCa:__ZL12CaptureMouseb
DCa:_strtold
ECa:__ZNSt3__211char_traitsIwE6lengthEPKw
FCa:__ZNSt3__211char_traitsIcE6lengthEPKc
GCa:__ZNKSt3__27codecvtIcc11__mbstate_tE11do_encodingEv
HCa:__ZN9CJHatBindD0Ev
ICa:__ZN7LOADROMD0Ev
JCa:__ZN7LOADFIXD0Ev
KCa:__ZN7CSerial8Read_SPREv
LCa:__ZN7CSerial8Read_LCREv
MCa:__ZN7CButtonD0Ev
NCa:__ZN3LOGclEPKcS1_
OCa:__ZN3HexC2Ei
PCa:__ZN2IOD0Ev
QCa:__ZN20IO_WriteHandleObjectC2Ev
RCa:__ZN17VGA_Empty_Handler5readbEj
SCa:__ZN11MidiHandler7ListAllEP7Program
TCa:__Z4pingPKc
UCa:_strtof
VCa:_strtod
WCa:__ZNKSt3__28messagesIwE8do_closeEl
XCa:__ZNKSt3__28messagesIcE8do_closeEl
YCa:__ZNKSt3__218__libcpp_refstring15__uses_refcountEv
ZCa:__ZN8CKeyBindD0Ev
_Ca:__ZN6RESCAND0Ev
$Ca:__ZN6CONFIGD0Ev
aDa:__ZN19IO_ReadHandleObjectC2Ev
bDa:__ZN15CDROM_InterfaceC2Ev
cDa:__ZN13Virtual_Drive9RemoveDirEPc
dDa:__ZN11CommandLine8GetCountEv
eDa:__ZL13INT12_Handlerv
fDa:__ZL13INT11_Handlerv
gDa:__ZL10EA_16_07_nv
hDa:__ZL10EA_16_05_nv
iDa:__ZL10EA_16_04_nv
jDa:b4
kDa:__ZN6MPU401D0Ev
lDa:__ZN6MEMORYD0Ev
mDa:__ZN6DISNEYD0Ev
nDa:__ZN5MOUNTD0Ev
oDa:__ZN5MIXERD0Ev
pDa:__ZN5INTROD0Ev
qDa:__ZN16CommandInterface6eventsEv
rDa:__ZN15DescriptorTable7GetBaseEv
sDa:__ZN14TSS_DescriptorC2Ev
tDa:__ZN12_GLOBAL__N_116itanium_demangle4NodeD0Ev
uDa:__Z14CPU_SIDT_limitv
vDa:__Z14CPU_SGDT_limitv
wDa:__Z10GetKeyCode10SDL_Keysym
xDa:__zip_progress_end
yDa:__ZNKSt3__210moneypunctIwLb1EE14do_frac_digitsEv
zDa:__ZNKSt3__210moneypunctIwLb0EE14do_frac_digitsEv
ADa:__ZNKSt3__210moneypunctIcLb1EE14do_frac_digitsEv
BDa:__ZNKSt3__210moneypunctIcLb0EE14do_frac_digitsEv
CDa:__ZN8Property9getChangeEv
DDa:__ZN7DOS_PSP10GetSegmentEv
EDa:__ZN4WGETD0Ev
FDa:__ZN4KEYBD0Ev
GDa:__ZN4BOOTD0Ev
HDa:__ZN13Virtual_Drive7MakeDirEPc
IDa:__ZL13END_DMA_Eventj
JDa:__ZL10EA_32_07_nv
KDa:__ZL10EA_32_06_nv
LDa:__ZL10EA_32_03_nv
MDa:__ZL10EA_32_02_nv
NDa:__ZL10EA_32_01_nv
ODa:__ZL10EA_32_00_nv
PDa:_zip_strerror
QDa:___emscripten_environ_constructor
RDa:__ZN8Property8Get_typeEv
SDa:__ZN5TIMERD0Ev
TDa:__ZN5Adlib7HandlerC2Ev
UDa:__ZN5Adlib5Timer4StopEv
VDa:__ZN3MEMD0Ev
WDa:__Z28SecondDMAControllerAvailablev
XDa:__Z13CPU_SIDT_basev
YDa:__Z13CPU_SGDT_basev
ZDa:__ZNSt3__211char_traitsIwE11to_int_typeEw
_Da:__ZN8DOS_File8GetDriveEv
$Da:__ZN8DOS_File7GetNameEv
aEa:__ZN7CMscdex12GetNumDrivesEv
bEa:__ZN3LOGclEPKcd
cEa:__ZN15CStickBindGroup11ConfigStartEv
dEa:__ZN11Module_baseD2Ev
eEa:_zError
fEa:_isxdigit_l
gEa:__ZNK8Property17Get_Default_ValueEv
hEa:__ZN6CEvent8GetValueEv
iEa:__ZN4MIDID0Ev
jEa:__ZN4CMOSD0Ev
kEa:__ZN4BIOSD0Ev
lEa:__ZN21CDROM_Interface_Image9TrackFileD0Ev
mEa:__ZN15DOS_Drive_Cache8GetLabelEv
nEa:__ZN12CSerialDummy8setBreakEb
oEa:__ZL8overheadv
pEa:__Z4trimPc
qEa:_zip_error_code_system
rEa:__ZNSt8bad_castC2Ev
sEa:__ZN4OPL312operator_offEPNS_15operator_structE
tEa:__ZN4OPL212operator_offEPNS_15operator_structE
uEa:__ZN11MidiHandler7PlayMsgEPh
vEa:__ZN11MidiHandler4OpenEPKc
wEa:__Z17XMS_GetEnabledA20v
xEa:__Z14DOSBOX_SetLoopPFjvE
yEa:__GLOBAL__sub_I_shell_misc_cpp
zEa:_isdigit_l
AEa:_isalpha
BEa:___cxx_global_var_init
CEa:__ZN3XMSD0Ev
DEa:__ZN3GUSD0Ev
EEa:__ZN3EMSD0Ev
FEa:__ZN3DOSD0Ev
GEa:__ZN3DMAD0Ev
HEa:__ZN3CMSD0Ev
IEa:__ZN12_GLOBAL__N_116itanium_demangle4NodeD2Ev
JEa:__ZN12CSerialDummy6setRTSEb
KEa:__ZN12CSerialDummy6setDTREb
LEa:_copysignl
MEa:__ZSt19uncaught_exceptionsv
NEa:__ZN13device_MSCDEX14GetInformationEv
OEa:__ZN10device_COMD2Ev
PEa:__GLOBAL__sub_I_programs_cpp
QEa:__GLOBAL__sub_I_hardware_cpp
REa:_scalbnl
SEa:__ZNK10__cxxabiv116__shim_type_info5noop2Ev
TEa:__ZNK10__cxxabiv116__shim_type_info5noop1Ev
UEa:__ZN21CDROM_Interface_Image12InitNewMediaEv
VEa:__ZL9FPU_FCLEXv
WEa:__ZL14IO_ReadBlockedjj
XEa:__Z8CPU_SLDTv
YEa:dynCall_i
ZEa:b16
_Ea:__ZN8isoDriveD2Ev
$Ea:__ZN11device_LPT114GetInformationEv
aFa:__ZN11MixerObjectC2Ev
bFa:__ZL9read_p3c8jj_3009
cFa:__ZL8ClrQueuev
dFa:__Z22SVGA_S3_HWCursorActivev
eFa:__Z15DMA_SetWrappingj
fFa:__Z12DOS_SetErrort
gFa:__GLOBAL__sub_I_drives_cpp
hFa:_ldexp
iFa:__zip_buffer_data
jFa:__ZN8DOS_File22UpdateDateTimeFromHostEv
kFa:__ZN6Events5readyEv
lFa:__ZN5ValueD2Ev
mFa:__ZN21CDROM_Interface_Image9TrackFileD2Ev
nFa:__ZN10device_NUL14GetInformationEv
oFa:__ZN10device_EMM14GetInformationEv
pFa:__ZN10device_COM14GetInformationEv
qFa:__ZL19Mouse_ResetHardwarev
rFa:__Z8FPU_InitP7Section
sFa:__GLOBAL__sub_I_setup_cpp
tFa:__zip_source_eof
uFa:___cxa_guard_abort
vFa:__ZNSt3__212__cxx03_bool12__true_valueEv
wFa:__ZN8isoDrive8GetLabelEv
xFa:__ZN7fatFile22UpdateDateTimeFromHostEv
yFa:__ZN20CDROM_Interface_Fake9StopAudioEv
zFa:__ZN16CContinuousEvent14RepostActivityEv
AFa:__ZL18TandyDACDMAEnabledv
BFa:b14
CFa:_zip_error_code_zip
DFa:_end_of_input
EFa:__ZNSt3__221__throw_runtime_errorEPKc
FFa:__ZN12Virtual_File14GetInformationEv
GFa:_pthread_cond_wait
HFa:_isupper
IFa:_isprint
JFa:_islower
KFa:_isdigit
LFa:__ZNK8Property9GetValuesEv
MFa:__ZN15MidiHandler_oss7GetNameEv
NFa:__ZN13Virtual_Drive12GetMediaByteEv
OFa:__ZN13CKeyBindGroup9BindStartEv
PFa:__ZN10__cxxabiv116__shim_type_infoD2Ev
QFa:__Z26CPU_Disable_SkipAutoAdjustv
RFa:_zcfree
SFa:___cxx_global_var_init_5
TFa:__ZNK8Property8GetValueEv
UFa:__ZN7IO_BaseC2Ev
VFa:__ZN15CDROM_Interface12InitNewMediaEv
WFa:__Z14registerSendFnv
XFa:_fmodl
YFa:__ZN9DOS_Drive7GetInfoEv
ZFa:__ZN16CContinuousEvent9IsTriggerEv
_Fa:__ZN13Virtual_Drive11isRemovableEv
$Fa:__ZL9read_p3cajj
aGa:__Z15MEM_A20_Enabledv
bGa:__ZN15CTriggeredEvent9IsTriggerEv
cGa:__Z14MIDI_Availablev
dGa:__zip_buffer_ok
eGa:__ZNK3HexcviEv
fGa:__ZN3HexC2Ev
gGa:__ZN11MidiHandler7GetNameEv
hGa:__Z23DOS_GetMemAllocStrategyv
iGa:__GLOBAL__sub_I_cpu_cpp
jGa:b3
kGa:_catopen
lGa:__ZN7isoFile14GetInformationEv
mGa:__ZN6CEvent7GetNameEv
nGa:__ZN13Virtual_Drive10EmptyCacheEv
oGa:__ZN10localDrive11isRemovableEv
pGa:__ZN10cdromDrive11isRemovableEv
qGa:__Z21DestroyConditionFlagsv
rGa:__Z20DOSBOX_SetNormalLoopv
sGa:__ZN7fatFile14GetInformationEv
tGa:__ZN3LOGclEPKc
uGa:__ZN16CContinuousEventD0Ev
vGa:__ZN13Virtual_Drive8isRemoteEv
wGa:__ZL23RENDER_EmptyLineHandlerPKv
xGa:__ZN15CTriggeredEventD0Ev
yGa:__ZN15CDROM_InterfaceD0Ev
zGa:__ZN13Virtual_Drive7UnMountEv
AGa:dynCall_v
BGa:__ZNSt3__214__shared_countD2Ev
CGa:__ZNKSt8bad_cast4whatEv
DGa:__ZN8isoDrive11isRemovableEv
EGa:__ZN8fatDrive11isRemovableEv
FGa:__ZN7CMscdex10GetVersionEv
GGa:__ZN12CSerialDummy9updateMSREv
HGa:_zip_source_error
IGa:__ZN13device_MSCDEX5CloseEv
JGa:__ZN10localDrive8isRemoteEv
KGa:__ZN10cdromDrive8isRemoteEv
LGa:___emscripten_stdout_close
MGa:__ZN5Adlib7HandlerD0Ev
NGa:__ZN12Virtual_File5CloseEv
OGa:__Z26INT10_EGA_RIL_GetVersionPtv
PGa:__ZNSt3__26locale5facetD2Ev
QGa:__ZNSt3__212__do_nothingEPv
RGa:__ZN8isoDrive10EmptyCacheEv
SGa:setEmtStackMax
TGa:__ZN8isoDrive8isRemoteEv
UGa:__ZN8fatDrive8isRemoteEv
VGa:__ZN10device_NUL5CloseEv
WGa:__ZN10device_EMM5CloseEv
XGa:__ZN10device_CON5CloseEv
YGa:__ZN10device_COM5CloseEv
ZGa:__ZN10CBindGroupD0Ev
_Ga:__Z17PAGING_GetDirBasev
$Ga:emtStackRestore
aHa:_pthread_cond_broadcast
bHa:__ZN9DOS_Drive8ActivateEv
cHa:__ZN15CDROM_InterfaceD2Ev
dHa:__ZN11MidiHandler5CloseEv
eHa:__ZL10MIXER_StopP7Section
fHa:b15
gHa:_pkware_free
hHa:___ofl_lock
iHa:__ZN9DOS_DriveD0Ev
jHa:__ZN7CButton9BindColorEv
kHa:__Z14MEM_TotalPagesv
lHa:_pthread_mutex_unlock
mHa:_deallocate
nHa:___pthread_self_500
oHa:___pthread_self_497
pHa:___pthread_self_492
qHa:___pthread_self_483
rHa:___pthread_self_441
sHa:___pthread_self_323
tHa:___pthread_self_320
uHa:___pthread_self_134
vHa:__ZN8PropertyD0Ev
wHa:__ZN8DOS_FileD0Ev
xHa:__Z10MapSDLCodej
yHa:setAsyncState
zHa:__ZN7SectionD0Ev
AHa:__ZN7ProgramD0Ev
BHa:__ZN7CSerialD0Ev
CHa:__ZN5Adlib7HandlerD2Ev
DHa:_pthread_mutex_lock
EHa:__Znam
FHa:__ZdaPv
GHa:__ZN6CEventD0Ev
HHa:__ZN11PageHandlerD2Ev
IHa:__ZN11MidiHandlerD2Ev
JHa:__ZNSt9type_infoD2Ev
KHa:__ZNSt9exceptionD2Ev
LHa:__ZN7CButton5ClickEv
MHa:__ZN5CBindD0Ev
NHa:__ZN10CBindGroupD2Ev
OHa:stackRestore
PHa:___ofl_unlock
QHa:__ZdlPv
RHa:__ZNSt8bad_castD2Ev
SHa:__ZNSt3__211char_traitsIwE3eofEv
THa:__ZNSt3__211char_traitsIcE3eofEv
UHa:__Z9GFX_Startv
VHa:_emscripten_get_sbrk_ptr
WHa:_dummy_278
XHa:__Z8CPU_SMSWv
YHa:getEmtStackMax
ZHa:___cxa_get_globals_fast
_Ha:__ZN7CButtonD2Ev
$Ha:__Z7CPU_STRv
aIa:b1
bIa:___unlockfile
cIa:___lockfile
dIa:emtStackSave
eIa:___cxa_uncaught_exceptions
fIa:_catclose
gIa:___ctype_toupper_loc
hIa:___ctype_tolower_loc
iIa:__ZSt17__throw_bad_allocv
jIa:___errno_location
kIa:__ZL17shellstop_handlerv
lIa:__ZSt15get_new_handlerv
mIa:__ZSt13get_terminatev
nIa:__ZL15DOS_CaseMapFuncv
oIa:__get_timezone
pIa:__get_daylight
qIa:stackSave
rIa:b13
sIa:__get_environ
tIa:__ZL13INT2A_Handlerv
uIa:__ZL13INT1C_Handlerv
vIa:__get_tzname
wIa:___ctype_b_loc
xIa:__ZL12stop_handlerv
yIa:_pthread_self
zIa:b0
AIa:_dummy_610
BIa:b12
