a:HEAP8
b:HEAP16
c:HEAP32
d:HEAPU8
e:HEAPU16
f:HEAPU32
g:HEAPF32
h:HEAPF64
i:tempDoublePtr
j:EMTSTACKTOP
k:EMT_STACK_MAX
l:eb
m:__THREW__
n:threwValue
o:setjmpId
p:tempInt
q:tempBigInt
r:tempBigIntS
s:tempValue
t:tempDouble
u:nan
v:inf
w:Math_floor
x:Math_abs
y:Math_sqrt
z:Math_pow
A:Math_cos
B:Math_sin
C:Math_tan
D:Math_acos
E:Math_asin
F:Math_atan
G:Math_atan2
H:Math_exp
I:Math_log
J:Math_ceil
K:Math_imul
L:Math_min
M:Math_max
N:Math_clz32
O:abort
P:setTempRet0
Q:getTempRet0
R:abortStackOverflowEmterpreter
S:_SDL_AudioQuit
T:_SDL_CloseAudio
U:_SDL_CreateRGBSurface
V:_SDL_Delay
W:_SDL_FillRect
X:_SDL_Flip
Y:_SDL_FreeSurface
Z:_SDL_GetError
_:_SDL_GetKeyName
$:_SDL_GetModState
aa:_SDL_GetTicks
ba:_SDL_GetVideoInfo
ca:_SDL_Init
da:_SDL_InitSubSystem
ea:_SDL_JoystickClose
fa:_SDL_JoystickEventState
ga:_SDL_JoystickGetAxis
ha:_SDL_JoystickGetButton
ia:_SDL_JoystickGetHat
ja:_SDL_JoystickName
ka:_SDL_JoystickNumAxes
la:_SDL_JoystickNumButtons
ma:_SDL_JoystickNumHats
na:_SDL_JoystickOpen
oa:_SDL_JoystickUpdate
pa:_SDL_LockAudio
qa:_SDL_LockSurface
ra:_SDL_MapRGB
sa:_SDL_NumJoysticks
ta:_SDL_OpenAudio
ua:_SDL_PauseAudio
va:_SDL_PollEvent
wa:_SDL_Quit
xa:_SDL_SetAlpha
ya:_SDL_SetColors
za:_SDL_SetPalette
Aa:_SDL_SetVideoMode
Ba:_SDL_ShowCursor
Ca:_SDL_UnlockAudio
Da:_SDL_UnlockSurface
Ea:_SDL_UpperBlit
Fa:_SDL_VideoModeOK
Ga:_SDL_WM_GrabInput
Ha:_SDL_WM_SetCaption
Ia:_SDL_WaitEvent
Ja:___assert_fail
Ka:___buildEnvironment
La:___cxa_allocate_exception
Ma:___cxa_begin_catch
Na:___cxa_throw
Oa:___exception_addRef
Pa:___exception_deAdjust
Qa:___gxx_personality_v0
Ra:___lock
Sa:___map_file
Ta:___setErrNo
Ua:___syscall10
Va:___syscall15
Wa:___syscall183
Xa:___syscall194
Ya:___syscall195
Za:___syscall197
_a:___syscall20
$a:___syscall220
ab:___syscall221
bb:___syscall33
cb:___syscall38
db:___syscall39
eb:___syscall4
fb:___syscall40
gb:___syscall5
hb:___syscall54
ib:___syscall60
jb:___syscall91
kb:___unlock
lb:___wasi_fd_close
mb:___wasi_fd_fdstat_get
nb:___wasi_fd_read
ob:___wasi_fd_seek
pb:___wasi_fd_write
qb:__addDays
rb:__arraySum
sb:__emscripten_syscall_munmap
tb:__fillMouseEventData
ub:__fillPointerlockChangeEventData
vb:__findEventTarget
wb:__isLeapYear
xb:__registerMouseEventCallback
yb:__registerPointerlockChangeEventCallback
zb:__requestPointerLock
Ab:_abort
Bb:_clock_gettime
Cb:_emscripten_asm_const_i
Db:_emscripten_asm_const_ii
Eb:_emscripten_asm_const_iii
Fb:_emscripten_cancel_main_loop
Gb:_emscripten_exit_pointerlock
Hb:_emscripten_fetch
Ib:_emscripten_fetch_attr_init
Jb:_emscripten_fetch_close
Kb:_emscripten_force_exit
Lb:_emscripten_get_heap_size
Mb:_emscripten_get_now
Nb:_emscripten_get_now_is_monotonic
Ob:_emscripten_get_pointerlock_status
Pb:_emscripten_memcpy_big
Qb:_emscripten_request_pointerlock
Rb:_emscripten_resize_heap
Sb:_emscripten_set_main_loop
Tb:_emscripten_set_main_loop_timing
Ub:_emscripten_set_mousedown_callback_on_thread
Vb:_emscripten_set_pointerlockchange_callback_on_thread
Wb:_emscripten_sleep
Xb:_emscripten_sleep_with_yield
Yb:_execl
Zb:_execlp
_b:_execvp
$b:_exit
ac:_fd_close
bc:_fd_fdstat_get
cc:_fd_read
dc:_fd_seek
ec:_fd_write
fc:_getenv
gc:_getpwnam
hc:_llvm_exp2_f32
ic:_llvm_exp2_f64
jc:_llvm_stackrestore
kc:_llvm_stacksave
lc:_llvm_trap
mc:_localtime
nc:_localtime_r
oc:_mktime
pc:_putenv
qc:_strftime
rc:_strftime_l
sc:_syncSleep
tc:_time
uc:_tzset
vc:abortOnCannotGrowMemory
wc:demangle
xc:demangleAll
yc:jsStackTrace
zc:stackTrace
Ac:STACKTOP
Bc:STACK_MAX
Cc:tempFloat
Dc:asyncState
Ec:FUNCTION_TABLE_i
Fc:FUNCTION_TABLE_ii
Gc:FUNCTION_TABLE_iidiiii
Hc:FUNCTION_TABLE_iii
Ic:FUNCTION_TABLE_iiii
Jc:FUNCTION_TABLE_iiiii
Kc:FUNCTION_TABLE_iiiiid
Lc:FUNCTION_TABLE_iiiiii
Mc:FUNCTION_TABLE_iiiiiid
Nc:FUNCTION_TABLE_iiiiiii
Oc:FUNCTION_TABLE_iiiiiiii
Pc:FUNCTION_TABLE_iiiiiiiii
Qc:FUNCTION_TABLE_v
Rc:FUNCTION_TABLE_vi
Sc:FUNCTION_TABLE_vidi
Tc:FUNCTION_TABLE_vii
Uc:FUNCTION_TABLE_viii
Vc:FUNCTION_TABLE_viiii
Wc:FUNCTION_TABLE_viiiii
Xc:FUNCTION_TABLE_viiiiii
Yc:emterpret
Zc:__Z19CPU_Core_Simple_Runv
_c:__Z19CPU_Core_Normal_Runv
$c:__Z21CPU_Core_Prefetch_Runv
ad:__Z7Hq3x_32PjS_S_PKj
bd:__Z7Hq3x_16PtS_S_PKt
cd:__Z7Hq2x_32PjS_PKj
dd:__Z17CPU_Core_Full_Runv
ed:__Z7Hq2x_16PtS_PKt
fd:__Z11DOSBOX_Initv
gd:__ZN6CONFIG3RunEv
hd:_inflate
id:__ZL13DOS_21Handlerv
jd:__ZN4OPL315adlib_getsampleEPsi
kd:_deflate
ld:__ZN8IMGMOUNT3RunEv
md:__ZNSt3__29money_getIcNS_19istreambuf_iteratorIcNS_11char_traitsIcEEEEE8__do_getERS4_S4_bRKNS_6localeEjRjRbRKNS_5ctypeIcEERNS_10unique_ptrIcPFvPvEEERPcSM_
nd:__ZNSt3__29money_getIwNS_19istreambuf_iteratorIwNS_11char_traitsIwEEEEE8__do_getERS4_S4_bRKNS_6localeEjRjRbRKNS_5ctypeIwEERNS_10unique_ptrIwPFvPvEEERPwSM_
od:__ZL13INT10_Handlerv
pd:__ZN5MOUNT3RunEv
qd:__ZN3CPU13Change_ConfigEP7Section
rd:__Z18INT10_SetVideoModet
sd:__Z9FillFlagsv
td:__ZL16AdvInterp3x_16_Rv
ud:__ZL16AdvInterp3x_16_Lv
vd:__ZL16AdvInterp3x_15_Rv
wd:__ZL16AdvInterp3x_15_Lv
xd:__ZL16AdvInterp3x_32_Rv
yd:__ZL16AdvInterp3x_32_Lv
zd:__ZNSt3__212__next_primeEm
Ad:__ZN8AUTOEXECC2EP7Section
Bd:__ZN21CDROM_Interface_Image12LoadCueSheetEPc
Cd:__ZL14AdvMame3x_16_Rv
Dd:__ZL14AdvMame3x_16_Lv
Ed:__ZL13AdvMame3x_8_Rv
Fd:__ZL13AdvMame3x_8_Lv
Gd:__ZL14AdvMame3x_32_Rv
Hd:__ZL14AdvMame3x_32_Lv
Id:__ZL11GUI_StartUpP7Section
Jd:_vfscanf
Kd:__Z19CALLBACK_SetupExtrajjjb
Ld:__Z16VGA_SetupDrawingj
Md:__ZN4BOOT3RunEv
Nd:__Z15FillFlagsNoCFOFv
Od:__ZN4OPL215adlib_getsampleEPsi
Pd:__Z11RENDER_InitP7Section
Qd:__Z11DOS_ExecutePcjh
Rd:__ZL13DSP_DoCommandv
Sd:_build_tree
Td:__ZN9DOS_Shell8CMD_COPYEPc
Ud:__Z14Config_Add_SDLv
Vd:__ZL13INT67_Handlerv
Wd:_printf_core
Xd:__tr_flush_block
Yd:_fmt_fp
Zd:__ZL12CreateLayoutv
_d:__ZL16AdvInterp2x_16_Rv
$d:_decfloat
ae:__ZL16AdvInterp2x_15_Rv
be:__ZL16AdvInterp2x_16_Lv
ce:__ZL16AdvInterp2x_15_Lv
de:__ZL16AdvInterp2x_32_Rv
ee:__Z20INT10_SetupRomMemoryv
fe:_main
ge:__ZL16AdvInterp2x_32_Lv
he:__ZN15keyboard_layout18read_keyboard_fileEPKcii
ie:__ZL16GenerateDMASoundj
je:__ZN9DOS_Shell7CMD_DIREPc
ke:__ZNSt3__211__money_putIcE13__gather_infoEbbRKNS_6localeERNS_10money_base7patternERcS8_RNS_12basic_stringIcNS_11char_traitsIcEENS_9allocatorIcEEEESF_SF_Ri
le:__ZN10device_CON5WriteEPhPt
me:__ZNSt3__211__money_putIwE13__gather_infoEbbRKNS_6localeERNS_10money_base7patternERwS8_RNS_12basic_stringIcNS_11char_traitsIcEENS_9allocatorIcEEEERNS9_IwNSA_IwEENSC_IwEEEESJ_Ri
ne:_deflate_slow
oe:__ZN3GUSC2EP7Section
pe:__ZNKSt3__28time_getIwNS_19istreambuf_iteratorIwNS_11char_traitsIwEEEEE6do_getES4_S4_RNS_8ios_baseERjP2tmcc
qe:__ZNKSt3__28time_getIcNS_19istreambuf_iteratorIcNS_11char_traitsIcEEEEE6do_getES4_S4_RNS_8ios_baseERjP2tmcc
re:__ZNSt3__211__money_getIcE13__gather_infoEbRKNS_6localeERNS_10money_base7patternERcS8_RNS_12basic_stringIcNS_11char_traitsIcEENS_9allocatorIcEEEESF_SF_SF_Ri
se:__ZNSt3__211__money_getIwE13__gather_infoEbRKNS_6localeERNS_10money_base7patternERwS8_RNS_12basic_stringIcNS_11char_traitsIcEENS_9allocatorIcEEEERNS9_IwNSA_IwEENSC_IwEEEESJ_SJ_Ri
te:__ZL8DoString9STRING_OP
ue:__ZL8DoString9STRING_OP_366
ve:__ZL8DoString9STRING_OP_285
we:_inflate_table
xe:__Z9DOS_IOCTLv
ye:__ZL13INT33_Handlerv
ze:__zip_dirent_write
Ae:_zip_close
Be:_read_file
Ce:__ZN4OPL311adlib_writeEjh
De:_inflate_fast
Ee:_add_data
Fe:__ZL13INT15_Handlerv
Ge:__zip_dirent_read
He:___intscan
Ie:__ZN5DBOPL7Channel13BlockTemplateILNS_9SynthModeE11EEEPS0_PNS_4ChipEjPi
Je:_deflate_fast
Ke:__ZN5DBOPL7Channel13BlockTemplateILNS_9SynthModeE10EEEPS0_PNS_4ChipEjPi
Le:__Z15KEYBOARD_AddKey8KBD_KEYSb
Me:_realloc
Ne:__ZN4BIOSC2EP7Section
Oe:__ZL14AdvMame2x_16_Rv
Pe:__ZNKSt3__28time_getIcNS_19istreambuf_iteratorIcNS_11char_traitsIcEEEEE3getES4_S4_RNS_8ios_baseERjP2tmPKcSC_
Qe:__ZL13AdvMame2x_8_Rv
Re:__Z8CPU_IRETbj
Se:__ZL14AdvMame2x_32_Rv
Te:__ZNKSt3__28time_getIwNS_19istreambuf_iteratorIwNS_11char_traitsIwEEEEE3getES4_S4_RNS_8ios_baseERjP2tmPKwSC_
Ue:__ZN8SBLASTERC2EP7Section
Ve:__ZL14AdvMame2x_16_Lv
We:_send_tree
Xe:__ZL13AdvMame2x_8_Lv
Ye:__ZL14AdvMame2x_32_Lv
Ze:__ZL12RENDER_Resetv
_e:__ZN9DOS_Shell7ExecuteEPcS0_
$e:__ZL16MPU401_WriteDatajjj
af:__ZL22DOS_MultiplexFunctionsv
bf:__ZL11V86_Monitorv
cf:__Z21INT10_VideoState_Savejj
df:__ZN9DOS_Shell9CMD_CHDIREPc
ef:__ZN11GUSChannels15generateSamplesEPij
ff:__ZL15DOSBOX_RealInitP7Section
gf:__Z14CPU_SwitchTaskj11TSwitchTypej
hf:__Z9_2xSaI_16PtS_PKt
jf:__ZL12IRQ1_Handlerv
kf:__Z8CPU_CALLbjjj
lf:__ZL17INT13_DiskHandlerv
mf:__zip_read_cdir
nf:__Z12DOS_MakeNamePKcPcPh
of:__ZN11CommandLine21FindStringRemainBeginEPKcRNSt3__212basic_stringIcNS2_11char_traitsIcEENS2_9allocatorIcEEEE
pf:__ZNK6Config11PrintConfigEPKc
qf:__Z13CPU_Interruptjjj
rf:_hexfloat
sf:__ZN5Adlib6ModuleC2EP7Section
tf:__ZL18MSCDEX_IOCTL_Inputjh
uf:__ZL12cmos_readregjj
vf:__Z24INT10_SetVideoMode_OTHERtb
wf:__Z24INT10_VideoState_Restorejj
xf:__ZNSt3__220__get_up_to_n_digitsIcNS_19istreambuf_iteratorIcNS_11char_traitsIcEEEEEEiRT0_S5_RjRKNS_5ctypeIT_EEi
yf:__ZN10TANDYSOUNDC2EP7Section
zf:__ZN5DBOPL7Channel13BlockTemplateILNS_9SynthModeE8EEEPS0_PNS_4ChipEjPi
Af:__ZN8fatDriveC2EPKcjjjjj
Bf:__Z9_2xSaI_32PjS_PKj
Cf:__Z27VESA_GetSVGAModeInformationttt
Df:__ZNKSt3__27num_getIwNS_19istreambuf_iteratorIwNS_11char_traitsIwEEEEE17__do_get_unsignedIyEES4_S4_S4_RNS_8ios_baseERjRT_
Ef:__ZNKSt3__27num_getIcNS_19istreambuf_iteratorIcNS_11char_traitsIcEEEEE17__do_get_unsignedIyEES4_S4_S4_RNS_8ios_baseERjRT_
Ff:__ZL18CreateDefaultBindsv
Gf:__ZNKSt3__27num_getIwNS_19istreambuf_iteratorIwNS_11char_traitsIwEEEEE15__do_get_signedIxEES4_S4_S4_RNS_8ios_baseERjRT_
Hf:__ZNKSt3__27num_getIcNS_19istreambuf_iteratorIcNS_11char_traitsIcEEEEE15__do_get_signedIxEES4_S4_S4_RNS_8ios_baseERjRT_
If:__ZNKSt3__27num_getIwNS_19istreambuf_iteratorIwNS_11char_traitsIwEEEEE23__do_get_floating_pointIfEES4_S4_S4_RNS_8ios_baseERjRT_
Jf:__ZNKSt3__27num_getIwNS_19istreambuf_iteratorIwNS_11char_traitsIwEEEEE23__do_get_floating_pointIeEES4_S4_S4_RNS_8ios_baseERjRT_
Kf:__ZNKSt3__27num_getIwNS_19istreambuf_iteratorIwNS_11char_traitsIwEEEEE23__do_get_floating_pointIdEES4_S4_S4_RNS_8ios_baseERjRT_
Lf:__ZNKSt3__27num_getIcNS_19istreambuf_iteratorIcNS_11char_traitsIcEEEEE23__do_get_floating_pointIfEES4_S4_S4_RNS_8ios_baseERjRT_
Mf:__ZNKSt3__27num_getIcNS_19istreambuf_iteratorIcNS_11char_traitsIcEEEEE23__do_get_floating_pointIeEES4_S4_S4_RNS_8ios_baseERjRT_
Nf:__ZNKSt3__27num_getIcNS_19istreambuf_iteratorIcNS_11char_traitsIcEEEEE23__do_get_floating_pointIdEES4_S4_S4_RNS_8ios_baseERjRT_
Of:_window_read
Pf:__ZNKSt3__27num_getIwNS_19istreambuf_iteratorIwNS_11char_traitsIwEEEEE17__do_get_unsignedImEES4_S4_S4_RNS_8ios_baseERjRT_
Qf:__ZNKSt3__27num_getIwNS_19istreambuf_iteratorIwNS_11char_traitsIwEEEEE17__do_get_unsignedIjEES4_S4_S4_RNS_8ios_baseERjRT_
Rf:__ZNKSt3__27num_getIwNS_19istreambuf_iteratorIwNS_11char_traitsIwEEEEE17__do_get_unsignedItEES4_S4_S4_RNS_8ios_baseERjRT_
Sf:__ZNKSt3__27num_getIcNS_19istreambuf_iteratorIcNS_11char_traitsIcEEEEE17__do_get_unsignedItEES4_S4_S4_RNS_8ios_baseERjRT_
Tf:__ZNKSt3__27num_getIcNS_19istreambuf_iteratorIcNS_11char_traitsIcEEEEE17__do_get_unsignedImEES4_S4_S4_RNS_8ios_baseERjRT_
Uf:__ZNKSt3__27num_getIcNS_19istreambuf_iteratorIcNS_11char_traitsIcEEEEE17__do_get_unsignedIjEES4_S4_S4_RNS_8ios_baseERjRT_
Vf:__ZNKSt3__27num_getIwNS_19istreambuf_iteratorIwNS_11char_traitsIwEEEEE15__do_get_signedIlEES4_S4_S4_RNS_8ios_baseERjRT_
Wf:__ZNKSt3__27num_getIcNS_19istreambuf_iteratorIcNS_11char_traitsIcEEEEE15__do_get_signedIlEES4_S4_S4_RNS_8ios_baseERjRT_
Xf:__ZL13CTMIXER_Writeh
Yf:_compress_block
Zf:__ZNKSt3__27num_getIwNS_19istreambuf_iteratorIwNS_11char_traitsIwEEEEE6do_getES4_S4_RNS_8ios_baseERjRPv
_f:__ZNKSt3__27num_getIcNS_19istreambuf_iteratorIcNS_11char_traitsIcEEEEE6do_getES4_S4_RNS_8ios_baseERjRPv
$f:__Z10SHELL_Initv
ag:_crc_read
bg:__ZNSt3__220__get_up_to_n_digitsIwNS_19istreambuf_iteratorIwNS_11char_traitsIwEEEEEEiRT0_S5_RjRKNS_5ctypeIT_EEi
cg:__ZN5DBOPL7Channel13BlockTemplateILNS_9SynthModeE6EEEPS0_PNS_4ChipEjPi
dg:__ZN5DBOPL7Channel13BlockTemplateILNS_9SynthModeE7EEEPS0_PNS_4ChipEjPi
eg:__ZNSt3__214__scan_keywordINS_19istreambuf_iteratorIcNS_11char_traitsIcEEEEPKNS_12basic_stringIcS3_NS_9allocatorIcEEEENS_5ctypeIcEEEET0_RT_SE_SD_SD_RKT1_Rjb
fg:__ZNSt3__214__scan_keywordINS_19istreambuf_iteratorIwNS_11char_traitsIwEEEEPKNS_12basic_stringIwS3_NS_9allocatorIwEEEENS_5ctypeIwEEEET0_RT_SE_SD_SD_RKT1_Rjb
gg:__ZN7CMscdex8AddDriveEtPcRh
hg:__ZNSt3__26locale5__impC2Em
ig:__Z17SVGA_S3_WriteCRTCjjj
jg:__Z13Super2xSaI_16PtS_PKt
kg:__ZN4OPL211adlib_writeEjh
lg:__Z14INT10_PutPixeltthh
mg:__ZL14MSCDEX_Handlerv
ng:__ZN5DBOPL7Channel13BlockTemplateILNS_9SynthModeE5EEEPS0_PNS_4ChipEjPi
og:__ZNSt3__211__money_putIwE8__formatEPwRS2_S3_jPKwS5_RKNS_5ctypeIwEEbRKNS_10money_base7patternEwwRKNS_12basic_stringIcNS_11char_traitsIcEENS_9allocatorIcEEEERKNSE_IwNSF_IwEENSH_IwEEEESQ_i
pg:__ZNSt3__211__money_putIcE8__formatEPcRS2_S3_jPKcS5_RKNS_5ctypeIcEEbRKNS_10money_base7patternEccRKNS_12basic_stringIcNS_11char_traitsIcEENS_9allocatorIcEEEESL_SL_i
qg:_mbsrtowcs
rg:_deflate_stored
sg:__Z13SuperEagle_16PtS_PKt
tg:__ZN8fatDrive7MakeDirEPc
ug:__ZL19ExecuteGlobRegisterv
vg:__ZN9DOS_Shell5WhichEPc
wg:__Z14vga_write_p3d5jjj
xg:__ZNSt3__26__sortIRPFbRKPN15DOS_Drive_Cache9CFileInfoES5_EPS3_EEvT0_SA_T_
yg:__Z13SuperEagle_32PjS_PKj
zg:__ZN9BatchFile8ReadLineEPc
Ag:__Z15DOS_SetupTablesv
Bg:__ZNSt3__213unordered_mapINS_12basic_stringIcNS_11char_traitsIcEENS_9allocatorIcEEEEPFvRKS6_PKcPFvS8_RK10jsonstreamEENS_4hashIS6_EENS_8equal_toIS6_EENS4_INS_4pairIS7_SH_EEEEEC2ERKSP_
Cg:__Z11XMS_Handlerv
Dg:__Z13Super2xSaI_32PjS_PKj
Eg:__ZN4WGET3RunEv
Fg:__ZL17VGA_VerticalTimerj
Gg:___floatscan
Hg:__zip_source_zip_new
Ig:_buffer_write
Jg:__ZN15CStickBindGroup27ActivateJoystickBoundEventsEv
Kg:__Z9XGA_Writejjj
Lg:__ZNSt3__29__num_putIwE23__widen_and_group_floatEPcS2_S2_PwRS3_S4_RKNS_6localeE
Mg:__ZN15keyboard_layout16extract_codepageEPKc
Ng:__ZN6Config15ParseConfigFileEPKc
Og:__ZN9DOS_Shell9CMD_SUBSTEPc
Pg:__ZNSt3__29__num_putIcE23__widen_and_group_floatEPcS2_S2_S2_RS2_S3_RKNS_6localeE
Qg:__ZN7CMscdex17GetDirectoryEntryEtbjjRt
Rg:__ZN4MIDIC2EP7Section
Sg:__zip_read_eocd64
Tg:__ZL18update_cga16_colorv
Ug:__zip_source_file_or_p
Vg:_twoway_strstr
Wg:_read_data
Xg:__ZN5Value8set_boolERKNSt3__212basic_stringIcNS0_11char_traitsIcEENS0_9allocatorIcEEEE
Yg:__ZL19MPU401_WriteCommandjjj
Zg:__ZN9DOS_Shell7CMD_SETEPc
_g:__ZL12MemoryRegionv
$g:__Z18DOS_AllocateMemoryPtS_
ah:__ZN21CDROM_Interface_Image15GetRealFileNameERNSt3__212basic_stringIcNS0_11char_traitsIcEENS0_9allocatorIcEEEES7_
bh:__ZN15InitPageHandler8InitPageEjb
ch:__ZN4OPL310adlib_initEj
dh:___udivmoddi4
eh:__Z12VGA_SetupXGAv
fh:__ZN7fatFile5WriteEPhPt
gh:__Z18INT10_ScrollWindowhhhhahh
hh:__ZL12CTMIXER_Readv
ih:__ZN6Events20registerPushSDLEventEv
jh:__ZN6Events18registerScreenshotEv
kh:__ZN6Events12registerExitEv
lh:__ZNKSt3__29money_putIwNS_19ostreambuf_iteratorIwNS_11char_traitsIwEEEEE6do_putES4_bRNS_8ios_baseEwe
mh:__ZNSt3__26vectorINS_12basic_stringIcNS_11char_traitsIcEENS_9allocatorIcEEEENS4_IS6_EEE6insertENS_11__wrap_iterIPKS6_EERSA_
nh:__ZN4OPL210adlib_initEj
oh:__ZN20Prop_multival_remain8SetValueERKNSt3__212basic_stringIcNS0_11char_traitsIcEENS0_9allocatorIcEEEE
ph:__ZNKSt3__29money_putIcNS_19ostreambuf_iteratorIcNS_11char_traitsIcEEEEE6do_putES4_bRNS_8ios_baseEce
qh:__ZN4KEYB3RunEv
rh:__Z7CPU_RETbjj
sh:__ZNSt3__26vectorI9SDL_EventNS_9allocatorIS1_EEE6insertENS_11__wrap_iterIPKS1_EERS6_
th:_fill_window
uh:__ZN13Prop_multival8SetValueERKNSt3__212basic_stringIcNS0_11char_traitsIcEENS0_9allocatorIcEEEE
vh:__Z13FCB_ParsenametthPcPh
wh:__ZL14saa1099_updateiPPsi
xh:_compress_read
yh:__Z14VGA_SetupOtherv
zh:__Z13CALLBACK_InitP7Section
Ah:__Z10MIXER_InitP7Section
Bh:__ZNKSt3__29money_putIwNS_19ostreambuf_iteratorIwNS_11char_traitsIwEEEEE6do_putES4_bRNS_8ios_baseEwRKNS_12basic_stringIwS3_NS_9allocatorIwEEEE
Ch:__ZL14launchcapturesRKNSt3__212basic_stringIcNS_11char_traitsIcEENS_9allocatorIcEEEE
Dh:__Z14INT10_GetPixeltthPh
Eh:__ZNKSt3__29money_putIcNS_19ostreambuf_iteratorIcNS_11char_traitsIcEEEEE6do_putES4_bRNS_8ios_baseEcRKNS_12basic_stringIcS3_NS_9allocatorIcEEEE
Fh:__ZNSt3__26vectorIPN15DOS_Drive_Cache9CFileInfoENS_9allocatorIS3_EEE6insertENS_11__wrap_iterIPKS3_EERS8_
Gh:__ZN9DOS_Shell8CMD_DATEEPc
Hh:__ZNSt3__213basic_filebufIcNS_11char_traitsIcEEE9underflowEv
Ih:__ZN15CStickBindGroupC2Ejjb
Jh:__ZN21CDROM_Interface_Image8AddTrackERNS_5TrackERiiS2_i
Kh:_fmod
Lh:__Z12XGA_DrawWaitjj
Mh:__ZNK10__cxxabiv121__vmi_class_type_info16search_below_dstEPNS_19__dynamic_cast_infoEPKvib
Nh:__ZL9stopUsingP6Region
Oh:__Z17DOS_SetupProgramsv
Ph:__Z6get_CFv
Qh:__Z17VGA_SetupHandlersv
Rh:__zip_checkcons
Sh:__ZN11SERIALPORTSC2EP7Section
Th:_extract_zip
Uh:__ZL14MIXER_CallBackPvPhi
Vh:__ZNSt3__213basic_filebufIcNS_11char_traitsIcEEE4syncEv
Wh:__ZN5DBOPL7Channel13BlockTemplateILNS_9SynthModeE2EEEPS0_PNS_4ChipEjPi
Xh:__ZNKSt3__29money_getIwNS_19istreambuf_iteratorIwNS_11char_traitsIwEEEEE6do_getES4_S4_bRNS_8ios_baseERjRe
Yh:__ZN15DOS_Drive_Cache15CreateShortNameEPNS_9CFileInfoES1_
Zh:__ZNSt3__2L13utf8_to_utf16EPKhS1_RS1_PtS3_RS3_mNS_12codecvt_modeE
_h:__ZNKSt3__29money_getIcNS_19istreambuf_iteratorIcNS_11char_traitsIcEEEEE6do_getES4_S4_bRNS_8ios_baseERjRe
$h:__ZN8JOYSTICKC2EP7Section
ai:_adler32
bi:__ZN9DOS_Shell6CMD_IFEPc
ci:__ZL13SN76496Updatej
di:__ZNSt3__212__hash_tableINS_17__hash_value_typeINS_12basic_stringIcNS_11char_traitsIcEENS_9allocatorIcEEEEPFvRKS7_PKcPFvS9_RK10jsonstreamEEEENS_22__unordered_map_hasherIS7_SJ_NS_4hashIS7_EELb1EEENS_21__unordered_map_equalIS7_SJ_NS_8equal_toIS7_EELb1EEENS5_ISJ_EEE8__rehashEm
ei:__ZNK10__cxxabiv119__pointer_type_info9can_catchEPKNS_16__shim_type_infoERPv
fi:__ZNSt3__29__num_putIwE21__widen_and_group_intEPcS2_S2_PwRS3_S4_RKNS_6localeE
gi:___get_locale
hi:__ZN9DOS_Shell10CMD_CHOICEEPc
ii:__ZNSt3__29__num_putIcE21__widen_and_group_intEPcS2_S2_S2_RS2_S3_RKNS_6localeE
ji:__ZNKSt3__29money_getIwNS_19istreambuf_iteratorIwNS_11char_traitsIwEEEEE6do_getES4_S4_bRNS_8ios_baseERjRNS_12basic_stringIwS3_NS_9allocatorIwEEEE
ki:__ZNKSt3__29money_getIcNS_19istreambuf_iteratorIcNS_11char_traitsIcEEEEE6do_getES4_S4_bRNS_8ios_baseERjRNS_12basic_stringIcS3_NS_9allocatorIcEEEE
li:__zip_cdir_write
mi:__ZNKSt3__28time_getIwNS_19istreambuf_iteratorIwNS_11char_traitsIwEEEEE13__get_percentERS4_S4_RjRKNS_5ctypeIwEE
ni:__ZNKSt3__28time_getIcNS_19istreambuf_iteratorIcNS_11char_traitsIcEEEEE13__get_percentERS4_S4_RjRKNS_5ctypeIcEE
oi:__ZNSt3__2L13utf16_to_utf8EPKtS1_RS1_PhS3_RS3_mNS_12codecvt_modeE
pi:__ZL19Tandy_SetupTransferjb
qi:__ZN5DBOPL7Channel13BlockTemplateILNS_9SynthModeE3EEEPS0_PNS_4ChipEjPi
ri:__ZN5DBOPL7Channel13BlockTemplateILNS_9SynthModeE0EEEPS0_PNS_4ChipEjPi
si:__Z10DrawCursorv
ti:__ZN7LOADFIX3RunEv
ui:__Z10write_p3c0jjj
vi:__Z15FPU_ESC1_Normalj
wi:__ZNKSt3__28time_getIcNS_19istreambuf_iteratorIcNS_11char_traitsIcEEEEE17__get_white_spaceERS4_S4_RjRKNS_5ctypeIcEE
xi:__ZN5DBOPL4Chip5SetupEj
yi:__ZNKSt3__28time_getIwNS_19istreambuf_iteratorIwNS_11char_traitsIwEEEEE17__get_white_spaceERS4_S4_RjRKNS_5ctypeIwEE
zi:__ZNSt3__213basic_filebufIcNS_11char_traitsIcEEE8overflowEi
Ai:__ZNSt3__2L12utf8_to_ucs4EPKhS1_RS1_PjS3_RS3_mNS_12codecvt_modeE
Bi:__Z17Mouse_CursorMovedffffb
Ci:__ZN3MEM3RunEv
Di:__ZL11write_latchjjj
Ei:__ZL9HQ3x_32_Rv
Fi:__ZN9DOS_Shell9ParseLineEPc
Gi:__ZL9HQ3x_16_Rv
Hi:__ZN5DBOPL7Channel13BlockTemplateILNS_9SynthModeE1EEEPS0_PNS_4ChipEjPi
Ii:__ZN9DOS_Shell3RunEv
Ji:_compress_callback
Ki:__ZN21CDROM_Interface_Image11LoadIsoFileEPc
Li:_longest_match
Mi:__Z10GFX_Eventsv
Ni:__Z17CPU_SetSegGeneral8SegNamesj
Oi:__ZNSt3__213basic_istreamIcNS_11char_traitsIcEEE6sentryC2ERS3_b
Pi:__ZL20saa1099_write_port_wiii
Qi:__Z9WriteChartthhhb
Ri:_crc32
Si:__ZN3EMSC2EP7Section
Ti:__ZNKSt3__28messagesIwE6do_getEliiRKNS_12basic_stringIwNS_11char_traitsIwEENS_9allocatorIwEEEE
Ui:__ZN8fatDrive16FindNextInternalEjR7DOS_DTAP8direntry
Vi:__ZN5DBOPL10InitTablesEv
Wi:__ZL9HQ3x_32_Lv
Xi:__ZL15SuperEagle_32_Rv
Yi:__ZL15Super2xSaI_32_Rv
Zi:__Z15INT10_SetupVESAv
_i:__ZNSt3__29__num_getIcE19__stage2_float_loopEcRbRcPcRS4_ccRKNS_12basic_stringIcNS_11char_traitsIcEENS_9allocatorIcEEEEPjRSE_RjS4_
$i:__ZL9HQ3x_16_Lv
aj:__ZL15SuperEagle_16_Rv
bj:__ZL15Super2xSaI_16_Rv
cj:__ZL11_2xSaI_32_Rv
dj:__ZL11_2xSaI_16_Rv
ej:__ZL9HQ2x_32_Rv
fj:__ZL9HQ2x_16_Rv
gj:__ZNSt3__2L12init_wmonthsEv
hj:__ZNSt3__2L11init_monthsEv
ij:__ZN7CMscdex11RemoveDriveEt
jj:__zip_find_central_dir
kj:__ZN7LOADROM3RunEv
lj:__Z6get_OFv
mj:__ZL13INT16_Handlerv
nj:__ZN15keyboard_layout10layout_keyEjhhh
oj:__ZL24MSCDEX_Interrupt_Handlerv
pj:__ZL13INT14_Handlerv
qj:__Z15MIDI_RawOutByteh
rj:__ZNSt3__29__num_getIwE19__stage2_float_loopEwRbRcPcRS4_wwRKNS_12basic_stringIcNS_11char_traitsIcEENS_9allocatorIcEEEEPjRSE_RjPw
sj:__Z12DOS_FCBWritettt
tj:__Z17MEM_AllocatePagesjb
uj:__ZNKSt3__27codecvtIwc11__mbstate_tE6do_outERS1_PKwS5_RS5_PcS7_RS7_
vj:__ZN24VGA_UnchainedEGA_Handler12writeHandlerILb1EEEvjh
wj:__ZN24VGA_UnchainedEGA_Handler12writeHandlerILb0EEEvjh
xj:__ZN15DOS_Drive_Cache9FindFirstEPcRt
yj:__ZNKSt3__27codecvtIwc11__mbstate_tE5do_inERS1_PKcS5_RS5_PwS7_RS7_
zj:__ZN21InitPageUserROHandler8InitPageEjj
Aj:__ZL10ForwardPITf
Bj:__Z16DOS_ResizeMemorytPt
Cj:_buffer_clone
Dj:__ZN8SBLASTER17Find_Type_And_OplEP12Section_propR8SB_TYPESR8OPL_Mode
Ej:__ZNKSt3__27num_putIwNS_19ostreambuf_iteratorIwNS_11char_traitsIwEEEEE6do_putES4_RNS_8ios_baseEwd
Fj:__ZNKSt3__27num_putIwNS_19ostreambuf_iteratorIwNS_11char_traitsIwEEEEE6do_putES4_RNS_8ios_baseEwe
Gj:__ZN11CommandLine20GetParameterFromListEPKPKcRNSt3__26vectorINS4_12basic_stringIcNS4_11char_traitsIcEENS4_9allocatorIcEEEENS9_ISB_EEEE
Hj:__ZN10device_CON4ReadEPhPt
Ij:_deflateInit2_
Jj:_buffer_new
Kj:__ZN7CSerial9Write_MCREh
Lj:__ZN9DOS_Shell14GetRedirectionEPcPS0_S1_Pb
Mj:__ZNSt3__2rsIcNS_11char_traitsIcEENS_9allocatorIcEEEERNS_13basic_istreamIT_T0_EES9_RNS_12basic_stringIS6_S7_T1_EE
Nj:__ZL22EMM_PartialPageMappingv
Oj:_scanexp
Pj:__Z12DOS_OpenFilePKchPtb
Qj:__ZN13DmaController18WriteControllerRegEjjj
Rj:__ZNKSt3__27num_putIcNS_19ostreambuf_iteratorIcNS_11char_traitsIcEEEEE6do_putES4_RNS_8ios_baseEcd
Sj:__ZNKSt3__27num_putIcNS_19ostreambuf_iteratorIcNS_11char_traitsIcEEEEE6do_putES4_RNS_8ios_baseEce
Tj:__ZN8fatDrive10FileCreateEPP8DOS_FilePct
Uj:__ZNSt3__215basic_stringbufIcNS_11char_traitsIcEENS_9allocatorIcEEE8overflowEi
Vj:__ZL13FinishSetModeb
Wj:__zip_open
Xj:__Z8XGA_Readjj
Yj:__ZN12Section_prop15HandleInputlineERKNSt3__212basic_stringIcNS0_11char_traitsIcEENS0_9allocatorIcEEEE
Zj:__ZL15SuperEagle_32_Lv
_j:__ZL15Super2xSaI_32_Lv
$j:__ZL11TV3x_9_16_RPKv
ak:__ZL15SuperEagle_16_Lv
bk:__ZL15Super2xSaI_16_Lv
ck:__ZL11TV3x_9_15_RPKv
dk:__Z16SVGA_S3_ReadCRTCjj
ek:__Z12ReadCharAttrtthPt
fk:__ZL11TV3x_9_32_RPKv
gk:__ZN15DOS_Drive_Cache11FindDirInfoEPKcPc
hk:__ZN12CCHBindGroup10CheckEventEP9SDL_Event
ik:__ZL11_2xSaI_32_Lv
jk:__ZL11_2xSaI_16_Lv
kk:__ZN5DBOPL4Chip8WriteRegEjh
lk:__Z29INT10_GetFuncStateInformationj
mk:__ZL9HQ2x_32_Lv
nk:__ZL9HQ2x_16_Lv
ok:__ZN10device_EMM22ReadFromControlChannelEjtPt
pk:__Z18BIND_MappingEventsv
qk:__ZN13DOS_InfoBlock11SetLocationEt
rk:__ZL16MOUSE_BD_Handlerv
sk:__zip_read_local_ef
tk:__ZL11TV3x_9_16_LPKv
uk:__ZL11TV3x_9_15_LPKv
vk:__Z11GFX_SetSizejjjddPFv23GFX_CallBackFunctions_tE
wk:__ZL11TV3x_9_32_LPKv
xk:__Z20Mouse_ButtonReleasedh
yk:__ZL12RGB3x_9_16_RPKv
zk:__ZL12RGB3x_9_15_RPKv
Ak:__Z19Mouse_ButtonPressedh
Bk:__ZL12RGB3x_9_32_RPKv
Ck:__ZN7fatFile4ReadEPhPt
Dk:__ZNSt3__2L20utf8_to_utf16_lengthEPKhS1_mmNS_12codecvt_modeE
Ek:__ZNSt3__2L12ucs4_to_utf8EPKjS1_RS1_PhS3_RS3_mNS_12codecvt_modeE
Fk:__Z15OpenCaptureFilePKcS0_
Gk:__Z23VESA_GetSVGAInformationtt
Hk:__ZNSt3__213basic_istreamIcNS_11char_traitsIcEEE7getlineEPclc
Ik:__ZN3CMSC2EP7Section
Jk:__ZL12RGB3x_9_16_LPKv
Kk:__ZL12RGB3x_9_15_LPKv
Lk:_calloc
Mk:__ZNSt3__2L19utf8_to_ucs4_lengthEPKhS1_mmNS_12codecvt_modeE
Nk:__ZL12RGB3x_9_32_LPKv
Ok:__ZN9BatchFile4GotoEPc
Pk:__ZN4BOOT19disable_umb_ems_xmsEv
Qk:__ZL15Normal3x_9_32_RPKv
Rk:__ZL13counter_latchj
Sk:__ZL15Normal3x_9_16_RPKv
Tk:__ZL15Normal3x_9_15_RPKv
Uk:__ZL13Scan3x_9_32_RPKv
Vk:__ZL13Scan3x_9_16_RPKv
Wk:__ZL13Scan3x_9_15_RPKv
Xk:__ZL18PCSPEAKER_CallBackj
Yk:__ZN9DOS_Shell10CMD_DELETEEPc
Zk:__ZL9write_gusjjj
_k:__ZL11TV3x_8_16_RPKv
$k:__ZNSt3__212basic_stringIcNS_11char_traitsIcEENS_9allocatorIcEEE7replaceEmmPKcm
al:__ZL11TV3x_8_15_RPKv
bl:_buffer_read
cl:__ZN8fatDrive15setClusterValueEjj
dl:__ZL11TV3x_8_32_RPKv
el:_pop_arg_713
fl:__ZN5MOUNT10ListMountsEv
gl:__Z11DOS_FCBReadttt
hl:__ZN11Prop_string10CheckValueERK5Valueb
il:_malloc
jl:__ZN24VGA_UnchainedVGA_Handler12writeHandlerEjh
kl:__ZL15Normal3x_9_32_LPKv
ll:__ZN11CommandLineC2EPKcS1_
ml:__ZL15Normal3x_9_16_LPKv
nl:__ZL15Normal3x_9_15_LPKv
ol:__ZL13write_commandjjj
pl:__ZN5Adlib6Module9PortWriteEjjj
ql:_zip_open_from_source
rl:__ZL13Scan3x_9_32_LPKv
sl:__ZL13Scan3x_9_16_LPKv
tl:__ZL13Scan3x_9_15_LPKv
ul:__tr_stored_block
vl:__ZN11CommandLine10FillVectorERNSt3__26vectorINS0_12basic_stringIcNS0_11char_traitsIcEENS0_9allocatorIcEEEENS5_IS7_EEEE
wl:__ZL11TV3x_8_16_LPKv
xl:__ZL11TV3x_8_15_LPKv
yl:__ZN14AutoexecObjectD2Ev
zl:__ZL11TV2x_9_16_RPKv
Al:__ZL19ExecuteReadRegisterv
Bl:__ZL11TV2x_9_15_RPKv
Cl:__ZL11TV3x_8_32_LPKv
Dl:__ZL11TV2x_9_32_RPKv
El:__ZL25VGA_TEXT_Xlat16_Draw_Linejj
Fl:__ZL12RGB3x_8_16_RPKv
Gl:__ZL12RGB3x_8_15_RPKv
Hl:__Z21XGA_DrawLineBresenhamj
Il:__Z14INT10_LoadFontjbjjjj
Jl:__ZNSt3__29__num_getIcE17__stage2_int_loopEciPcRS2_RjcRKNS_12basic_stringIcNS_11char_traitsIcEENS_9allocatorIcEEEEPjRSD_PKc
Kl:__ZNSt3__29__num_getIwE17__stage2_int_loopEwiPcRS2_RjwRKNS_12basic_stringIcNS_11char_traitsIcEENS_9allocatorIcEEEEPjRSD_PKw
Ll:__ZN3XMSC2EP7Section
Ml:__ZL12TV3x_16_32_RPKv
Nl:__ZL12TV3x_32_16_RPKv
Ol:__ZL12RGB3x_8_32_RPKv
Pl:__ZL12TV3x_15_32_RPKv
Ql:__zip_mkstemp
Rl:_wcsrtombs
Sl:__ZL12TV3x_32_16_LPKv
Tl:__ZL12TV3x_16_32_LPKv
Ul:__ZL12TV3x_15_16_RPKv
Vl:__ZL12TV3x_16_15_RPKv
Wl:__ZL12disney_writejjj
Xl:__ZL12TV3x_15_16_LPKv
Yl:__ZL12TV3x_16_15_LPKv
Zl:__ZN6MEMORYC2EP7Section
_l:__ZL12TV3x_32_15_RPKv
$l:__ZL12TV3x_15_32_LPKv
am:__ZL14DISNEY_analyzej
bm:__ZL12RGB2x_9_16_RPKv
cm:__ZL12TV3x_32_32_RPKv
dm:__ZL12RGB2x_9_15_RPKv
em:__Z11WildFileCmpPKcS0_
fm:__ZL12TV3x_32_15_LPKv
gm:__ZN8Prop_int6SetValERK5Valuebb
hm:__ZNK5Value8ToStringEv
im:__ZL12TV3x_32_32_LPKv
jm:__ZL12RGB3x_8_16_LPKv
km:__ZL12RGB3x_8_15_LPKv
lm:__ZN12CCHBindGroup14UpdateJoystickEv
mm:__ZNSt3__215basic_stringbufIcNS_11char_traitsIcEENS_9allocatorIcEEE7seekoffExNS_8ios_base7seekdirEj
nm:__ZL12RGB2x_9_32_RPKv
om:__ZN15DOS_Drive_Cache11CreateEntryEPNS_9CFileInfoEPKcb
pm:__zip_hash_add
qm:__Z30INT10_SetSinglePaletteRegisterhh
rm:__ZL12RGB3x_8_32_LPKv
sm:__ZL15Normal2x_9_32_RPKv
tm:__ZN15keyboard_layout7map_keyEjtbb
um:__ZL18VGA_DrawSingleLinej
vm:__ZL13Scan2x_9_32_RPKv
wm:__ZL15Normal2x_9_16_RPKv
xm:__ZL15Normal2x_9_15_RPKv
ym:__Z19MEM_ReAllocatePagesRijb
zm:__ZL13Scan2x_9_16_RPKv
Am:__ZL13Scan2x_9_15_RPKv
Bm:__ZN6RESCAN3RunEv
Cm:__ZL13RGB3x_32_16_RPKv
Dm:__ZL13RGB3x_32_15_RPKv
Em:__ZL15Normal3x_8_32_RPKv
Fm:__ZL15Normal3x_8_16_RPKv
Gm:__ZL15Normal3x_8_15_RPKv
Hm:__ZL11Cache_16_32PKv
Im:__ZL11Cache_15_32PKv
Jm:__ZL12TV3x_16_16_RPKv
Km:__ZL21write_crtc_data_otherjjj
Lm:__ZL12TV3x_16_16_LPKv
Mm:__ZL12TV3x_15_15_RPKv
Nm:__ZN8isoDriveC2EcPKchRi
Om:__ZL12TV3x_15_15_LPKv
Pm:__ZL13RGB3x_32_16_LPKv
Qm:__ZL13RGB3x_32_15_LPKv
Rm:__ZL13Scan3x_8_32_RPKv
Sm:__ZL11Cache_16_15PKv
Tm:__ZL11Cache_15_16PKv
Um:__ZL13Scan3x_8_16_RPKv
Vm:__ZL13Scan3x_8_15_RPKv
Wm:__ZN13Prop_multival18make_default_valueEv
Xm:__ZL11Cache_32_32PKv
Ym:__ZN10localDrive9FindFirstEPcR7DOS_DTAb
Zm:__ZL13RGB3x_16_15_RPKv
_m:__ZL13RGB3x_15_16_RPKv
$m:__ZNSt3__212basic_stringIcNS_11char_traitsIcEENS_9allocatorIcEEE23__append_forward_unsafeIPcEERS5_T_S9_
an:__ZL13RGB3x_16_15_LPKv
bn:__ZL13RGB3x_15_16_LPKv
cn:__ZL10Cache_9_16PKv
dn:__ZL10Cache_9_15PKv
en:__ZL15NormalDh_9_16_RPKv
fn:__ZL15NormalDh_9_15_RPKv
gn:__ZL10Cache_9_32PKv
hn:__ZL13RGB3x_16_32_RPKv
jn:__ZL13RGB3x_15_32_RPKv
kn:__ZL10Cache_8_16PKv
ln:__ZL10Cache_8_15PKv
mn:__ZL10write_p3cfjjj
nn:__ZL15NormalDh_9_32_RPKv
on:__ZN7CSerial13receiveByteExEhh
pn:__ZL11Cache_32_16PKv
qn:__ZL11Cache_32_15PKv
rn:__ZL10Cache_8_32PKv
sn:__ZNSt3__212basic_stringIwNS_11char_traitsIwEENS_9allocatorIwEEE23__append_forward_unsafeIPwEERS5_T_S9_
tn:__ZNKSt3__27num_getIwNS_19istreambuf_iteratorIwNS_11char_traitsIwEEEEE6do_getES4_S4_RNS_8ios_baseERjRb
un:__ZNKSt3__27num_getIcNS_19istreambuf_iteratorIcNS_11char_traitsIcEEEEE6do_getES4_S4_RNS_8ios_baseERjRb
vn:__Z19VESA_ScanLineLengthhtRtS_S_
wn:__ZL13RGB3x_16_32_LPKv
xn:__ZL13RGB3x_15_32_LPKv
yn:__ZL11Cache_16_16PKv
zn:__ZL11Cache_15_15PKv
An:__ZNSt3__227__insertion_sort_incompleteIRPFbRKPN15DOS_Drive_Cache9CFileInfoES5_EPS3_EEbT0_SA_T_
Bn:__ZNSt3__212__hash_tableINS_17__hash_value_typeINS_12basic_stringIcNS_11char_traitsIcEENS_9allocatorIcEEEEPFvRKS7_PKcPFvS9_RK10jsonstreamEEEENS_22__unordered_map_hasherIS7_SJ_NS_4hashIS7_EELb1EEENS_21__unordered_map_equalIS7_SJ_NS_8equal_toIS7_EELb1EEENS5_ISJ_EEE4findIS7_EENS_15__hash_iteratorIPNS_11__hash_nodeISJ_PvEEEERKT_
Cn:__ZL13RGB3x_32_32_RPKv
Dn:__ZL15Normal3x_8_32_LPKv
En:__ZL14Normal3x_8_8_RPKv
Fn:__ZL15Normal3x_8_16_LPKv
Gn:__ZL15Normal3x_8_15_LPKv
Hn:__ZL12launcheditorv
In:__ZL13Scan3x_8_32_LPKv
Jn:__ZL13RGB3x_32_32_LPKv
Kn:__ZL13Scan3x_8_16_LPKv
Ln:__ZL13Scan3x_8_15_LPKv
Mn:__ZN12MixerChannel10AddSamplesIhLb1ELb0ELb1EEEvjPKT_
Nn:__ZN12MixerChannel10AddSamplesItLb1ELb0ELb1EEEvjPKT_
On:__ZL9Cache_8_8PKv
Pn:__ZNKSt3__27num_putIwNS_19ostreambuf_iteratorIwNS_11char_traitsIwEEEEE6do_putES4_RNS_8ios_baseEwb
Qn:__ZL13RGB3x_16_16_RPKv
Rn:__ZL15NormalDw_9_32_RPKv
Sn:__ZL13RGB3x_15_15_RPKv
Tn:__ZL13RGB3x_16_16_LPKv
Un:__ZL13RGB3x_15_15_LPKv
Vn:__ZL15NormalDw_9_16_RPKv
Wn:__ZL15NormalDw_9_15_RPKv
Xn:__ZL11TV2x_8_16_RPKv
Yn:__ZNKSt3__27num_putIcNS_19ostreambuf_iteratorIcNS_11char_traitsIcEEEEE6do_putES4_RNS_8ios_baseEcb
Zn:__ZL11TV2x_8_15_RPKv
_n:__Z13vga_read_p3d5jj
$n:__ZN12MixerChannel10AddSamplesIsLb1ELb1ELb1EEEvjPKT_
ao:__ZN12MixerChannel10AddSamplesIiLb1ELb1ELb1EEEvjPKT_
bo:__ZL16Normal3x_15_32_RPKv
co:__ZN8Prop_int10CheckValueERK5Valueb
eo:__ZL16Normal3x_16_32_RPKv
fo:__ZN12MixerChannel10AddSamplesIaLb1ELb1ELb1EEEvjPKT_
go:__ZL24INT10_TeletypeOutputAttrhhbh
ho:__ZL14Scan3x_16_32_RPKv
io:__ZL14Scan3x_15_32_RPKv
jo:__ZL11TV2x_8_32_RPKv
ko:__ZN10localDrive8FileOpenEPP8DOS_FilePcj
lo:__ZL11TV2x_9_16_LPKv
mo:__ZL16CreateBindGroupsv
no:__Z10GetEMSTypeP12Section_prop
oo:__send
po:__ZL14Normal3x_8_8_LPKv
qo:__ZL11TV2x_9_15_LPKv
ro:__ZL16Normal3x_16_32_LPKv
so:__ZL16Normal3x_15_32_LPKv
to:__ZN9PIC_8259AC2EP7Section
uo:__ZN9Prop_path8SetValueERKNSt3__212basic_stringIcNS0_11char_traitsIcEENS0_9allocatorIcEEEE
vo:__ZL16Normal3x_32_16_RPKv
wo:__ZL15Normal1x_9_16_RPKv
xo:__ZL15Normal1x_9_15_RPKv
yo:__ZL16Normal3x_32_15_RPKv
zo:__ZL14Scan3x_16_32_LPKv
Ao:__ZL14Scan3x_15_32_LPKv
Bo:__ZL16Normal3x_32_32_RPKv
Co:__ZL16Normal3x_16_15_RPKv
Do:__ZL16Normal3x_15_16_RPKv
Eo:__ZL14Scan3x_32_16_RPKv
Fo:__ZL14Scan3x_32_15_RPKv
Go:__Z14DOS_CreateFilePKctPtb
Ho:__ZN21InitPageUserROHandler17InitPageCheckOnlyEjj
Io:__ZL16Normal3x_32_16_LPKv
Jo:__ZL16Normal3x_32_15_LPKv
Ko:__ZL14Scan3x_32_32_RPKv
Lo:__ZL11TV2x_9_32_LPKv
Mo:__ZL16Normal3x_16_15_LPKv
No:__ZL15Normal1x_9_32_RPKv
Oo:__ZL14Scan3x_16_15_RPKv
Po:__ZL16Normal3x_15_16_LPKv
Qo:__ZL14Scan3x_15_16_RPKv
Ro:__ZL16Normal3x_32_32_LPKv
So:__ZL14Scan3x_32_16_LPKv
To:__ZL14Scan3x_32_15_LPKv
Uo:__ZL14Scan3x_16_15_LPKv
Vo:__ZL14Scan3x_15_16_LPKv
Wo:__ZL23VGA_TEXT_Herc_Draw_Linejj
Xo:__ZL14Scan3x_32_32_LPKv
Yo:__ZL9SetupVCPIv
Zo:__Z12XGA_BlitRectj
_o:__ZN9DOS_Shell11CheckConfigEPcS0_
$o:__ZL19MSCDEX_IOCTL_Optputjh
ap:__ZL12RGB2x_8_16_RPKv
bp:__ZL12RGB2x_8_15_RPKv
cp:__ZL12TV2x_15_16_RPKv
dp:__ZNSt3__27getlineIcNS_11char_traitsIcEENS_9allocatorIcEEEERNS_13basic_istreamIT_T0_EES9_RNS_12basic_stringIS6_S7_T1_EES6_
ep:__ZL12TV2x_16_15_RPKv
fp:__ZL12TV2x_16_32_RPKv
gp:__ZL10write_datajjj
hp:__ZN5Cross14ResolveHomedirERNSt3__212basic_stringIcNS0_11char_traitsIcEENS0_9allocatorIcEEEE
ip:__ZL12TV2x_32_16_RPKv
jp:__Z23Mouse_AfterNewVideoModeb
kp:__zip_dirent_process_winzip_aes
lp:__ZN15InitPageHandler17InitPageCheckOnlyEjb
mp:__ZL12TV2x_15_32_RPKv
np:__ZL9write_p60jjj
op:__ZL12RGB2x_9_16_LPKv
pp:__ZL12RGB2x_9_15_LPKv
qp:__ZL12RGB2x_8_32_RPKv
rp:__Z21DOS_FreeProcessMemoryt
sp:__ZN8fatDrive6RenameEPcS0_
tp:__ZL16Normal3x_16_16_RPKv
up:__ZL16Normal3x_15_15_RPKv
vp:__ZL12TV2x_32_15_RPKv
wp:__tr_align
xp:__ZL12TV2x_32_32_RPKv
yp:__Z22DOS_LinkUMBsToMemChaint
zp:__ZL15DISNEY_CallBackj
Ap:__ZL16Normal3x_16_16_LPKv
Bp:__ZL16Normal3x_15_15_LPKv
Cp:__ZL14Scan3x_16_16_RPKv
Dp:__ZL14Scan3x_15_15_RPKv
Ep:__ZL15Normal2x_8_32_RPKv
Fp:__ZL14Scan3x_16_16_LPKv
Gp:__ZL14Scan3x_15_15_LPKv
Hp:__ZL12RGB2x_9_32_LPKv
Ip:__ZL15Normal2x_8_16_RPKv
Jp:__ZL15Normal2x_8_15_RPKv
Kp:__ZL13Scan2x_8_32_RPKv
Lp:__ZNSt3__2L11init_wweeksEv
Mp:__ZN9DOS_Shell8CMD_PATHEPc
Np:__ZNSt3__2L10init_weeksEv
Op:__ZL13Scan2x_8_16_RPKv
Pp:__ZL13Scan2x_8_15_RPKv
Qp:__Z6get_AFv
Rp:__ZL27VGA_Draw_LIN16_Line_HWMousejj
Sp:__Z15XGA_DrawPatternj
Tp:__ZL27VGA_Draw_LIN32_Line_HWMousejj
Up:__ZN9DOS_Shell10CMD_RENAMEEPc
Vp:__ZN9DOS_Shell8CMD_ECHOEPc
Wp:__ZL15Normal2x_9_32_LPKv
Xp:__ZL15Normal2x_9_16_LPKv
Yp:__ZL15Normal2x_9_15_LPKv
Zp:_memcpy
_p:__ZNKSt3__27num_putIwNS_19ostreambuf_iteratorIwNS_11char_traitsIwEEEEE6do_putES4_RNS_8ios_baseEwl
$p:__ZNKSt3__27num_putIcNS_19ostreambuf_iteratorIcNS_11char_traitsIcEEEEE6do_putES4_RNS_8ios_baseEcl
aq:_mbrtowc
bq:__ZL13Scan2x_9_32_LPKv
cq:__ZL13Scan2x_9_16_LPKv
dq:__ZL13Scan2x_9_15_LPKv
eq:__ZNKSt3__27num_putIwNS_19ostreambuf_iteratorIwNS_11char_traitsIwEEEEE6do_putES4_RNS_8ios_baseEwm
fq:__ZL13RGB2x_16_32_RPKv
gq:__ZL13RGB2x_15_32_RPKv
hq:__ZL9write_p43jjj
iq:__ZL12TV2x_16_16_RPKv
jq:__Z9updateDPTv
kq:__ZL25VGA_Draw_VGA_Line_HWMousejj
lq:__ZL12TV2x_15_15_RPKv
mq:__ZNKSt3__27num_putIcNS_19ostreambuf_iteratorIcNS_11char_traitsIcEEEEE6do_putES4_RNS_8ios_baseEcm
nq:__zip_source_window_new
oq:__ZN11CBindButton5ClickEv
pq:__ZNK10__cxxabiv121__vmi_class_type_info16search_above_dstEPNS_19__dynamic_cast_infoEPKvS4_ib
qq:__ZN10localDrive8FindNextER7DOS_DTA
rq:__Z19DOS_FCBIncreaseSizett
sq:__ZN5ValueeqERKS_
tq:__ZL13RGB2x_32_16_RPKv
uq:__ZL15NormalDh_8_16_RPKv
vq:__ZL15NormalDh_8_15_RPKv
wq:__ZL14Normal2x_8_8_RPKv
xq:__zip_ef_parse
yq:__ZL13RGB2x_16_15_RPKv
zq:__ZL13RGB2x_32_32_RPKv
Aq:__ZL15NormalDh_8_32_RPKv
Bq:__ZL13RGB2x_32_15_RPKv
Cq:__ZN7Program6SetEnvEPKcS1_
Dq:__ZL13RGB2x_15_16_RPKv
Eq:__ZL16Normal2x_16_32_RPKv
Fq:__ZL16Normal2x_15_32_RPKv
Gq:__ZL16Normal2x_16_15_RPKv
Hq:__ZL16Normal2x_15_16_RPKv
Iq:__ZL14Scan2x_16_32_RPKv
Jq:__ZL14Scan2x_15_32_RPKv
Kq:__Z16INT10_SetCurModev
Lq:__ZL14Scan2x_16_15_RPKv
Mq:__ZN5Adlib7Capture7DoWriteEjh
Nq:__ZL14Scan2x_15_16_RPKv
Oq:__ZL15NormalDh_9_32_LPKv
Pq:__ZL15NormalDh_9_16_LPKv
Qq:__ZL15NormalDh_9_15_LPKv
Rq:__ZL25wine_hash_short_file_namePcS_
Sq:__ZL16Normal2x_32_16_RPKv
Tq:__ZL13INT1A_Handlerv
Uq:__ZL16Normal2x_32_15_RPKv
Vq:__ZL14Scan2x_32_16_RPKv
Wq:_pkware_decrypt
Xq:__ZL16Normal2x_32_32_RPKv
Yq:__ZL14Scan2x_32_15_RPKv
Zq:__ZL14NormalDh_8_8_RPKv
_q:__ZL14Scan2x_32_32_RPKv
$q:__ZL10read_latchjj
ar:__ZL13read_kcl_filePKcS0_b
br:__ZL7MakeEnvPcPt
cr:__ZL14EMM_MapSegmentjtt
dr:__ZN8isoDrive12readDirEntryEP11isoDirEntryPh
er:__ZL13RGB2x_16_16_RPKv
fr:__ZL13RGB2x_15_15_RPKv
gr:_init_block
hr:__ZN8isoDrive8FindNextER7DOS_DTA
ir:__ZN6MPU401C2EP7Section
jr:__ZL16NormalDh_16_15_RPKv
kr:__ZN5DBOPL7Channel7WriteC0EPKNS_4ChipEh
lr:__ZL16NormalDh_15_16_RPKv
mr:__ZL11TV2x_8_16_LPKv
nr:__ZL11TV2x_8_15_LPKv
or:__Z9IO_WriteWjj
pr:__ZN4BOOT9getFSFileEPKcPjS2_b
qr:__ZL16NormalDh_16_32_RPKv
rr:__ZL16NormalDh_15_32_RPKv
sr:__ZNKSt3__27num_putIwNS_19ostreambuf_iteratorIwNS_11char_traitsIwEEEEE6do_putES4_RNS_8ios_baseEwx
tr:__ZNKSt3__27num_putIcNS_19ostreambuf_iteratorIcNS_11char_traitsIcEEEEE6do_putES4_RNS_8ios_baseEcx
ur:__ZL16NormalDh_32_16_RPKv
vr:__Z9IO_WriteBjj
wr:__ZNKSt3__27num_putIwNS_19ostreambuf_iteratorIwNS_11char_traitsIwEEEEE6do_putES4_RNS_8ios_baseEwy
xr:__ZNKSt3__27num_putIcNS_19ostreambuf_iteratorIcNS_11char_traitsIcEEEEE6do_putES4_RNS_8ios_baseEcy
yr:__ZL16NormalDh_32_15_RPKv
zr:_mbsnrtowcs
Ar:__ZN8fatDrive15getFileDirEntryEPKcP8direntryPjS4_
Br:__ZL16Normal2x_16_16_RPKv
Cr:__ZL16Normal2x_15_15_RPKv
Dr:__ZN3DOSC2EP7Section
Er:__ZL15NormalDw_8_32_RPKv
Fr:__ZL14Scan2x_16_16_RPKv
Gr:__ZL14Scan2x_15_15_RPKv
Hr:__ZL11TV2x_8_32_LPKv
Ir:__ZN21CDROM_Interface_Image15CDAudioCallBackEj
Jr:__ZL16saa1099_envelopeii
Kr:__ZL15NormalDw_8_16_RPKv
Lr:__ZL15NormalDw_8_15_RPKv
Mr:__Z15DOS_SetupMemoryv
Nr:__ZL16NormalDh_32_32_RPKv
Or:__ZL12SN76496Writejjj
Pr:__ZNSt3__216__pad_and_outputIwNS_11char_traitsIwEEEENS_19ostreambuf_iteratorIT_T0_EES6_PKS4_S8_S8_RNS_8ios_baseES4_
Qr:__Z18XGA_DrawLineVectorj
Rr:__ZN5DBOPL4Chip14GenerateBlock3EjPi
Sr:__Z9IO_WriteDjj
Tr:__ZL13read_kcl_dataPhjPKcb
Ur:___shgetc
Vr:__ZN5DBOPL4Chip14GenerateBlock2EjPi
Wr:__ZN5TIMERC2EP7Section
Xr:__ZL15Normal1x_8_16_RPKv
Yr:__ZL15Normal1x_8_15_RPKv
Zr:__Z8IO_ReadWj
_r:__Z13DOS_FindFirstPctb
$r:__Z8IO_ReadBj
as:__ZL6Fetchdv
bs:_fgets
cs:__ZN5INTRO3RunEv
ds:__ZN9DOS_Shell9DoCommandEPc
es:__Z18FinishSetMode_ET4KjP17VGA_ModeExtraData
fs:___vfprintf_internal
gs:__ZL16NormalDh_16_16_RPKv
hs:__ZL16NormalDh_15_15_RPKv
is:__ZL15Normal1x_8_32_RPKv
js:__ZL14NormalDw_8_8_RPKv
ks:__ZN9PCSPEAKERC2EP7Section
ls:__ZN7CMscdex9StopAudioEh
ms:__ZL12RGB2x_8_16_LPKv
ns:__ZN5DBOPL4Chip7WriteBDEh
os:__ZL12RGB2x_8_15_LPKv
ps:__ZL12TV2x_32_16_LPKv
qs:__ZN7CSerialC2EjP11CommandLine
rs:__ZL12TV2x_16_32_LPKv
ss:__ZL12TV2x_15_16_LPKv
ts:__ZL12TV2x_16_15_LPKv
us:__ZN9DOS_Shell8CMD_TIMEEPc
vs:__ZL12TV2x_15_32_LPKv
ws:__ZN13CFCSBindGroup14UpdateJoystickEv
xs:_zip_stat_index
ys:__ZL14Normal1x_8_8_RPKv
zs:__Z8IO_ReadDj
As:__ZNSt3__216__pad_and_outputIcNS_11char_traitsIcEEEENS_19ostreambuf_iteratorIT_T0_EES6_PKS4_S8_S8_RNS_8ios_baseES4_
Bs:__ZL13INT74_Handlerv
Cs:__ZL12TV2x_32_15_LPKv
Ds:__Z20PCSPEAKER_SetCounterjj
Es:__ZN7CMscdex14ChannelControlEh5SCtrl
Fs:__ZL12RGB2x_8_32_LPKv
Gs:__ZL12TV2x_32_32_LPKv
Hs:__ZNSt3__215basic_stringbufIcNS_11char_traitsIcEENS_9allocatorIcEEE3strERKNS_12basic_stringIcS2_S4_EE
Is:__ZNK10__cxxabiv120__si_class_type_info16search_below_dstEPNS_19__dynamic_cast_infoEPKvib
Js:__ZN8fatDrive15getClusterValueEj
Ks:__Z8VGA_InitP7Section
Ls:__Z17CPU_CheckSegmentsv
Ms:__ZL15Normal2x_8_32_LPKv
Ns:__ZL15Normal2x_8_16_LPKv
Os:__ZL15Normal2x_8_15_LPKv
Ps:__ZNK6Config22GetSectionFromPropertyEPKc
Qs:__ZN15DOS_Drive_Cache11GetLongNameEPNS_9CFileInfoEPc
Rs:__ZL13Scan2x_8_32_LPKv
Ss:__ZL13Scan2x_8_16_LPKv
Ts:__ZL13Scan2x_8_15_LPKv
Us:_deflateReset
Vs:__ZN12MixerChannel10AddSamplesIhLb0ELb0ELb1EEEvjPKT_
Ws:__ZN12MixerChannel10AddSamplesItLb0ELb0ELb1EEEvjPKT_
Xs:__ZN9DOS_Shell8CMD_TYPEEPc
Ys:__zip_file_get_end
Zs:__ZL16NormalDw_16_32_RPKv
_s:__ZL16NormalDw_15_32_RPKv
$s:__ZN8isoDrive6lookupEP11isoDirEntryPKc
at:_inflateReset2
bt:__ZNSt3__224__put_character_sequenceIcNS_11char_traitsIcEEEERNS_13basic_ostreamIT_T0_EES7_PKS4_m
ct:__ZN10localDrive10FileUnlinkEPc
dt:___dynamic_cast
et:__ZN8fatDrive17addDirectoryEntryEj8direntry
ft:__ZNSt3__213basic_ostreamIcNS_11char_traitsIcEEElsEj
gt:__ZNSt3__213basic_ostreamIcNS_11char_traitsIcEEElsEi
ht:__ZNSt3__213basic_ostreamIcNS_11char_traitsIcEEElsEb
it:__ZNSt3__26vectorIN21CDROM_Interface_Image5TrackENS_9allocatorIS2_EEE21__push_back_slow_pathIKS2_EEvRT_
jt:__ZL6Fetchwv
kt:__ZN5MIXER3RunEv
lt:__ZN12MixerChannel10AddSamplesIsLb0ELb1ELb1EEEvjPKT_
mt:__ZN12MixerChannel10AddSamplesIiLb0ELb1ELb1EEEvjPKT_
nt:__ZL13RGB2x_16_32_LPKv
ot:__ZL13RGB2x_15_32_LPKv
pt:__ZNSt3__213basic_ostreamIcNS_11char_traitsIcEEElsEd
qt:__ZN12MixerChannel10AddSamplesIaLb0ELb1ELb1EEEvjPKT_
rt:__ZL19InitializeJoysticksv
st:___stdio_write
tt:__ZL16NormalDw_16_15_RPKv
ut:__ZL16NormalDw_15_16_RPKv
vt:__ZL16NormalDw_32_16_RPKv
wt:__ZL16NormalDw_32_15_RPKv
xt:__ZL13RGB2x_32_16_LPKv
yt:__ZL16NormalDw_32_32_RPKv
zt:__ZL12TV2x_16_16_LPKv
At:__ZNSt3__26vectorINS_12basic_stringIcNS_11char_traitsIcEENS_9allocatorIcEEEENS4_IS6_EEE21__push_back_slow_pathIS6_EEvOT_
Bt:__ZN3GUSD2Ev
Ct:__ZL12TV2x_15_15_LPKv
Dt:__ZNSt3__213basic_filebufIcNS_11char_traitsIcEEE5imbueERKNS_6localeE
Et:__ZN6ConfigC2EP11CommandLine
Ft:__ZNSt3__24listIP5CBindNS_9allocatorIS2_EEE6removeERKS2_
Gt:__ZL13RGB2x_32_32_LPKv
Ht:__ZN15CStickBindGroup14UpdateJoystickEv
It:__ZL13RGB2x_32_15_LPKv
Jt:__ZNK12Section_prop7Get_hexERKNSt3__212basic_stringIcNS0_11char_traitsIcEENS0_9allocatorIcEEEE
Kt:__ZL15NormalDh_8_32_LPKv
Lt:__ZL15NormalDh_8_16_LPKv
Mt:__ZL15NormalDh_8_15_LPKv
Nt:__ZL14Normal2x_8_8_LPKv
Ot:__ZL10write_p3c9jjj
Pt:__ZL16Normal1x_16_32_RPKv
Qt:__ZL16Normal1x_15_32_RPKv
Rt:__ZN7CSerial7GetcharEPhS0_bj
St:__ZL13RGB2x_16_15_LPKv
Tt:___mo_lookup
Ut:__ZL14NormalDh_8_8_LPKv
Vt:__Z25INT10_SetBackgroundBorderh
Wt:__ZL13RGB2x_15_16_LPKv
Xt:__ZL16Normal1x_32_16_RPKv
Yt:__Z10write_p3c5jjj
Zt:__ZL16Normal2x_16_32_LPKv
_t:__ZL16Normal2x_15_32_LPKv
$t:__ZL16Normal1x_32_15_RPKv
au:__ZL16Normal1x_16_15_RPKv
bu:_mbtowc
cu:__ZL16Normal1x_15_16_RPKv
du:__ZL14Scan2x_16_32_LPKv
eu:__ZL14Scan2x_15_32_LPKv
fu:__ZL16Normal1x_32_32_RPKv
gu:___fdopen
hu:__ZNSt3__212basic_stringIwNS_11char_traitsIwEENS_9allocatorIwEEE21__grow_by_and_replaceEmmmmmmPKw
iu:__ZL16Normal2x_32_16_LPKv
ju:__ZL16Normal2x_32_15_LPKv
ku:__ZL6Fetchbv
lu:__ZN10DmaChannel5WriteEjPh
mu:__ZL16Normal2x_16_15_LPKv
nu:__ZL14Scan2x_32_16_LPKv
ou:__Z17XGA_DrawRectanglej
pu:__ZL16Normal2x_15_16_LPKv
qu:__ZL14Scan2x_32_15_LPKv
ru:__ZN6CONFIG9writeconfENSt3__212basic_stringIcNS0_11char_traitsIcEENS0_9allocatorIcEEEEb
su:__ZL14Scan2x_16_15_LPKv
tu:__ZL16NormalDw_16_16_RPKv
uu:__ZL16NormalDw_15_15_RPKv
vu:__ZL14Scan2x_15_16_LPKv
wu:__ZL16Normal2x_32_32_LPKv
xu:__ZN5Value7set_hexERKNSt3__212basic_stringIcNS0_11char_traitsIcEENS0_9allocatorIcEEEE
yu:__ZL14Scan2x_32_32_LPKv
zu:__Z16PAGING_PageFaultjjj
Au:__zip_read_eocd
Bu:__ZL15NormalDw_9_32_LPKv
Cu:__ZL15NormalDw_9_16_LPKv
Du:__ZL15NormalDw_9_15_LPKv
Eu:__Z32INT10_EGA_RIL_WriteRegisterRangehhtj
Fu:__Z7CPU_JMPbjjj
Gu:__ZN3CPUC2EP7Section
Hu:__ZN6Config8ParseEnvEPPc
Iu:__ZL13RGB2x_16_16_LPKv
Ju:__ZL13RGB2x_15_15_LPKv
Ku:__ZN9DOS_Shell8CMD_GOTOEPc
Lu:_zip_source_read
Mu:__ZL16Normal1x_16_16_RPKv
Nu:__ZL16Normal1x_15_15_RPKv
Ou:__ZNKSt3__27num_putIwNS_19ostreambuf_iteratorIwNS_11char_traitsIwEEEEE6do_putES4_RNS_8ios_baseEwPKv
Pu:__ZN7CSerial11handleEventEt
Qu:__Z10DOS_RenamePKcS0_
Ru:__ZL16NormalDh_16_32_LPKv
Su:__ZL16NormalDh_15_32_LPKv
Tu:__ZN8fatDrive15directoryChangeEjP8direntryi
Uu:__ZL15write_tandy_regh
Vu:__ZN14AutoexecObject7InstallERKNSt3__212basic_stringIcNS0_11char_traitsIcEENS0_9allocatorIcEEEE
Wu:__ZNKSt3__27num_putIcNS_19ostreambuf_iteratorIcNS_11char_traitsIcEEEEE6do_putES4_RNS_8ios_baseEcPKv
Xu:__ZNSt3__212__hash_tableINS_17__hash_value_typeINS_12basic_stringIcNS_11char_traitsIcEENS_9allocatorIcEEEEPFvRKS7_PKcPFvS9_RK10jsonstreamEEEENS_22__unordered_map_hasherIS7_SJ_NS_4hashIS7_EELb1EEENS_21__unordered_map_equalIS7_SJ_NS_8equal_toIS7_EELb1EEENS5_ISJ_EEE6rehashEm
Yu:__Z20SVGA_Setup_TsengET4Kv
Zu:_wcsnrtombs
_u:__Z13DOS_Terminatetbh
$u:__ZL15Normal1x_9_16_LPKv
av:__ZL15Normal1x_9_15_LPKv
bv:__ZN9DOS_Shell7CMD_VEREPc
cv:__ZN7isoFile4ReadEPhPt
dv:__ZL16NormalDh_32_16_LPKv
ev:__ZL13cmos_writeregjjj
fv:__ZL16NormalDh_32_15_LPKv
gv:__ZL15Normal1x_9_32_LPKv
hv:__ZL16NormalDh_16_15_LPKv
iv:__ZL16NormalDh_15_16_LPKv
jv:__ZNKSt3__28messagesIcE6do_getEliiRKNS_12basic_stringIcNS_11char_traitsIcEENS_9allocatorIcEEEE
kv:__ZL15VCPI_PM_Handlerv
lv:__ZNSt3__26vectorIPNS_6locale5facetENS_15__sso_allocatorIS3_Lm28EEEE8__appendEm
mv:__ZN15DOS_Drive_Cache7ReadDirEtRPc
nv:__ZL16NormalDh_32_32_LPKv
ov:__ZN5CBind8AddFlagsEPc
pv:__ZL16Normal2x_16_16_LPKv
qv:__ZL16Normal2x_15_15_LPKv
rv:__ZN10DmaChannel4ReadEjPh
sv:__ZN13DmaController17ReadControllerRegEjj
tv:__ZL14Scan2x_16_16_LPKv
uv:__ZL14Scan2x_15_15_LPKv
vv:__ZL20read_crtc_data_otherjj
wv:__ZN5Adlib7Capture10MakeTablesEv
xv:__Z9CPU_ENTERbjj
yv:__ZN7CMscdex14GetAudioStatusEhRbS0_R4SMSFS2_
zv:__ZL19printconfiglocationv
Av:__ZN8fatDrive15directoryBrowseEjP8direntryii
Bv:__zip_guess_encoding
Cv:__Z15write_p3d5_et4kjjj
Dv:__ZN8fatDrive14getDirClustNumEPcPjb
Ev:__Z29VGA_ATTR_SetEGAMonitorPalette14EGAMonitorMode
Fv:__Z11XGA_DrawCmdjj
Gv:__ZNSt3__26vectorINS_12basic_stringIcNS_11char_traitsIcEENS_9allocatorIcEEEENS4_IS6_EEE21__push_back_slow_pathIKS6_EEvRT_
Hv:__Z23RestoreCursorBackgroundv
Iv:__ZN3DMAC2EP7Section
Jv:__ZN9imageDiskC2EP8_IO_FILEPhjb
Kv:__Z18FinishSetMode_ET3KjP17VGA_ModeExtraData
Lv:__ZL13Check_Palettev
Mv:__ZN21CDROM_Interface_Image12GetCueStringERNSt3__212basic_stringIcNS0_11char_traitsIcEENS0_9allocatorIcEEEERNS0_13basic_istreamIcS3_EE
Nv:_buffer_find_fragment
Ov:__ZNSt3__213basic_filebufIcNS_11char_traitsIcEEE7seekoffExNS_8ios_base7seekdirEj
Pv:__ZN15C4AxisBindGroup14UpdateJoystickEv
Qv:__Z16VideoModeMemSizej
Rv:__Z10XGA_CheckXv
Sv:__ZN15CStickBindGroupD2Ev
Tv:__ZL16NormalDh_16_16_LPKv
Uv:__ZL16NormalDh_15_15_LPKv
Vv:__ZN9DOS_Shell8CMD_HELPEPc
Wv:__ZNSt3__212basic_stringIcNS_11char_traitsIcEENS_9allocatorIcEEE21__grow_by_and_replaceEmmmmmmPKc
Xv:__ZNSt3__216__check_groupingERKNS_12basic_stringIcNS_11char_traitsIcEENS_9allocatorIcEEEEPjS8_Rj
Yv:__ZL16HandleNameSearchv
Zv:__ZNK12Section_prop12Get_multivalERKNSt3__212basic_stringIcNS0_11char_traitsIcEENS0_9allocatorIcEEEE
_v:__ZNK12Section_prop10Get_stringERKNSt3__212basic_stringIcNS0_11char_traitsIcEENS0_9allocatorIcEEEE
$v:__ZN5Value7set_intERKNSt3__212basic_stringIcNS0_11char_traitsIcEENS0_9allocatorIcEEEE
aw:__ZNK12Section_prop8Get_pathERKNSt3__212basic_stringIcNS0_11char_traitsIcEENS0_9allocatorIcEEEE
bw:__Z14XMS_MoveMemoryj
cw:_zip_discard
dw:__Z17DOS_FCBRenameFilett
ew:__ZL15LoadMessageFilePKc
fw:__ZN5Value10set_doubleERKNSt3__212basic_stringIcNS0_11char_traitsIcEENS0_9allocatorIcEEEE
gw:__Z20INT10_SetCursorShapehh
hw:__ZNSt3__212basic_stringIcNS_11char_traitsIcEENS_9allocatorIcEEE6insertEmPKcm
iw:__ZNK12Section_prop8Get_boolERKNSt3__212basic_stringIcNS0_11char_traitsIcEENS0_9allocatorIcEEEE
jw:__ZNK12Section_prop7Get_intERKNSt3__212basic_stringIcNS0_11char_traitsIcEENS0_9allocatorIcEEEE
kw:__ZN4BOOT17getFSFile_mountedEPKcPjS2_Ph
lw:__ZN8isoDrive15GetNextDirEntryEiP11isoDirEntry
mw:__Z20INT10_SetColorSelecth
nw:__Z15FPU_ESC6_Normalj
ow:__ZN7CSerial9Write_FCREh
pw:__ZN5DBOPL7Channel7WriteB0EPKNS_4ChipEh
qw:_zip_error_strerror
rw:__ZNSt3__213basic_filebufIcNS_11char_traitsIcEEE6setbufEPcl
sw:__Z4trimRNSt3__212basic_stringIcNS_11char_traitsIcEENS_9allocatorIcEEEE
tw:__ZN5Value8SetValueERKNSt3__212basic_stringIcNS0_11char_traitsIcEENS0_9allocatorIcEEEENS_5EtypeE
uw:__ZN12MixerChannel12AddStretchedEjPs
vw:__Z20DOS_OpenFileExtendedPKctttPtS1_
ww:__zip_headercomp
xw:__Z7CPU_LARjRj
yw:__ZL12IRQ_TandyDACv
zw:__Z31INT10_EGA_RIL_ReadRegisterRangehhtj
Aw:__ZN15DOS_Drive_Cache8CacheOutEPKcb
Bw:__Z23INT10_ToggleBlinkingBith
Cw:__zip_ef_write
Dw:__ZN22CALLBACK_HandlerObject9UninstallEv
Ew:__ZL20tandy_update_palettev
Fw:__ZN8isoDrive8FileOpenEPP8DOS_FilePcj
Gw:__Z14DrawCursorTextv
Hw:_copy_source
Iw:__ZL17DSP_DoDMATransfer9DMA_MODESjb
Jw:__zip_stat_merge
Kw:__Z11MAPPER_Initv
Lw:__ZL28demangling_terminate_handlerv
Mw:__ZNSt3__26vectorINS_12basic_stringIcNS_11char_traitsIcEENS_9allocatorIcEEEENS4_IS6_EEE26__swap_out_circular_bufferERNS_14__split_bufferIS6_RS7_EEPS6_
Nw:__Z15write_p3d5_et3kjjj
Ow:__ZN3EMSD2Ev
Pw:__ZL15eraseconfigfilev
Qw:__ZNKSt3__28time_getIwNS_19istreambuf_iteratorIwNS_11char_traitsIwEEEEE11__get_am_pmERiRS4_S4_RjRKNS_5ctypeIwEE
Rw:__ZNKSt3__28time_getIcNS_19istreambuf_iteratorIcNS_11char_traitsIcEEEEE11__get_am_pmERiRS4_S4_RjRKNS_5ctypeIcEE
Sw:__ZN12CCheckButton4DrawEv
Tw:__ZL18VGA_TEXT_Draw_Linejj
Uw:_deflateEnd
Vw:__ZNSt3__213basic_istreamIcNS_11char_traitsIcEEErsERi
Ww:__Z8MSG_InitP12Section_prop
Xw:__Z14TIMER_SetGate2b
Yw:__ZN4OPL322operator_advance_drumsEPNS_15operator_structEiS1_iS1_i
Zw:__ZN4OPL222operator_advance_drumsEPNS_15operator_structEiS1_iS1_i
_w:__ZN4OPL317change_attackrateEjPNS_15operator_structE
$w:__ZN4OPL217change_attackrateEjPNS_15operator_structE
ax:__ZL19VGA_Draw_CGA16_Linejj
bx:__ZN8fatDrive9RemoveDirEPc
cx:__ZL10FPU_FPREM1v
dx:__Z18mem_unalignedreaddj
ex:__ZNSt3__26vectorIPN15DOS_Drive_Cache9CFileInfoENS_9allocatorIS3_EEE21__push_back_slow_pathIKS3_EEvRT_
fx:__ZL15NormalDw_8_32_LPKv
gx:__ZL15NormalDw_8_16_LPKv
hx:__ZL15NormalDw_8_15_LPKv
ix:__Z7CPU_LSLjRj
jx:_memchr
kx:__Z10MOUSE_InitP7Section
lx:__zip_changed
mx:__ZN22VGA_ChainedVGA_Handler6writedEjj
nx:__ZL13INT2E_Handlerv
ox:__Z18DOS_FCBRandomWritettPtb
px:__ZN8Property10CheckValueERK5Valueb
qx:__Z17DOS_BuildUMBChainbb
rx:__ZNSt3__213basic_filebufIcNS_11char_traitsIcEEE4openEPKcj
sx:__ZL16TandyDAC_Handlerh
tx:__Z15BIOS_SetupDisksv
ux:__ZN5Adlib4Chip5WriteEjh
vx:__Z20INT10_ReloadRomFontsv
wx:___stpncpy
xx:__ZN9DOS_Shell12CMD_LOADHIGHEPc
yx:__ZL11useFreeInfoP8FreeInfom
zx:__ZL16GUS_DMA_CallbackP10DmaChannel8DMAEvent
Ax:__ZL16extendLastRegionm
Bx:__ZNSt3__225__num_get_signed_integralIlEET_PKcS3_Rji
Cx:__ZL16DMA_Silent_Eventj
Dx:__ZL16CreateStringBindPc
Ex:__ZNKSt3__215basic_stringbufIcNS_11char_traitsIcEENS_9allocatorIcEEE3strEv
Fx:__ZNSt3__215basic_stringbufIcNS_11char_traitsIcEENS_9allocatorIcEEE9pbackfailEi
Gx:__ZL18DOS_CompressMemoryv
Hx:__ZL15Normal1x_8_16_LPKv
Ix:__ZL15Normal1x_8_15_LPKv
Jx:__Z22MSCDEX_HasMediaChangedh
Kx:__ZNSt3__227__num_get_unsigned_integralIyEET_PKcS3_Rji
Lx:__ZL15erasemapperfilev
Mx:__ZL15Normal1x_8_32_LPKv
Nx:__ZL14DMA_BlockWritejjPvjh
Ox:__ZL13DMA_BlockReadjjPvjh
Px:__ZNKSt3__28time_putIwNS_19ostreambuf_iteratorIwNS_11char_traitsIwEEEEE6do_putES4_RNS_8ios_baseEwPK2tmcc
Qx:__zip_source_call
Rx:__ZNKSt3__28time_putIcNS_19ostreambuf_iteratorIcNS_11char_traitsIcEEEEE6do_putES4_RNS_8ios_baseEcPK2tmcc
Sx:__ZL11EMM_MapPagejtt
Tx:__Z19mem_unalignedwritedjj
Ux:__ZNSt3__213basic_istreamIcNS_11char_traitsIcEEErsERd
Vx:__ZL9FPU_FLD80j
Wx:__ZL14NormalDw_8_8_LPKv
Xx:___fwritex
Yx:__ZL17CAPTURE_WaveEventb
Zx:__ZNSt3__213basic_ostreamIcNS_11char_traitsIcEEE3putEc
_x:__ZN6DISNEYC2EP7Section
$x:__ZL16MAPPER_SaveBindsv
ay:__ZL10EA_32_04_nv
by:__ZNSt3__26vectorIP13CHandlerEventNS_9allocatorIS2_EEE21__push_back_slow_pathIKS2_EEvRT_
cy:__ZN8fatDrive24getAbsoluteSectFromChainEjj
dy:_strspn
ey:__ZL14Normal1x_8_8_LPKv
fy:__ZL13MIXER_MixDataj
gy:__ZL17CAPTURE_MidiEventb
hy:__ZN11CommandLine15FindStringBeginEPKcRNSt3__212basic_stringIcNS2_11char_traitsIcEENS2_9allocatorIcEEEEb
iy:__Z11DOS_FCBOpentt
jy:__ZN13CKeyBindGroup10CheckEventEP9SDL_Event
ky:_buffer_free
ly:__zip_cdir_grow
my:__ZNSt3__26vectorIPFvPP7ProgramENS_9allocatorIS5_EEE21__push_back_slow_pathIKS5_EEvRT_
ny:__ZN7DOS_PSP7MakeNewEt
oy:__zip_string_new
py:__ZNSt3__26vectorIP10CBindGroupNS_9allocatorIS2_EEE21__push_back_slow_pathIKS2_EEvRT_
qy:__ZN11CommandLineC2EiPKPKc
ry:__Z12PIC_RunQueuev
sy:__ZNSt3__26vectorI10copysourceNS_9allocatorIS1_EEE21__push_back_slow_pathIKS1_EEvRT_
ty:__ZL8read_gusjj
uy:__ZL16NormalDw_16_32_LPKv
vy:__ZL16NormalDw_15_32_LPKv
wy:__ZL15MPU401_ReadDatajj
xy:__Z13DoPS2Callbacktss
yy:__Z23DOS_ForceDuplicateEntrytt
zy:__Z15INT10_WriteCharhhhtb
Ay:__ZNSt3__213basic_filebufIcNS_11char_traitsIcEEE7seekposENS_4fposI11__mbstate_tEEj
By:__ZNSt3__26vectorIP9DOS_DriveNS_9allocatorIS2_EEE21__push_back_slow_pathIKS2_EEvRT_
Cy:__ZN4BIOSD2Ev
Dy:__ZL21CTMIXER_UpdateVolumesv
Ey:__ZZN6Events20registerPushSDLEventEvENK3__3clERKNSt3__212basic_stringIcNS1_11char_traitsIcEENS1_9allocatorIcEEEEPKcPFvS9_RK10jsonstreamE
Fy:__ZN3XMSD2Ev
Gy:__ZN13CFCSBindGroup10CheckEventEP9SDL_Event
Hy:__Z7CPU_LTRj
Iy:__Z18RENDER_StartUpdatev
Jy:__ZL16NormalDw_32_16_LPKv
Ky:__Z28INT10_SetAllPaletteRegistersj
Ly:__ZL16NormalDw_32_15_LPKv
My:__ZNSt3__26vectorIP7CButtonNS_9allocatorIS2_EEE21__push_back_slow_pathIKS2_EEvRT_
Ny:__Z13DOS_CloseFiletb
Oy:__ZNSt3__213basic_filebufIcNS_11char_traitsIcEEEC2Ev
Py:__ZN11CommandLine5ShiftEj
Qy:__ZL16NormalDw_16_15_LPKv
Ry:__ZN13CFCSBindGroup17DecodeHatPositionEh
Sy:__ZL16NormalDw_15_16_LPKv
Ty:__ZNSt3__212basic_stringIwNS_11char_traitsIwEENS_9allocatorIwEEE9__grow_byEmmmmmm
Uy:__ZL11SERIAL_Readjj
Vy:__ZNSt3__26vectorIP6CEventNS_9allocatorIS2_EEE21__push_back_slow_pathIKS2_EEvRT_
Wy:___stdio_read
Xy:__ZL16NormalDw_32_32_LPKv
Yy:_fread
Zy:_decrypt
_y:__ZN15CStickBindGroup15CreateEventBindEP9SDL_Event
$y:__ZNSt3__26vectorI5ValueNS_9allocatorIS1_EEE21__push_back_slow_pathIKS1_EEvRT_
az:__Z17DOS_FCBRandomReadttPtb
bz:__ZN7CSerial7PutcharEhbbj
cz:__ZN4CMOSC2EP7Section
dz:__ZN5CBind14DeActivateBindEb
ez:__ZNSt3__27__sort5IRPFbRKPN15DOS_Drive_Cache9CFileInfoES5_EPS3_EEjT0_SA_SA_SA_SA_T_
fz:__ZN8Property10Set_valuesEPKPKc
gz:__ZL16Normal1x_16_32_LPKv
hz:__ZL16Normal1x_15_32_LPKv
iz:__ZL13SetActiveBindP5CBind
jz:__Z17VGA_DetermineModev
kz:__ZNSt3__227__num_get_unsigned_integralItEET_PKcS3_Rji
lz:__ZN8isoDrive9FindFirstEPcR7DOS_DTAb
mz:_zip_source_seek_compute_offset
nz:__zip_ef_merge
oz:__ZL14SaveFindResultR7DOS_FCB
pz:__ZN4OPL316change_frequencyEjjPNS_15operator_structE
qz:__ZN4OPL216change_frequencyEjjPNS_15operator_structE
rz:__ZNSt3__227__num_get_unsigned_integralImEET_PKcS3_Rji
sz:__ZNSt3__227__num_get_unsigned_integralIjEET_PKcS3_Rji
tz:__ZN7CMscdex15PlayAudioSectorEhjj
uz:__Z11MSG_ReplacePKcS0_
vz:__ZN11CommandLine10FindStringEPKcRNSt3__212basic_stringIcNS2_11char_traitsIcEENS2_9allocatorIcEEEEb
wz:__ZN9DOS_Shell9CMD_RMDIREPc
xz:_wcrtomb
yz:__ZN9DOS_Shell9CMD_MKDIREPc
zz:__ZL16Normal1x_32_32_LPKv
Az:__ZL16Normal1x_32_16_LPKv
Bz:__ZL16Normal1x_32_15_LPKv
Cz:__ZL14DMA_Write_Portjjj
Dz:__ZL10EA_32_04_nv_413
Ez:__ZN9BatchFileC2EP9DOS_ShellPKcS3_S3_
Fz:__ZL16RestoreRegistersv
Gz:__ZL16Normal1x_16_15_LPKv
Hz:__Z15PAGING_LinkPagejj
Iz:__ZL16Normal1x_15_16_LPKv
Jz:__ZL14counter_outputj
Kz:__ZL12MPU401_Eventj
Lz:__Z6get_ZFv
Mz:__Z6get_SFv
Nz:__zip_dirent_finalize
Oz:__ZNSt3__212__hash_tableINS_17__hash_value_typeINS_12basic_stringIcNS_11char_traitsIcEENS_9allocatorIcEEEEPFvRKS7_PKcPFvS9_RK10jsonstreamEEEENS_22__unordered_map_hasherIS7_SJ_NS_4hashIS7_EELb1EEENS_21__unordered_map_equalIS7_SJ_NS_8equal_toIS7_EELb1EEENS5_ISJ_EEE16__construct_nodeIJNS_4pairISB_ZN6Events20registerPushSDLEventEvE3__3EEEEENS_10unique_ptrINS_11__hash_nodeISJ_PvEENS_22__hash_node_destructorINS5_IS12_EEEEEEDpOT_
Pz:__Z17write_p3cf_pvga1ajjj
Qz:__ZN4OPL315operator_attackEPNS_15operator_structE
Rz:__ZN4OPL215operator_attackEPNS_15operator_structE
Sz:__ZN13Prop_multivalC2ERKNSt3__212basic_stringIcNS0_11char_traitsIcEENS0_9allocatorIcEEEEN8Property10Changeable5ValueES8_
Tz:__ZNSt3__212__hash_tableINS_17__hash_value_typeINS_12basic_stringIcNS_11char_traitsIcEENS_9allocatorIcEEEEPFvRKS7_PKcPFvS9_RK10jsonstreamEEEENS_22__unordered_map_hasherIS7_SJ_NS_4hashIS7_EELb1EEENS_21__unordered_map_equalIS7_SJ_NS_8equal_toIS7_EELb1EEENS5_ISJ_EEE16__construct_nodeIJNS_4pairISB_ZN6Events18registerScreenshotEvE3__2EEEEENS_10unique_ptrINS_11__hash_nodeISJ_PvEENS_22__hash_node_destructorINS5_IS12_EEEEEEDpOT_
Uz:__Z13XGA_DrawPointjjj
Vz:__Z13DOS_WriteFiletPhPtb
Wz:__ZL9read_p3cfjj
Xz:__ZNSt3__212__hash_tableINS_17__hash_value_typeINS_12basic_stringIcNS_11char_traitsIcEENS_9allocatorIcEEEEPFvRKS7_PKcPFvS9_RK10jsonstreamEEEENS_22__unordered_map_hasherIS7_SJ_NS_4hashIS7_EELb1EEENS_21__unordered_map_equalIS7_SJ_NS_8equal_toIS7_EELb1EEENS5_ISJ_EEE16__construct_nodeIJNS_4pairISB_ZN6Events12registerExitEvE3__1EEEEENS_10unique_ptrINS_11__hash_nodeISJ_PvEENS_22__hash_node_destructorINS5_IS12_EEEEEEDpOT_
Yz:__Z17SVGA_Setup_S3Triov
Zz:__Z13PROGRAMS_InitP7Section
_z:__ZNSt3__212basic_stringIwNS_11char_traitsIwEENS_9allocatorIwEEE9push_backEw
$z:__ZL16NormalDw_16_16_LPKv
aA:__ZL16NormalDw_15_15_LPKv
bA:__ZNK13Prop_multival9GetValuesEv
cA:__ZNK10__cxxabiv119__pointer_type_info16can_catch_nestedEPKNS_16__shim_type_infoE
dA:__ZL10EA_32_84_nv
eA:__ZL12SERIAL_Writejjj
fA:__ZN7ProgramC2Ev
gA:__Z15FPU_ESC7_Normalj
hA:__ZN21CDROM_Interface_Image11GetCueFrameERiRNSt3__213basic_istreamIcNS1_11char_traitsIcEEEE
iA:__Z11CPU_SET_CRXjj
jA:__ZN7CSerial8Read_RHREv
kA:__ZN6MPU401D2Ev
lA:__ZN11CommandLine7FindIntEPKcRib
mA:__Z8CPU_VERRj
nA:__ZL23RENDER_StartLineHandlerPKv
oA:__Z11FPU_ESC5_EAjj
pA:__ZNSt3__212basic_stringIcNS_11char_traitsIcEENS_9allocatorIcEEE9push_backEc
qA:__Z9read_p3c1jj
rA:__ZNK10__cxxabiv117__class_type_info9can_catchEPKNS_16__shim_type_infoERPv
sA:__Z12VGA_SetClockjj
tA:__ZNSt3__212basic_stringIwNS_11char_traitsIwEENS_9allocatorIwEEE6appendEPKwm
uA:__ZL16Normal1x_16_16_LPKv
vA:__ZL16Normal1x_15_15_LPKv
wA:__ZL11Normal_Loopv
xA:__ZNSt3__26vectorI9SDL_EventNS_9allocatorIS1_EEE26__swap_out_circular_bufferERNS_14__split_bufferIS1_RS3_EEPS1_
yA:_memset
zA:__ZL14write_herculesjjj
AA:__ZNSt3__212basic_stringIwNS_11char_traitsIwEENS_9allocatorIwEEE6assignEPKwm
BA:__Z30INT10_EGA_RIL_WriteRegisterSettj
CA:_zip_source_open
DA:___stpcpy
EA:__ZNSt3__26vectorIPN15DOS_Drive_Cache9CFileInfoENS_9allocatorIS3_EEE26__swap_out_circular_bufferERNS_14__split_bufferIS3_RS5_EEPS3_
FA:__ZN7fatFile4SeekEPjj
GA:__ZNSt3__27__sort3IRPFbRKPN15DOS_Drive_Cache9CFileInfoES5_EPS3_EEjT0_SA_SA_T_
HA:__ZNSt3__212basic_stringIcNS_11char_traitsIcEENS_9allocatorIcEEE6appendEmc
IA:__Z19INT10_SetActivePageh
JA:__ZL17HandleMouseButtonP20SDL_MouseButtonEvent
KA:__ZL12CMS_CallBackj
LA:__ZNSt3__221__murmur2_or_cityhashImLm32EEclEPKvm
MA:__ZN7CSerial9Write_THREh
NA:__ZL13DMA_Read_Portjj
OA:__ZNKSt3__28time_getIwNS_19istreambuf_iteratorIwNS_11char_traitsIwEEEEE11do_get_dateES4_S4_RNS_8ios_baseERjP2tm
PA:__ZL13SaveRegistersv
QA:__Z18DOS_DuplicateEntrytPt
RA:_readdir
SA:__ZL16GetSetHandleNamev
TA:__ZNKSt3__28time_getIcNS_19istreambuf_iteratorIcNS_11char_traitsIcEEEEE11do_get_dateES4_S4_RNS_8ios_baseERjP2tm
UA:__ZNSt3__212basic_stringIcNS_11char_traitsIcEENS_9allocatorIcEEE9__grow_byEmmmmmm
VA:__ZN7Program9GetEnvStrEPKcRNSt3__212basic_stringIcNS2_11char_traitsIcEENS2_9allocatorIcEEEE
WA:__ZNSt3__212basic_stringIcNS_11char_traitsIcEENS_9allocatorIcEEE6appendEPKcm
XA:__ZNSt3__213basic_filebufIcNS_11char_traitsIcEEE9pbackfailEi
YA:__ZNSt3__212basic_stringIcNS_11char_traitsIcEENS_9allocatorIcEEE6assignEPKcm
ZA:__ZL7EGA_RILtRtS_
_A:__ZN8fatDrive11GetFileAttrEPcPt
$A:__Z15CAPTURE_AddWavejjPs
aB:__ZN8fatDrive8FileOpenEPP8DOS_FilePcj
bB:__ZN5MIXER10MakeVolumeEPcRfS1_
cB:__ZN15DOS_Drive_Cache7OpenDirEPNS_9CFileInfoEPKcRt
dB:__ZN15DOS_Drive_Cache17CreateShortNameIDEPNS_9CFileInfoEPKc
eB:__ZL7read_sbjj
fB:__ZL10EA_32_44_nv_421
gB:__Z18DOS_FCBGetFileSizett
hB:__Z14DOS_FindDevicePKc
iB:__ZN13CHandlerEvent15MakeDefaultBindEPc
jB:__ZL8FPU_FBSTj
kB:__zip_ef_utf8
lB:___newlocale
mB:__ZN16TaskStateSegment11SetSelectorEj
nB:__ZNSt3__212basic_stringIcNS_11char_traitsIcEENS_9allocatorIcEEE5eraseEmm
oB:__ZL8AddEntryP8PICEntry
pB:__Z17PROGRAMS_MakeFilePKcPFvPP7ProgramE
qB:_hash_resize
rB:__ZL10EA_32_84_nv_429
sB:__Z18XMS_AllocateMemoryjRt
tB:__ZN10cdromDriveC2EcPKcthtthRi
uB:__ZL12FormatNumberjPc
vB:__ZN5Adlib7Capture9CloseFileEv
wB:__ZL10EA_32_44_nv
xB:__Z13DOS_RemoveDirPKc
yB:__ZNSt3__24listIP5CBindNS_9allocatorIS2_EEE6spliceENS_21__list_const_iteratorIS2_PvEERS5_S8_S8_
zB:__Z20SVGA_Setup_TsengET3Kv
AB:__ZNSt3__212basic_stringIwNS_11char_traitsIwEENS_9allocatorIwEEE6__initIPKwEENS_9enable_ifIXsr21__is_forward_iteratorIT_EE5valueEvE4typeESA_SA_
BB:__ZNSt3__212basic_stringIwNS_11char_traitsIwEENS_9allocatorIwEEE6__initIPwEENS_9enable_ifIXsr21__is_forward_iteratorIT_EE5valueEvE4typeES9_S9_
CB:__ZN8Property8Set_helpERKNSt3__212basic_stringIcNS0_11char_traitsIcEENS0_9allocatorIcEEEE
DB:__ZN21CDROM_Interface_Image10BinaryFileC2EPKcRb
EB:_strcspn
FB:__ZN18GDTDescriptorTable4LLDTEj
GB:__Z11FPU_ESC7_EAjj
HB:__ZN7CMscdex9GetCDInfoEhRhS0_R4SMSF
IB:_process
JB:__ZN15DOS_Drive_Cache8AddEntryEPKcb
KB:__zip_buffer_get_64
LB:__ZN4OPL314operator_decayEPNS_15operator_structE
MB:__ZN4OPL214operator_decayEPNS_15operator_structE
NB:__ZN8SBLASTERD2Ev
OB:__ZL8GUSResetv
PB:__ZL9DSP_Resetv
QB:__zip_ef_remove_internal
RB:__ZNK12Section_prop12GetPropValueERKNSt3__212basic_stringIcNS0_11char_traitsIcEENS0_9allocatorIcEEEE
SB:__ZN15CStickBindGroup16CreateConfigBindERPc
TB:__tr_flush_bits
UB:__ZN14AutoexecObject14CreateAutoexecEv
VB:__ZNSt3__214__num_put_base14__format_floatEPcPKcj
WB:__ZN7DOS_FCB8FileOpenEh
XB:__ZN7CMscdex8ReadVTOCEttjRtS0_
YB:__ZN12DriveManager12UnmountDriveEi
ZB:__Z15FPU_ESC5_Normalj
_B:__ZNSt3__213basic_istreamIcNS_11char_traitsIcEEE5seekgExNS_8ios_base7seekdirE
$B:__ZNSt3__218__insertion_sort_3IRPFbRKPN15DOS_Drive_Cache9CFileInfoES5_EPS3_EEvT0_SA_T_
aC:__ZNSt3__225__num_get_signed_integralIxEET_PKcS3_Rji
bC:__ZN7CButton4DrawEv
cC:__ZN7CMscdex15GetDeviceStatusEh
dC:__ZNSt3__26vectorINS_12basic_stringIcNS_11char_traitsIcEENS_9allocatorIcEEEENS4_IS6_EEE26__swap_out_circular_bufferERNS_14__split_bufferIS6_RS7_EE
eC:__ZN21CDROM_Interface_Image11GetAudioSubERhS0_S0_R4SMSFS2_
fC:__Z11FPU_ESC3_EAjj
gC:__ZN22VGA_ChainedEGA_Handler12writeHandlerEjh
hC:__ZNSt3__212basic_stringIcNS_11char_traitsIcEENS_9allocatorIcEEE6__initIPKcEENS_9enable_ifIXsr21__is_forward_iteratorIT_EE5valueEvE4typeESA_SA_
iC:__ZNSt3__212basic_stringIcNS_11char_traitsIcEENS_9allocatorIcEEE6__initIPcEENS_9enable_ifIXsr21__is_forward_iteratorIT_EE5valueEvE4typeES9_S9_
jC:__ZL9write_p64jjj
kC:__ZNSt3__215basic_streambufIcNS_11char_traitsIcEEE6xsputnEPKcl
lC:__ZN5CBind12ActivateBindEibb
mC:__zip_string_get
nC:___fseeko_unlocked
oC:__ZN11CommandLine15GetStringRemainERNSt3__212basic_stringIcNS0_11char_traitsIcEENS0_9allocatorIcEEEE
pC:__Z26INT10_EGA_RIL_ReadRegisterRht
qC:__Z15DOS_GetFileDatetPtS_
rC:__ZNK10__cxxabiv117__class_type_info29process_static_type_above_dstEPNS_19__dynamic_cast_infoEPKvS4_i
sC:__ZNK10__cxxabiv117__class_type_info16search_below_dstEPNS_19__dynamic_cast_infoEPKvib
tC:__ZL27VGA_Draw_Xlat16_Linear_Linejj
uC:__ZL16DSP_DMA_CallBackP10DmaChannel8DMAEvent
vC:__ZN5Adlib6Module8PortReadEjj
wC:__ZL9read_p201jj
xC:__ZN8HARDWAREC2EP7Section
yC:___strchrnul
zC:_inflateInit2_
AC:__ZN7CSerial8Read_MSREv
BC:__Z14MAPPER_StartUpP7Section
CC:__ZL10write_p3c2jjj
DC:__ZN12DriveManager13CycleAllDisksEv
EC:__ZL10EA_32_04_nv_330
FC:__ZNK10__cxxabiv121__vmi_class_type_info27has_unambiguous_public_baseEPNS_19__dynamic_cast_infoEPvi
GC:__ZN8isoDrive8FileStatEPKcP14FileStat_Block
HC:__Z24PAGING_LinkPage_ReadOnlyjj
IC:__zip_dirent_size
JC:__Z17INT10_SetDACBlockttj
KC:__ZL14Reboot_Handlerv
LC:_decrypt_header
MC:_create_temp_output
NC:__ZNSt3__26removeINS_11__wrap_iterIPcEEcEET_S4_S4_RKT0_
OC:__Z9Set_LabelPKcPcb
PC:__Z14read_p3d5_et3kjj
QC:__ZL17CPU_CycleIncreaseb
RC:_fputc
SC:__ZN7DOS_DTA15GetSearchParamsERhPc
TC:__Z16VGA_SetCGA4Tablehhhh
UC:__ZN8isoDrive9loadImageEv
VC:__ZN15C4AxisBindGroup10CheckEventEP9SDL_Event
WC:__ZNSt3__215basic_streambufIcNS_11char_traitsIcEEE6xsgetnEPcl
XC:__ZN15CStickBindGroup10CheckEventEP9SDL_Event
YC:__ZN10localDrive8FileStatEPKcP14FileStat_Block
ZC:__ZL14SetActiveEventP6CEvent
_C:_vsnprintf
$C:__Z17MAPPER_AddHandlerPFvbE7MapKeysjPKcS3_
aD:__ZN14DOS_ParamBlock8LoadDataEv
bD:__ZN5DBOPL7Channel11SetChanDataEPKNS_4ChipEj
cD:__ZL18EMM_AllocateMemorytRtb
dD:__Z20FinishSetMode_PVGA1AjP17VGA_ModeExtraData
eD:__ZL21VGA_DrawEGASingleLinej
fD:__Z27INT10_EGA_RIL_WriteRegisterRhht
gD:__zip_read_data
hD:__ZL11write_tandyjjj
iD:__ZN7CSerial14Init_RegistersEv
jD:__Z15SVGA_S3_ReadSEQjj
kD:__ZNSt3__27__sort4IRPFbRKPN15DOS_Drive_Cache9CFileInfoES5_EPS3_EEjT0_SA_SA_SA_T_
lD:__ZN8isoDrive12UpdateMscdexEcPKcRh
mD:__ZL13EGA16_CopyRowhhhhj
nD:__ZN7CSerial17ComputeInterruptsEv
oD:__ZL12MPU401_Resetv
pD:__Z15FPU_ESC4_Normalj
qD:__Z15FPU_ESC0_Normalj
rD:__ZN12Virtual_File4SeekEPjj
sD:__ZL8FPU_FBLDjj
tD:__ZL22write_cga_color_selectj
uD:__ZL17CPU_CycleDecreaseb
vD:__ZL10write_pcjrjjj
wD:__ZNSt3__2plIcNS_11char_traitsIcEENS_9allocatorIcEEEENS_12basic_stringIT_T0_T1_EERKS9_SB_
xD:__ZL15TANDY16_FillRowhhhjh
yD:__Z13DOS_ChangeDirPKc
zD:__Z7MSG_AddPKcS0_
AD:__ZL13driveInactiveh
BD:__Z16read_p3cf_pvga1ajj
CD:_strncasecmp
DD:__ZN9DOS_Shell9CMD_PAUSEEPc
ED:__Z9CPU_CPUIDv
FD:__Z16XGA_GetMixResultjjj
GD:__ZNSt3__26vectorIN21CDROM_Interface_Image5TrackENS_9allocatorIS2_EEE26__swap_out_circular_bufferERNS_14__split_bufferIS2_RS4_EE
HD:__Z12DOS_ReadFiletPhPtb
ID:__Z11DOS_MakeDirPKc
JD:__ZNSt3__26vectorIPNS_6locale5facetENS_15__sso_allocatorIS3_Lm28EEEE26__swap_out_circular_bufferERNS_14__split_bufferIS3_RS5_EE
KD:__ZNSt3__26vectorIPN15DOS_Drive_Cache9CFileInfoENS_9allocatorIS3_EEE26__swap_out_circular_bufferERNS_14__split_bufferIS3_RS5_EE
LD:__ZL12VGA_DrawPartj
MD:__ZN21CDROM_Interface_Image14ChannelControlE5SCtrl
ND:__Z25SVGA_Setup_ParadisePVGA1Av
OD:__ZN21CDROM_Interface_Image10ReadSectorEPhbm
PD:__Z17DOS_UpdatePSPNamev
QD:__zip_new
RD:__ZNKSt3__210__time_put8__do_putEPwRS1_PK2tmcc
SD:__ZN13Virtual_Drive8FindNextER7DOS_DTA
TD:__zip_cp437_to_utf8
UD:__ZN15MidiHandler_oss4OpenEPKc
VD:__ZL13PageFaultCorev
WD:__ZN10localDrive10FileCreateEPP8DOS_FilePct
XD:__Z8CPU_VERWj
YD:__ZN7isoFile4SeekEPjj
ZD:__Z20VESA_GetDisplayStartRtS_
_D:__ZL16PROGRAMS_Handlerv
$D:__ZNSt3__26vectorIP13CHandlerEventNS_9allocatorIS2_EEE26__swap_out_circular_bufferERNS_14__split_bufferIS2_RS4_EE
aE:__ZNSt3__26vectorI10copysourceNS_9allocatorIS1_EEE26__swap_out_circular_bufferERNS_14__split_bufferIS1_RS3_EE
bE:__ZNSt3__26vectorIPFvPP7ProgramENS_9allocatorIS5_EEE26__swap_out_circular_bufferERNS_14__split_bufferIS5_RS7_EE
cE:__ZL15TANDY16_CopyRowhhhhj
dE:__ZNSt3__26vectorIP10CBindGroupNS_9allocatorIS2_EEE26__swap_out_circular_bufferERNS_14__split_bufferIS2_RS4_EE
eE:__ZNSt3__24listINS_12basic_stringIcNS_11char_traitsIcEENS_9allocatorIcEEEENS4_IS6_EEE5eraseENS_21__list_const_iteratorIS6_PvEESB_
fE:__ZN4OPL316operator_releaseEPNS_15operator_structE
gE:__ZN4OPL216operator_releaseEPNS_15operator_structE
hE:_copy_data
iE:__ZNSt3__26vectorIP9DOS_DriveNS_9allocatorIS2_EEE26__swap_out_circular_bufferERNS_14__split_bufferIS2_RS4_EE
jE:__ZN22VGA_ChainedVGA_Handler6writewEjj
kE:__Z16SVGA_S3_WriteSEQjjj
lE:__Z11FPU_ESC1_EAjj
mE:__ZNSt3__26vectorIP7CButtonNS_9allocatorIS2_EEE26__swap_out_circular_bufferERNS_14__split_bufferIS2_RS4_EE
nE:__ZNSt3__212__hash_tableINS_17__hash_value_typeINS_12basic_stringIcNS_11char_traitsIcEENS_9allocatorIcEEEEPFvRKS7_PKcPFvS9_RK10jsonstreamEEEENS_22__unordered_map_hasherIS7_SJ_NS_4hashIS7_EELb1EEENS_21__unordered_map_equalIS7_SJ_NS_8equal_toIS7_EELb1EEENS5_ISJ_EEED2Ev
oE:__ZNSt3__26vectorIP6CEventNS_9allocatorIS2_EEE26__swap_out_circular_bufferERNS_14__split_bufferIS2_RS4_EE
pE:__zip_file_get_offset
qE:__Z15IO_WriteDefaultjjj
rE:__ZNSt3__213basic_istreamIcNS_11char_traitsIcEEE4readEPcl
sE:__ZNSt3__26vectorI5ValueNS_9allocatorIS1_EEE26__swap_out_circular_bufferERNS_14__split_bufferIS1_RS3_EE
tE:__ZN8Property8Get_helpEv
uE:__ZL10EA_32_44_nv_338
vE:__ZN15DOS_Drive_Cache11DeleteEntryEPKcb
wE:__Z18INT10_SetCursorPoshhh
xE:__ZNSt3__212basic_stringIcNS_11char_traitsIcEENS_9allocatorIcEEE6resizeEmc
yE:__ZNSt3__212__hash_tableINS_17__hash_value_typeINS_12basic_stringIcNS_11char_traitsIcEENS_9allocatorIcEEEEPFvRKS7_PKcPFvS9_RK10jsonstreamEEEENS_22__unordered_map_hasherIS7_SJ_NS_4hashIS7_EELb1EEENS_21__unordered_map_equalIS7_SJ_NS_8equal_toIS7_EELb1EEENS5_ISJ_EEE21__construct_node_hashIRKNS_4pairIS8_SI_EEJEEENS_10unique_ptrINS_11__hash_nodeISJ_PvEENS_22__hash_node_destructorINS5_IS12_EEEEEEmOT_DpOT0_
zE:__ZL9write_cgajjj
AE:__ZL19EMM_ReallocatePagestRt
BE:__zip_dirent_process_ef_utf_8
CE:__Z20read_directory_firstP10dir_structPcRb
DE:__Z15restart_programRNSt3__26vectorINS_12basic_stringIcNS_11char_traitsIcEENS_9allocatorIcEEEENS4_IS6_EEEE
EE:__ZNSt3__29__num_getIwE19__stage2_float_prepERNS_8ios_baseEPwRwS5_
FE:__ZNSt3__219__double_or_nothingIwEEvRNS_10unique_ptrIT_PFvPvEEERPS2_S9_
GE:__ZNSt3__219__double_or_nothingIjEEvRNS_10unique_ptrIT_PFvPvEEERPS2_S9_
HE:__Z24PIC_RemoveSpecificEventsPFvjEj
IE:__Z19read_directory_nextP10dir_structPcRb
JE:__Z19XGA_Write_Multifuncjj
KE:__ZNSt3__29__num_getIcE19__stage2_float_prepERNS_8ios_baseEPcRcS5_
LE:__ZNSt3__213basic_istreamIcNS_11char_traitsIcEEE5tellgEv
ME:__ZN8fatDrive14AllocationInfoEPtPhS0_S0_
NE:__Z14ClipCursorAreaRsS_S_S_RtS0_S0_
OE:__ZNKSt3__28time_getIwNS_19istreambuf_iteratorIwNS_11char_traitsIwEEEEE15__get_monthnameERiRS4_S4_RjRKNS_5ctypeIwEE
PE:__ZNKSt3__28time_getIcNS_19istreambuf_iteratorIcNS_11char_traitsIcEEEEE15__get_monthnameERiRS4_S4_RjRKNS_5ctypeIcEE
QE:__ZL13EGA16_FillRowhhhjh
RE:__Z19MEM_GetNextFreePagev
SE:__ZL10EA_32_84_nv_346
TE:__zip_buffer_put_64
UE:__ZL8DrawTextjjPKch
VE:__ZL11CheckDMAEndv
WE:__ZNK12Section_prop9PrintDataEP8_IO_FILE
XE:__ZL14IO_ReadDefaultjj
YE:__ZL13TandyDACWritejjj
ZE:__ZNKSt3__28time_getIwNS_19istreambuf_iteratorIwNS_11char_traitsIwEEEEE17__get_weekdaynameERiRS4_S4_RjRKNS_5ctypeIwEE
_E:__ZNKSt3__28time_getIcNS_19istreambuf_iteratorIcNS_11char_traitsIcEEEEE17__get_weekdaynameERiRS4_S4_RjRKNS_5ctypeIcEE
$E:__ZN5DBOPL8Operator7Write20EPKNS_4ChipEh
aF:__Z20VESA_SetDisplayStarttt
bF:__Z17PCSPEAKER_SetTypej
cF:__Z17DOS_FCBDeleteFilett
dF:__ZN6Config15AddSection_propEPKcPFvP7SectionEb
eF:__Z15FPU_ESC3_Normalj
fF:__ZNSt3__219__double_or_nothingIcEEvRNS_10unique_ptrIT_PFvPvEEERPS2_S9_
gF:_zip_error_to_str
hF:__ZN7CMscdex17GetSubChannelDataEhRhS0_S0_R4SMSFS2_
iF:__ZNSt3__212basic_stringIwNS_11char_traitsIwEENS_9allocatorIwEEE6__initEPKwm
jF:__ZNSt3__212basic_stringIwNS_11char_traitsIwEENS_9allocatorIwEEE6__initEmw
kF:__ZN7CSerial16getBituSubstringEPKcPjP11CommandLine
lF:__ZN11Prop_string8SetValueERKNSt3__212basic_stringIcNS0_11char_traitsIcEENS0_9allocatorIcEEEE
mF:__ZN13CKeyBindGroupC2Ej
nF:__Z12DOS_ChildPSPtt
oF:__ZN7CMscdex17GetChannelControlEhR5SCtrl
pF:__ZN7CMscdex13GetStatusWordEht
qF:__ZNSt3__26vectorINS_12basic_stringIcNS_11char_traitsIcEENS_9allocatorIcEEEENS4_IS6_EEE12__move_rangeEPS6_S9_S9_
rF:__ZL16write_p201_timedjjj
sF:__ZN7DOS_PSP11SetNumFilesEt
tF:__ZN6Config15AddSection_lineEPKcPFvP7SectionE
uF:__ZNSt3__2plIcNS_11char_traitsIcEENS_9allocatorIcEEEENS_12basic_stringIT_T0_T1_EEPKS6_RKS9_
vF:__Z19VGA_CheckScanLengthv
wF:__Z21DOS_GetAllocationInfohPtPhS_
xF:___fflush_unlocked
yF:__ZN21CDROM_Interface_ImageC2Eh
zF:__ZNKSt3__27codecvtIwc11__mbstate_tE10do_unshiftERS1_PcS4_RS4_
AF:__ZN7DOS_DTA11SetupSearchEhhPc
BF:__Z12DOS_SeekFiletPjjb
CF:__Z11swapInDisksv
DF:__ZL12CGA4_FillRowhhhjh
EF:___overflow
FF:__Z15CAPTURE_AddMidibjPh
GF:__Z14read_p3d5_et4kjj
HF:__ZN15DOS_Drive_Cache9CopyEntryEPNS_9CFileInfoES1_
IF:__ZNSt3__213basic_ostreamIcNS_11char_traitsIcEEE5flushEv
JF:__ZN8isoDrive16ReadCachedSectorEPPhj
KF:__Z7MSG_GetPKc
LF:__ZL18DSP_PrepareDMA_New9DMA_MODESjbb
MF:__ZN15DOS_Drive_Cache13GetExpandNameEPKc
NF:__ZN7Section14ExecuteDestroyEb
OF:__zip_register_source
PF:__zip_get_dirent
QF:__ZN21CDROM_Interface_Image10CanReadPVDEPNS_9TrackFileEib
RF:__ZL12OPL_CallBackj
SF:__ZL15read_p201_timedjj
TF:__ZN7Program8WriteOutEPKcz
UF:__ZN9localFile22UpdateDateTimeFromHostEv
VF:__ZN22VGA_ChainedVGA_Handler5readdEj
WF:__ZN15DOS_Drive_Cache8FindNextEtRPc
XF:_buffer_grow_fragments
YF:_fflush
ZF:__ZN7fatFileC2EPKcjjP8fatDrive
_F:__ZL17MIXER_Mix_NoSoundv
$F:_fclose
aG:__ZL13CheckVoiceIrqv
bG:__Z18DOS_CreateTempFilePcPt
cG:__ZNSt3__26locale5__impD2Ev
dG:__ZNSt3__218__search_substringIcNS_11char_traitsIcEEEEPKT_S5_S5_S5_S5_
eG:__ZN6CEventC2EPKc
fG:__ZN5Adlib7Capture10InitHeaderEv
gG:_zip_source_buffer_fragment_create
hG:_zip_fread
iG:__zip_dirent_init
jG:__ZN13Virtual_Drive9FindFirstEPcR7DOS_DTAb
kG:__ZL14slave_startIRQv
lG:__ZN9DOS_Shell11RunInternalEv
mG:__ZNKSt3__28time_getIwNS_19istreambuf_iteratorIwNS_11char_traitsIwEEEEE16do_get_monthnameES4_S4_RNS_8ios_baseERjP2tm
nG:__ZNKSt3__28time_getIwNS_19istreambuf_iteratorIwNS_11char_traitsIwEEEEE14do_get_weekdayES4_S4_RNS_8ios_baseERjP2tm
oG:__ZNKSt3__28time_getIcNS_19istreambuf_iteratorIcNS_11char_traitsIcEEEEE16do_get_monthnameES4_S4_RNS_8ios_baseERjP2tm
pG:__ZNKSt3__28time_getIcNS_19istreambuf_iteratorIcNS_11char_traitsIcEEEEE14do_get_weekdayES4_S4_RNS_8ios_baseERjP2tm
qG:__ZN9Prop_pathC2ERKNSt3__212basic_stringIcNS0_11char_traitsIcEENS0_9allocatorIcEEEEN8Property10Changeable5ValueEPKc
rG:__ZL9QueueByteh
sG:__ZL12CGA2_FillRowhhhjh
tG:__ZNSt3__215__num_get_floatIeEET_PKcS3_Rj
uG:__ZN5DBOPL8Operator14TemplateVolumeILNS0_5StateE3EEEiv
vG:__ZNSt3__215__num_get_floatIfEET_PKcS3_Rj
wG:__ZNSt3__215__num_get_floatIdEET_PKcS3_Rj
xG:__Z16CPU_IO_Exceptionjj
yG:_strstr
zG:__ZL9read_p3c9jj
AG:__ZNKSt3__28time_getIwNS_19istreambuf_iteratorIwNS_11char_traitsIwEEEEE11do_get_timeES4_S4_RNS_8ios_baseERjP2tm
BG:__ZNKSt3__28time_getIcNS_19istreambuf_iteratorIcNS_11char_traitsIcEEEEE11do_get_timeES4_S4_RNS_8ios_baseERjP2tm
CG:__ZN9localFile5WriteEPhPt
DG:__Z35INT10_SetupBasicVideoParameterTablev
EG:__ZL15cmos_checktimerv
FG:_strcasecmp
GG:__ZNKSt3__28time_getIwNS_19istreambuf_iteratorIwNS_11char_traitsIwEEEEE11do_get_yearES4_S4_RNS_8ios_baseERjP2tm
HG:_zip_source_pkware
IG:__ZNSt3__213basic_filebufIcNS_11char_traitsIcEEE12__write_modeEv
JG:__ZNKSt3__28time_getIcNS_19istreambuf_iteratorIcNS_11char_traitsIcEEEEE11do_get_yearES4_S4_RNS_8ios_baseERjP2tm
KG:__Z16INT10_ReloadFontv
LG:__ZL12GUS_CallBackj
MG:__Z10mem_memcpyjjj
NG:__ZNKSt3__27num_getIwNS_19istreambuf_iteratorIwNS_11char_traitsIwEEEEE6do_getES4_S4_RNS_8ios_baseERjRf
OG:__ZNKSt3__27num_getIwNS_19istreambuf_iteratorIwNS_11char_traitsIwEEEEE6do_getES4_S4_RNS_8ios_baseERjRe
PG:__ZNKSt3__27num_getIwNS_19istreambuf_iteratorIwNS_11char_traitsIwEEEEE6do_getES4_S4_RNS_8ios_baseERjRd
QG:__ZNKSt3__27num_getIcNS_19istreambuf_iteratorIcNS_11char_traitsIcEEEEE6do_getES4_S4_RNS_8ios_baseERjRf
RG:__ZNKSt3__27num_getIcNS_19istreambuf_iteratorIcNS_11char_traitsIcEEEEE6do_getES4_S4_RNS_8ios_baseERjRe
SG:__ZNKSt3__27num_getIcNS_19istreambuf_iteratorIcNS_11char_traitsIcEEEEE6do_getES4_S4_RNS_8ios_baseERjRd
TG:__ZN10CBindGroup16ActivateBindListEPNSt3__24listIP5CBindNS0_9allocatorIS3_EEEEib
UG:__ZNSt3__213basic_ostreamIcNS_11char_traitsIcEEE6sentryD2Ev
VG:__ZN7CMscdex20GetDocumentationNameEtj
WG:__ZNKSt3__212basic_stringIcNS_11char_traitsIcEENS_9allocatorIcEEE7compareEmmPKcm
XG:__zip_dirent_set_version_needed
YG:_scalbn
ZG:__Z17INT10_WriteStringhhhhjth
_G:__ZNKSt3__27num_getIwNS_19istreambuf_iteratorIwNS_11char_traitsIwEEEEE6do_getES4_S4_RNS_8ios_baseERjS8_
$G:__ZNKSt3__27num_getIcNS_19istreambuf_iteratorIcNS_11char_traitsIcEEEEE6do_getES4_S4_RNS_8ios_baseERjS8_
aH:__ZN7CMscdex16GetCopyrightNameEtj
bH:__ZNKSt3__27num_getIwNS_19istreambuf_iteratorIwNS_11char_traitsIwEEEEE6do_getES4_S4_RNS_8ios_baseERjRy
cH:__ZNKSt3__27num_getIwNS_19istreambuf_iteratorIwNS_11char_traitsIwEEEEE6do_getES4_S4_RNS_8ios_baseERjRt
dH:__ZNKSt3__27num_getIwNS_19istreambuf_iteratorIwNS_11char_traitsIwEEEEE6do_getES4_S4_RNS_8ios_baseERjRm
eH:__ZNKSt3__27num_getIcNS_19istreambuf_iteratorIcNS_11char_traitsIcEEEEE6do_getES4_S4_RNS_8ios_baseERjRy
fH:__ZNKSt3__27num_getIcNS_19istreambuf_iteratorIcNS_11char_traitsIcEEEEE6do_getES4_S4_RNS_8ios_baseERjRt
gH:__ZNKSt3__27num_getIcNS_19istreambuf_iteratorIcNS_11char_traitsIcEEEEE6do_getES4_S4_RNS_8ios_baseERjRm
hH:__ZN7CMscdex15GetAbstractNameEtj
iH:__ZL8FPU_ST80jj
jH:__ZL11VGA_CopyRowhhhhj
kH:__ZNKSt3__28time_getIwNS_19istreambuf_iteratorIwNS_11char_traitsIwEEEEE10__get_yearERiRS4_S4_RjRKNS_5ctypeIwEE
lH:__ZNKSt3__28time_getIcNS_19istreambuf_iteratorIcNS_11char_traitsIcEEEEE10__get_yearERiRS4_S4_RjRKNS_5ctypeIcEE
mH:__ZNKSt3__27num_getIwNS_19istreambuf_iteratorIwNS_11char_traitsIwEEEEE6do_getES4_S4_RNS_8ios_baseERjRx
nH:__ZNKSt3__27num_getIwNS_19istreambuf_iteratorIwNS_11char_traitsIwEEEEE6do_getES4_S4_RNS_8ios_baseERjRl
oH:__ZNKSt3__27num_getIcNS_19istreambuf_iteratorIcNS_11char_traitsIcEEEEE6do_getES4_S4_RNS_8ios_baseERjRx
pH:__ZNKSt3__27num_getIcNS_19istreambuf_iteratorIcNS_11char_traitsIcEEEEE6do_getES4_S4_RNS_8ios_baseERjRl
qH:__ZNSt3__26locale5__imp7installEPNS0_5facetEl
rH:__ZNSt3__214__num_put_base18__identify_paddingEPcS1_RKNS_8ios_baseE
sH:__ZN13CHandlerEventC2EPKcPFvbE7MapKeysjS1_
tH:__ZNSt3__210__list_impINS_12basic_stringIcNS_11char_traitsIcEENS_9allocatorIcEEEENS4_IS6_EEE5clearEv
uH:_strtox
vH:__ZNSt3__212basic_stringIcNS_11char_traitsIcEENS_9allocatorIcEEE6__initEPKcmm
wH:__ZN14AutoexecObject13InstallBeforeERKNSt3__212basic_stringIcNS0_11char_traitsIcEENS0_9allocatorIcEEEE
xH:__ZN16CContinuousEvent15DeActivateEventEb
yH:__ZL19TandyDACModeChangedv
zH:__ZL16DSP_ADC_CallBackP10DmaChannel8DMAEvent
AH:__Z13CPU_WRITE_DRXjj
BH:___ftello_unlocked
CH:__ZN8fatDrive15allocateClusterEjj
DH:__ZL17EMM_ReleaseMemoryt
EH:__zip_ef_get_by_id
FH:__ZN9DOS_Shell8CMD_CALLEPc
GH:__ZN7Program18WriteOut_NoParsingEPKc
HH:__Z8CPU_POPFj
IH:_frexp
JH:__ZNSt3__212basic_stringIcNS_11char_traitsIcEENS_9allocatorIcEEE6__initEPKcm
KH:__ZN7Program9GetEnvNumEjRNSt3__212basic_stringIcNS0_11char_traitsIcEENS0_9allocatorIcEEEE
LH:__ZNSt3__26vectorI9SDL_EventNS_9allocatorIS1_EEE12__move_rangeEPS1_S5_S5_
MH:__ZNSt3__212basic_stringIcNS_11char_traitsIcEENS_9allocatorIcEEE6__initEmc
NH:__ZNKSt3__28time_getIwNS_19istreambuf_iteratorIwNS_11char_traitsIwEEEEE13__get_12_hourERiRS4_S4_RjRKNS_5ctypeIwEE
OH:__ZNKSt3__28time_getIcNS_19istreambuf_iteratorIcNS_11char_traitsIcEEEEE13__get_12_hourERiRS4_S4_RjRKNS_5ctypeIcEE
PH:__ZL12CGA4_CopyRowhhhhj
QH:__ZL24Tandy_TransferInProgressv
RH:__ZL17SBLASTER_CallBackj
SH:__ZNSt3__215basic_stringbufIcNS_11char_traitsIcEENS_9allocatorIcEEE9underflowEv
TH:__ZN11CommandLine9FindEntryEPKcRNSt3__215__list_iteratorINS2_12basic_stringIcNS2_11char_traitsIcEENS2_9allocatorIcEEEEPvEEb
UH:__ZNKSt3__28time_getIwNS_19istreambuf_iteratorIwNS_11char_traitsIwEEEEE9__get_dayERiRS4_S4_RjRKNS_5ctypeIwEE
VH:__ZNKSt3__28time_getIwNS_19istreambuf_iteratorIwNS_11char_traitsIwEEEEE18__get_day_year_numERiRS4_S4_RjRKNS_5ctypeIwEE
WH:__ZNKSt3__28time_getIcNS_19istreambuf_iteratorIcNS_11char_traitsIcEEEEE9__get_dayERiRS4_S4_RjRKNS_5ctypeIcEE
XH:__ZNKSt3__28time_getIcNS_19istreambuf_iteratorIcNS_11char_traitsIcEEEEE18__get_day_year_numERiRS4_S4_RjRKNS_5ctypeIcEE
YH:__ZL11IOFaultCorev
ZH:__ZN10localDrive7TestDirEPc
_H:__ZNKSt3__28time_getIwNS_19istreambuf_iteratorIwNS_11char_traitsIwEEEEE11__get_monthERiRS4_S4_RjRKNS_5ctypeIwEE
$H:__ZNKSt3__28time_getIcNS_19istreambuf_iteratorIcNS_11char_traitsIcEEEEE11__get_monthERiRS4_S4_RjRKNS_5ctypeIcEE
aI:__Z15DOS_SetFileAttrPKct
bI:__ZL21MPU401_IntelligentOuth
cI:__ZNSt3__2plIcNS_11char_traitsIcEENS_9allocatorIcEEEENS_12basic_stringIT_T0_T1_EERKS9_S6_
dI:__ZN12Section_prop7Add_hexERKNSt3__212basic_stringIcNS0_11char_traitsIcEENS0_9allocatorIcEEEEN8Property10Changeable5ValueE3Hex
eI:__zip_buffer_peek
fI:__ZNSt3__214__split_bufferI9SDL_EventRNS_9allocatorIS1_EEE18__construct_at_endINS_13move_iteratorIPS1_EEEENS_9enable_ifIXsr21__is_forward_iteratorIT_EE5valueEvE4typeESB_SB_
gI:__ZNKSt3__28time_getIwNS_19istreambuf_iteratorIwNS_11char_traitsIwEEEEE13__get_weekdayERiRS4_S4_RjRKNS_5ctypeIwEE
hI:__ZNKSt3__28time_getIwNS_19istreambuf_iteratorIwNS_11char_traitsIwEEEEE12__get_secondERiRS4_S4_RjRKNS_5ctypeIwEE
iI:__ZNKSt3__28time_getIwNS_19istreambuf_iteratorIwNS_11char_traitsIwEEEEE12__get_minuteERiRS4_S4_RjRKNS_5ctypeIwEE
jI:__ZNKSt3__28time_getIcNS_19istreambuf_iteratorIcNS_11char_traitsIcEEEEE13__get_weekdayERiRS4_S4_RjRKNS_5ctypeIcEE
kI:__ZNKSt3__28time_getIcNS_19istreambuf_iteratorIcNS_11char_traitsIcEEEEE12__get_secondERiRS4_S4_RjRKNS_5ctypeIcEE
lI:__ZNKSt3__28time_getIcNS_19istreambuf_iteratorIcNS_11char_traitsIcEEEEE12__get_minuteERiRS4_S4_RjRKNS_5ctypeIcEE
mI:__ZL14TANDY_FindModev
nI:__Z14DOS_FreeMemoryt
oI:__Z11PIC_runIRQsv
pI:__ZNKSt3__28time_getIwNS_19istreambuf_iteratorIwNS_11char_traitsIwEEEEE10__get_hourERiRS4_S4_RjRKNS_5ctypeIwEE
qI:__ZNKSt3__28time_getIcNS_19istreambuf_iteratorIcNS_11char_traitsIcEEEEE10__get_hourERiRS4_S4_RjRKNS_5ctypeIcEE
rI:__ZL18EMM_RestorePageMapt
sI:__Z16PIC_RemoveEventsPFvjE
tI:__Z16BIOS_SetComPortsPt
uI:__ZN9PCSPEAKERD2Ev
vI:__ZN7CButtonC2Ejjjj
wI:_zip_source_free
xI:__ZL13INT70_Handlerv
yI:__Z9StripWordRPc
zI:_atoi
AI:__ZL9FPU_FPREMv
BI:__zip_unicode_to_utf8
CI:__ZN9DOS_Shell9CMD_SHIFTEPc
DI:__ZN7DOS_PSP13CopyFileTableEPS_b
EI:__ZL17MPU401_EOIHandlerj
FI:__ZN11CommandLine9FindExistEPKcb
GI:__ZL6EATREEj
HI:__ZN21CDROM_Interface_Image13GetCueKeywordERNSt3__212basic_stringIcNS0_11char_traitsIcEENS0_9allocatorIcEEEERNS0_13basic_istreamIcS3_EE
II:__ZL12CGA2_CopyRowhhhhj
JI:__zip_buffer_new
KI:__ZN8fatDrive13appendClusterEj
LI:_fmt_u
MI:__Z16SaveVgaRegistersv
NI:__Z15VGA_SetBlinkingj
OI:_fourbyte_strstr
PI:___divdi3
QI:__ZNSt3__214__split_bufferINS_12basic_stringIcNS_11char_traitsIcEENS_9allocatorIcEEEERNS4_IS6_EEEC2EmmS8_
RI:__ZL10FPU_FLDENVj
SI:__Z13DOS_FlushFilet
TI:__ZN8isoDrive14GetDirIteratorEPK11isoDirEntry
UI:__ZN14DOS_ParamBlock8SaveDataEv
VI:__Z12PIC_AddEventPFvjEfj
WI:_dirname
XI:__ZN8DOS_FileC2ERKS_
YI:__ZN15DOS_Drive_Cache9CFileInfoD2Ev
ZI:__ZNSt3__212basic_stringIcNS_11char_traitsIcEENS_9allocatorIcEEEC2ERKS5_mmRKS4_
_I:__ZNSt3__212__hash_tableINS_17__hash_value_typeINS_12basic_stringIcNS_11char_traitsIcEENS_9allocatorIcEEEEPFvRKS7_PKcPFvS9_RK10jsonstreamEEEENS_22__unordered_map_hasherIS7_SJ_NS_4hashIS7_EELb1EEENS_21__unordered_map_equalIS7_SJ_NS_8equal_toIS7_EELb1EEENS5_ISJ_EEE17__deallocate_nodeEPNS_16__hash_node_baseIPNS_11__hash_nodeISJ_PvEEEE
$I:__ZNKSt3__210__time_put8__do_putEPcRS1_PK2tmcc
aJ:__ZN5DBOPL8OperatorC2Ev
bJ:__ZL11DOS_AddDaysj
cJ:__ZL8FPU_FCOMjj
dJ:_strtox_272
eJ:__ZN6Events12pollSDLEventEP9SDL_Event
fJ:__ZN10localDriveC2EPKcthtth
gJ:__ZN9DOS_Shell7CMD_CLSEPc
hJ:__ZN6ConfigD2Ev
iJ:__ZN5Adlib6ModuleD2Ev
jJ:__ZL17AddKeyButtonEventjjjjPKcS0_8KBD_KEYS
kJ:__ZL14write_lightpenjjj
lJ:__ZN9CJHatBindC2EPNSt3__24listIP5CBindNS0_9allocatorIS3_EEEEP10CBindGroupjh
mJ:__ZL10INT14_WaitthhPh
nJ:__ZNSt3__214__split_bufferI9SDL_EventRNS_9allocatorIS1_EEEC2EmmS4_
oJ:__ZL15EMM_SavePageMapt
pJ:__ZN9imageDisk20Write_AbsoluteSectorEjPv
qJ:__ZL13modify_cyclesi
rJ:__Z9MSG_WritePKc
sJ:__Z18mem_unalignedreadwj
tJ:__ZNKSt3__27codecvtIwc11__mbstate_tE9do_lengthERS1_PKcS5_m
uJ:__Z21SDL_SetVideoMode_Wrapiiij
vJ:__Z18XGA_Read_Multifuncv
wJ:__ZNSt3__2L11init_wam_pmEv
xJ:__ZNSt3__2L10init_am_pmEv
yJ:__ZN9CJHatBind8BindNameEPc
zJ:__Z12VGA_SetupDACv
AJ:__ZN13DmaControllerC2Eh
BJ:_zip_source_crc
CJ:__ZNSt3__214__split_bufferIPNS_6locale5facetERNS_15__sso_allocatorIS3_Lm28EEEED2Ev
DJ:__Z15VGA_SetupMemoryP7Section
EJ:_context_new
FJ:__zip_d2u_time
GJ:__ZL11disney_readjj
HJ:__ZN8fatDrive10FileUnlinkEPc
IJ:__Z18BIOS_SetupKeyboardv
JJ:__Z12DOS_FindNextv
KJ:__ZNSt3__214__split_bufferIPN15DOS_Drive_Cache9CFileInfoERNS_9allocatorIS3_EEEC2EmmS6_
LJ:__ZNSt3__214__split_bufferIN21CDROM_Interface_Image5TrackERNS_9allocatorIS2_EEEC2EmmS5_
MJ:__ZL23VGA_Draw_2BPPHiRes_Linejj
NJ:__Z19mem_unalignedwritewjt
OJ:__ZN7CSerial9Write_IEREh
PJ:__ZN20VGA_TEXT_PageHandler5readbEj
QJ:__ZN15DOS_Drive_Cache9GetFreeIDEPNS_9CFileInfoE
RJ:__ZN10device_COM5WriteEPhPt
SJ:_buffer_seek
TJ:__ZN21CDROM_Interface_Image17GetAudioTrackInfoEiR4SMSFRh
UJ:__ZN14PIC_Controller13check_for_irqEv
VJ:___toread
WJ:__ZN20VGA_TEXT_PageHandler6writebEjj
XJ:__Z15GFX_GetBestModej
YJ:__ZNSt3__214__split_bufferINS_12basic_stringIcNS_11char_traitsIcEENS_9allocatorIcEEEERNS4_IS6_EEE18__construct_at_endINS_13move_iteratorIPS6_EEEENS_9enable_ifIXsr21__is_forward_iteratorIT_EE5valueEvE4typeESF_SF_
ZJ:__ZN5CBind8SetFlagsEPc
_J:_zip_source_seek
$J:__Z12XGA_GetPointjj
aK:___procfdname
bK:__Z15FPU_ESC2_Normalj
cK:__ZN10localDrive6RenameEPcS0_
dK:__zip_dirent_needs_zip64
eK:__ZL16OPL_SaveRawEventb
fK:__ZL10Pause_Loopv
gK:__ZNSt3__214__split_bufferIP13CHandlerEventRNS_9allocatorIS2_EEEC2EmmS5_
hK:__ZN7CMscdex12GetTrackInfoEhhRhR4SMSF
iK:__ZL8SetupPSPttt
jK:__ZL16DSP_ChangeStereob
kK:__ZL11VGA_FillRowhhhjh
lK:__ZNSt3__26locale2id5__getEv
mK:__ZNKSt3__28time_getIwNS_19istreambuf_iteratorIwNS_11char_traitsIwEEEEE11__get_year4ERiRS4_S4_RjRKNS_5ctypeIwEE
nK:__ZNKSt3__28time_getIcNS_19istreambuf_iteratorIcNS_11char_traitsIcEEEEE11__get_year4ERiRS4_S4_RjRKNS_5ctypeIcEE
oK:__ZN7CMscdex13GetVolumeNameEhPc
pK:__Z19CALLBACK_RunRealFartt
qK:__Z13KEYBOARD_InitP7Section
rK:__ZNSt3__214__split_bufferIPFvPP7ProgramERNS_9allocatorIS5_EEEC2EmmS8_
sK:__ZL13IsEnhancedKeyRt
tK:__ZNSt3__214__split_bufferIP10CBindGroupRNS_9allocatorIS2_EEEC2EmmS5_
uK:__ZN8Prop_hexC2ERKNSt3__212basic_stringIcNS0_11char_traitsIcEENS0_9allocatorIcEEEEN8Property10Changeable5ValueE3Hex
vK:__ZN5DBOPL8Operator14TemplateVolumeILNS0_5StateE4EEEiv
wK:__ZN9DOS_Shell8CMD_EXITEPc
xK:__Z14XGA_SetDualRegRjj
yK:__ZNSt3__214__split_bufferIP9DOS_DriveRNS_9allocatorIS2_EEEC2EmmS5_
zK:__ZNSt3__214__split_bufferI10copysourceRNS_9allocatorIS1_EEEC2EmmS4_
AK:__ZL13DOS_25Handlerv
BK:__ZL17BIOS_HostTimeSyncv
CK:_threebyte_strstr
DK:__ZNSt3__214__split_bufferIP7CButtonRNS_9allocatorIS2_EEEC2EmmS5_
EK:__ZNSt3__214__split_bufferIP6CEventRNS_9allocatorIS2_EEEC2EmmS5_
FK:__Z24XMS_GetHandleInformationjRhS_Rt
GK:__ZNK6Config10GetSectionERKNSt3__212basic_stringIcNS0_11char_traitsIcEENS0_9allocatorIcEEEE
HK:__ZL14OpenDosboxFilePKc
IK:__ZNSt3__214__split_bufferI5ValueRNS_9allocatorIS1_EEEC2EmmS4_
JK:__ZNKSt3__212basic_stringIcNS_11char_traitsIcEENS_9allocatorIcEEE4findEcm
KK:__ZN9imageDisk19Read_AbsoluteSectorEjPv
LK:__ZN7isoFileC2EP8isoDrivePKcP14FileStat_Blockj
MK:__ZL25VGA_Draw_4BPP_Line_Doublejj
NK:__ZN21InitPageUserROHandler14writed_checkedEjj
OK:__ZN21CDROM_Interface_Image15PlayAudioSectorEmm
PK:__Z13DOS_FCBCreatett
QK:__Z12CPU_READ_DRXjRj
RK:__ZN15MidiHandler_oss7PlayMsgEPh
SK:__ZNSt3__210__list_impIN7Section16Function_wrapperENS_9allocatorIS2_EEE5clearEv
TK:__ZNK10__cxxabiv117__class_type_info24process_found_base_classEPNS_19__dynamic_cast_infoEPvi
UK:__ZN12Section_prop15Add_multiremainERKNSt3__212basic_stringIcNS0_11char_traitsIcEENS0_9allocatorIcEEEEN8Property10Changeable5ValueES8_
VK:__Z29INT10_PerformGrayScaleSummingtt
WK:__ZNSt3__214__split_bufferIPNS_6locale5facetERNS_15__sso_allocatorIS3_Lm28EEEEC2EmmS6_
XK:__ZNKSt3__27collateIcE10do_compareEPKcS3_S3_S3_
YK:__ZN5Adlib6Module9DualWriteEhhh
ZK:_zip_source_commit_write
_K:__ZL10PathExistsPKc
$K:__ZN7Program15ChangeToLongCmdEv
aL:__ZN24VGA_UnchainedEGA_Handler6writedEjj
bL:__ZN11GUSChannelsC2Eh
cL:__ZL14AddJAxisButtonjjjjPKcjjbP11CJAxisEvent
dL:__Z23DOS_DelMultiplexHandlerPFbvE
eL:__Z19BIOS_AddKeyToBuffert
fL:__ZN7CMscdex13GetCurrentPosEhR4SMSF
gL:__ZN7CMscdex11ReadSectorsEhbjtj
hL:__ZNKSt3__212basic_stringIcNS_11char_traitsIcEENS_9allocatorIcEEE5rfindEcm
iL:_fopen
jL:__ZNSt3__24listINS_12basic_stringIcNS_11char_traitsIcEENS_9allocatorIcEEEENS4_IS6_EEE5eraseENS_21__list_const_iteratorIS6_PvEE
kL:__ZNSt3__214__num_put_base12__format_intEPcPKcbj
lL:__Z16DOS_FCBFindFirsttt
mL:__Z14swapInNextDiskb
nL:__ZNSt3__26vectorI5ValueNS_9allocatorIS1_EEE11__vallocateEm
oL:__ZN15DOS_Drive_Cache13ClearFileInfoEPNS_9CFileInfoE
pL:__ZN12Section_prop9Add_multiERKNSt3__212basic_stringIcNS0_11char_traitsIcEENS0_9allocatorIcEEEEN8Property10Changeable5ValueES8_
qL:__ZN12Section_prop10Add_stringERKNSt3__212basic_stringIcNS0_11char_traitsIcEENS0_9allocatorIcEEEEN8Property10Changeable5ValueEPKc
rL:__ZN9DOS_Shell10CMD_ATTRIBEPc
sL:__ZN5DBOPL8Operator13UpdateReleaseEPKNS_4ChipE
tL:_zip_open
uL:__ZNSt3__26vectorIPN15DOS_Drive_Cache9CFileInfoENS_9allocatorIS3_EEE12__move_rangeEPS3_S7_S7_
vL:__ZNSt3__212basic_stringIcNS_11char_traitsIcEENS_9allocatorIcEEE6assignERKS5_mm
wL:__ZN4OPL318change_releaserateEjPNS_15operator_structE
xL:__ZN4OPL218change_releaserateEjPNS_15operator_structE
yL:__ZL12SetTextLinesv
zL:__ZNSt3__210__list_impIP8PropertyNS_9allocatorIS2_EEE5clearEv
AL:__ZNSt3__210__list_impIP7SectionNS_9allocatorIS2_EEE5clearEv
BL:__ZN9DOS_Shell7CMD_REMEPc
CL:__Z15GFX_StartUpdateRPhRj
DL:__ZNSt3__213__vector_baseINS_12basic_stringIcNS_11char_traitsIcEENS_9allocatorIcEEEENS4_IS6_EEED2Ev
EL:__ZN21InitPageUserROHandler14writew_checkedEjj
FL:__ZN12Section_prop8Add_pathERKNSt3__212basic_stringIcNS0_11char_traitsIcEENS0_9allocatorIcEEEEN8Property10Changeable5ValueEPKc
GL:__ZL18KEYBOARD_AddBufferh
HL:__zip_file_exists
IL:__ZNSt3__210__list_impIP5CBindNS_9allocatorIS2_EEE5clearEv
JL:__ZN4OPL316change_decayrateEjPNS_15operator_structE
KL:__ZN4OPL216change_decayrateEjPNS_15operator_structE
LL:_inflateEnd
ML:__ZN5DBOPL8Operator14TemplateVolumeILNS0_5StateE2EEEiv
NL:__Z13VGA_SetupMiscv
OL:_twobyte_strstr
PL:_strlen
QL:__ZNKSt3__27collateIwE10do_compareEPKwS3_S3_S3_
RL:__ZN16VGA_LIN4_Handler6writedEjj
SL:__ZN12Section_prop8Add_boolERKNSt3__212basic_stringIcNS0_11char_traitsIcEENS0_9allocatorIcEEEEN8Property10Changeable5ValueEb
TL:__ZL11FPU_FXTRACTv
UL:__ZL13PCJr_FindModev
VL:_zip_get_num_entries
WL:__ZN12Section_prop7Add_intERKNSt3__212basic_stringIcNS0_11char_traitsIcEENS0_9allocatorIcEEEEN8Property10Changeable5ValueEi
XL:__ZN12CCheckButton5ClickEv
YL:__ZNSt3__26vectorI5ValueNS_9allocatorIS1_EEEC2ERKS4_
ZL:__ZN10cdromDrive8FileOpenEPP8DOS_FilePcj
_L:__Z13CALLBACK_Idlev
$L:_zip_source_get_compression_flags
aM:__ZN9localFile4ReadEPhPt
bM:__ZL9write_cmsjjj
cM:__ZL14LoadMoveRegionjR10MoveRegion
dM:__ZN25VGA_UnchainedRead_Handler5readdEj
eM:__ZL12status_latchj
fM:__ZN24VGA_UnchainedVGA_Handler6writedEjj
gM:_fstat
hM:__ZL8write_sbjjj
iM:__ZNKSt3__27codecvtIDsc11__mbstate_tE6do_outERS1_PKDsS5_RS5_PcS7_RS7_
jM:__ZN10device_CON14GetInformationEv
kM:__Z10mem_writedjj
lM:__ZNKSt3__27codecvtIDsc11__mbstate_tE5do_inERS1_PKcS5_RS5_PDsS7_RS7_
mM:__ZNKSt3__27codecvtIDic11__mbstate_tE6do_outERS1_PKDiS5_RS5_PcS7_RS7_
nM:__ZN15CStickBindGroup14CreateAxisBindEjb
oM:__ZN10cdromDrive9FindFirstEPcR7DOS_DTAb
pM:__ZNKSt3__27codecvtIDic11__mbstate_tE5do_inERS1_PKcS5_RS5_PDiS7_RS7_
qM:__ZNSt3__213basic_filebufIcNS_11char_traitsIcEEE11__read_modeEv
rM:__Z9mem_readdj
sM:__ZN15MidiHandler_oss9PlaySysexEPhj
tM:__Z28INT10_GetAllPaletteRegistersj
uM:__ZNSt3__26vectorIPNS_6locale5facetENS_15__sso_allocatorIS3_Lm28EEEE11__vallocateEm
vM:__ZN15CStickBindGroup13CreateHatBindEjh
wM:_strtok
xM:__ZL15MakeAspectTablejjdj
yM:__ZN21CDROM_Interface_Image11ReadSectorsEjbmm
zM:_compression_source_new
AM:_zip_source_seek_write
BM:__zip_cdir_free
CM:_zip_source_stat
DM:__ZNSt3__214__split_bufferINS_12basic_stringIcNS_11char_traitsIcEENS_9allocatorIcEEEERNS4_IS6_EEED2Ev
EM:__ZN8Prop_intC2ERKNSt3__212basic_stringIcNS0_11char_traitsIcEENS0_9allocatorIcEEEEN8Property10Changeable5ValueEi
FM:_zip_source_make_command_bitmap
GM:__ZNSt3__214__split_bufferIPN15DOS_Drive_Cache9CFileInfoERNS_9allocatorIS3_EEE18__construct_at_endINS_13move_iteratorIPS3_EEEENS_9enable_ifIXsr21__is_forward_iteratorIT_EE5valueEvE4typeESD_SD_
HM:___strerror_l
IM:__ZN25VGA_UnchainedRead_Handler11readHandlerEj
JM:__Z11ScanCMDBoolPcPKc
KM:__ZN6Events15fixEventKeyCodeEP9SDL_Event
LM:__ZN22VGA_ChainedEGA_Handler6writedEjj
MM:__ZN5Adlib7Capture8AddWriteEjh
NM:__Z14DOS_UnlinkFilePKc
OM:__ZN16VGA_LIN4_Handler5readdEj
PM:__ZN15CTriggeredEvent13ActivateEventEbb
QM:__ZN10localDrive11GetFileAttrEPcPt
RM:__zip_u2d_time
SM:___shlim
TM:__ZNSt3__212basic_stringIcNS_11char_traitsIcEENS_9allocatorIcEEEaSEc
UM:__ZNK10__cxxabiv120__si_class_type_info16search_above_dstEPNS_19__dynamic_cast_infoEPKvS4_ib
VM:__ZN7CSerialD2Ev
WM:__ZN22VGA_ChainedEGA_Handler5readdEj
XM:__ZN15keyboard_layout5resetEv
YM:__Z15VESA_GetPalettejjj
ZM:_getcwd
_M:_strncmp
$M:__ZN13Virtual_Drive8FileOpenEPP8DOS_FilePcj
aN:__ZL18DOSBOX_UnlockSpeedb
bN:__Z9read_p3c5jj
cN:__Z16MIXER_AddChannelPFvjEjPKc
dN:__ZN5Value10set_stringERKNSt3__212basic_stringIcNS0_11char_traitsIcEENS0_9allocatorIcEEEE
eN:__ZL10write_p201jjj
fN:__ZL10HLT_Decodev
gN:__ZN7CSerial15ByteTransmittedEv
hN:_puts
iN:__Z11MEM_StrCopyjPcj
jN:__ZN21CDROM_Interface_Image10BinaryFile9getLengthEv
kN:__ZN12Virtual_File4ReadEPhPt
lN:__ZN11GUSChannels11WritePanPotEh
mN:__ZN10device_COM4ReadEPhPt
nN:__Z15VESA_SetPalettejjj
oN:__ZN21CDROM_Interface_ImageD2Ev
pN:__ZN21CDROM_Interface_Image9SetDeviceEPci
qN:__ZN12DriveManager10AppendDiskEiP9DOS_Drive
rN:__ZL12TandyDACReadjj
sN:__ZN21CDROM_Interface_Image11ClearTracksEv
tN:__ZL17HandleMouseMotionP20SDL_MouseMotionEvent
uN:__ZL13DTAExtendNamePcS_S_
vN:__Z28INT10_SetOverscanBorderColorh
wN:__ZN7CMscdex13GetVolumeSizeEh
xN:_pad_716
yN:__ZN8fatDrive16deleteClustChainEj
zN:__ZN8isoDrive11GetFileAttrEPcPt
AN:__ZN8fatDrive9FindFirstEPcR7DOS_DTAb
BN:__ZN13CKeyBindGroup15CreateEventBindEP9SDL_Event
CN:__ZL10SetCurModeP14VideoModeBlockt
DN:__Z20DOS_GetFreeDiskSpacehPtPhS_S_
EN:__ZL23KEYBOARD_TransferBufferj
FN:__Z26INT10_SetSingleDACRegisterhhhh
GN:__ZNSt3__24listINS_12basic_stringIcNS_11char_traitsIcEENS_9allocatorIcEEEENS4_IS6_EEE9pop_frontEv
HN:__ZL13INT17_Handlerv
IN:_zip_fopen_index_encrypted
JN:_open
KN:__ZN12MessageBlockC2EPKcS1_
LN:__Z30INT10_SetupVideoParameterTablej
MN:__ZN5DBOPL7Handler8GenerateEP12MixerChannelj
NN:__ZL16MAPPER_LoadBindsv
ON:__ZN5Adlib7Capture10WriteCacheEv
PN:__Z11CPU_GET_CRXj
QN:__ZN6MyFifo4getbEv
RN:__ZL11UpdateTrackh
SN:__ZN8fatDrive14zeroOutClusterEj
TN:__ZL24TandyDACGenerateDMASoundj
UN:__ZN13CFCSBindGroupC2Ejj
VN:__Z17SVGA_Setup_Driverv
WN:__zip_deregister_source
XN:__ZNSt3__29__num_getIwE17__stage2_int_prepERNS_8ios_baseERw
YN:__ZNSt3__29__num_getIcE17__stage2_int_prepERNS_8ios_baseERc
ZN:__ZNK10__cxxabiv129__pointer_to_member_type_info16can_catch_nestedEPKNS_16__shim_type_infoE
_N:__ZN21InitPageUserROHandler14writeb_checkedEjj
$N:__ZN15DOS_Drive_CacheC2Ev
aO:__ZL14TandyDACUpdatej
bO:__ZL20Mouse_SetSensitivityttt
cO:__ZN16TaskStateSegment12Get_SSx_ESPxEjRjS0_
dO:__ZN15InitPageHandler5readwEj
eO:__ZL18VGA_Draw_4BPP_Linejj
fO:__Z14RENDER_SetSizejjjfdbb
gO:__ZN5MIXER10ShowVolumeEPKcff
hO:__Z9mem_readwj
iO:__Z20DetermineMode_PVGA1Av
jO:__ZN15InitPageHandler5readbEj
kO:__ZL10FPU_FSTENVj
lO:__Z10mem_writewjt
mO:__ZN14PIC_Controller9start_irqEh
nO:__Z18DetermineMode_ET4Kv
oO:__Z18DetermineMode_ET3Kv
pO:__zip_read
qO:__ZNSt3__24listINS_12basic_stringIcNS_11char_traitsIcEENS_9allocatorIcEEEENS4_IS6_EEE10push_frontERKS6_
rO:__ZNSt3__24listI12MessageBlockNS_9allocatorIS1_EEE5eraseENS_21__list_const_iteratorIS1_PvEE
sO:__ZN15InitPageHandler6writewEjj
tO:__ZL14GUS_TimerEventj
uO:__Z13DOS_AddDeviceP10DOS_Device
vO:___stdio_seek
wO:__ZN6MyFifo4addbEh
xO:__ZN15InitPageHandler6writebEjj
yO:__Z9CPU_PUSHFj
zO:__Z13CPU_WRITE_CRXjj
AO:__ZNSt3__24listIN7Section16Function_wrapperENS_9allocatorIS2_EEE10push_frontERKS2_
BO:__ZN15InitPageHandler5readdEj
CO:__ZN13Virtual_Drive8FileStatEPKcP14FileStat_Block
DO:__ZN20IO_WriteHandleObject7InstallEjPFvjjjEjj
EO:__ZN5Value9plaincopyERKS_
FO:__ZL20VGA_Draw_Linear_Linejj
GO:__ZN15InitPageHandler6writedEjj
HO:__ZL18VGA_Draw_1BPP_Linejj
IO:__ZN8Prop_int8SetValueERKNSt3__212basic_stringIcNS0_11char_traitsIcEENS0_9allocatorIcEEEE
JO:__ZN15DOS_Drive_Cache17RemoveTrailingDotEPc
KO:__ZN12Section_line15HandleInputlineERKNSt3__212basic_stringIcNS0_11char_traitsIcEENS0_9allocatorIcEEEE
LO:__ZL7get_keyRt
MO:__ZL13INT2F_Handlerv
NO:__Z14XGA_GetDualRegj
OO:__ZN19IO_ReadHandleObject7InstallEjPFjjjEjj
PO:__ZN11CommandLine11FindCommandEjRNSt3__212basic_stringIcNS0_11char_traitsIcEENS0_9allocatorIcEEEE
QO:__ZN21CDROM_Interface_Image10BinaryFile4readEPhii
RO:__ZNK10__cxxabiv122__base_class_type_info16search_above_dstEPNS_19__dynamic_cast_infoEPKvS4_ib
SO:__ZN5DBOPL7ChannelC2Ev
TO:__ZN12Section_propD2Ev
UO:__Z13vga_read_p3dajj
VO:_zip_source_layered_create
WO:__ZN15C4AxisBindGroupC2Ejj
XO:__Z16VGA_SetCGA2Tablehh
YO:_zip_source_close
ZO:_zip_source_buffer_create
_O:__zip_cdir_new
$O:__ZNSt3__213__vector_baseI10copysourceNS_9allocatorIS1_EEED2Ev
aP:__ZN5DBOPL8Operator7WriteE0EPKNS_4ChipEh
bP:__ZL9ExpandDotPcS_
cP:__ZNSt3__212basic_stringIcNS_11char_traitsIcEENS_9allocatorIcEEEC2ERKS5_
dP:__ZN10CJAxisBind8BindNameEPc
eP:__Z19INT10_SelectDACPagehh
fP:__ZNK10__cxxabiv120__si_class_type_info27has_unambiguous_public_baseEPNS_19__dynamic_cast_infoEPvi
gP:__Z18DOS_GetSTDINStatusv
hP:__Z10mem_strlenj
iP:__ZNSt3__24listIN7Section16Function_wrapperENS_9allocatorIS2_EEE9push_backERKS2_
jP:__ZN22CALLBACK_HandlerObject8AllocateEPFjvEPKc
kP:__ZN13DmaControllerD2Ev
lP:__ZN12CCHBindGroupC2Ejj
mP:__Z13MEM_BlockReadjPvj
nP:__Z13DOS_DelDeviceP10DOS_Device
oP:__ZNSt3__24listIN7Section16Function_wrapperENS_9allocatorIS2_EEE5eraseENS_21__list_const_iteratorIS2_PvEE
pP:__ZNK10__cxxabiv122__base_class_type_info27has_unambiguous_public_baseEPNS_19__dynamic_cast_infoEPvi
qP:__ZN11MixerObject7InstallEPFvjEjPKc
rP:__ZN10cdromDrive6SetDirEPKc
sP:__ZL19Default_IRQ_Handlerv
tP:__ZNSt3__24listINS_12basic_stringIcNS_11char_traitsIcEENS_9allocatorIcEEEENS4_IS6_EEE9push_backERKS6_
uP:__ZN5Cross23CreatePlatformConfigDirERNSt3__212basic_stringIcNS0_11char_traitsIcEENS0_9allocatorIcEEEE
vP:__ZL13AddJHatButtonjjjjPKcjjj
wP:__Z16INT10_GetDACPagePhS_
xP:_zip_source_remove
yP:_store_int
zP:__ZN8Prop_hex8SetValueERKNSt3__212basic_stringIcNS0_11char_traitsIcEENS0_9allocatorIcEEEE
AP:__ZN5DBOPL8Operator14TemplateVolumeILNS0_5StateE1EEEiv
BP:__ZN5DBOPL7Channel15UpdateFrequencyEPKNS_4ChipEh
CP:__ZN11CommandLine13Get_arglengthEv
DP:__ZN10DmaChannelC2Ehb
EP:__Z14MEM_BlockWritejPKvj
FP:__Z14GFX_SetPalettejjP12GFX_PalEntry
GP:__ZNSt3__213__vector_baseI5ValueNS_9allocatorIS1_EEED2Ev
HP:__ZNSt3__213unordered_mapINS_12basic_stringIcNS_11char_traitsIcEENS_9allocatorIcEEEEPFvRKS6_PKcPFvS8_RK10jsonstreamEENS_4hashIS6_EENS_8equal_toIS6_EENS4_INS_4pairIS7_SH_EEEEED2Ev
IP:__ZN11PageHandler5readdEj
JP:__zip_unchange_data
KP:__ZL23EMM_RestoreMappingTablev
LP:__ZN15DOS_Drive_Cache7OpenDirEPKcRt
MP:__ZN11PageHandler6writedEjj
NP:__ZNSt3__214__split_bufferIN21CDROM_Interface_Image5TrackERNS_9allocatorIS2_EEED2Ev
OP:__ZN22CALLBACK_HandlerObject11Set_RealVecEh
PP:__ZL13DOS_26Handlerv
QP:__ZNSt3__214__split_bufferIPN15DOS_Drive_Cache9CFileInfoERNS_9allocatorIS3_EEED2Ev
RP:__ZN5ValueC2ERKNSt3__212basic_stringIcNS0_11char_traitsIcEENS0_9allocatorIcEEEENS_5EtypeE
SP:__Z15DOS_GetFileAttrPKcPt
TP:__zip_ef_new
UP:__ZN22CALLBACK_HandlerObject7InstallEPFjvEjjPKc
VP:__Z7CPU_HLTj
WP:__ZN5CBindC2EPNSt3__24listIPS_NS0_9allocatorIS2_EEEE
XP:__ZN5Adlib6Module9CtrlWriteEh
YP:__ZN21CDROM_Interface_Image14GetAudioTracksERiS0_R4SMSF
ZP:__ZN10TANDYSOUNDD2Ev
_P:__ZN10CJAxisBind10ConfigNameEPc
$P:__ZL9Compositeb
aQ:__ZL11DSP_DoWriteh
bQ:__Z13DOS_SetupMiscv
cQ:__ZNK10__cxxabiv122__base_class_type_info16search_below_dstEPNS_19__dynamic_cast_infoEPKvib
dQ:__ZL8FPU_FXCHjj
eQ:__ZL13convToDirFilePcS_
fQ:__Z12VFILE_RemovePKc
gQ:__ZNK10__cxxabiv117__pbase_type_info9can_catchEPKNS_16__shim_type_infoERPv
hQ:__ZN9CJHatBind10ConfigNameEPc
iQ:__ZN12MixerChannel6FillUpEv
jQ:__Z29INT10_EGA_RIL_ReadRegisterSettj
kQ:__ZNSt3__214__split_bufferI10copysourceRNS_9allocatorIS1_EEED2Ev
lQ:__ZN21CDROM_Interface_Image8GetTrackEi
mQ:__ZL8FPU_FXAMv
nQ:__ZNSt3__24listIP5CBindNS_9allocatorIS2_EEE5eraseENS_21__list_const_iteratorIS2_PvEE
oQ:__Z16read_herc_statusjj
pQ:__ZNSt3__24listIPFbvENS_9allocatorIS2_EEE5eraseENS_21__list_const_iteratorIS2_PvEE
qQ:__ZNSt3__212__hash_tableINS_17__hash_value_typeINS_12basic_stringIcNS_11char_traitsIcEENS_9allocatorIcEEEEPFvRKS7_PKcPFvS9_RK10jsonstreamEEEENS_22__unordered_map_hasherIS7_SJ_NS_4hashIS7_EELb1EEENS_21__unordered_map_equalIS7_SJ_NS_8equal_toIS7_EELb1EEENS5_ISJ_EEEC2ERKST_
rQ:__zip_fseek
sQ:__ZN5DBOPL8Operator11UpdateRatesEPKNS_4ChipE
tQ:__ZN14PIC_Controller17update_active_irqEv
uQ:__ZL16AddJButtonButtonjjjjPKcjj
vQ:__ZN9DOS_ShellC2Ev
wQ:__Z17CALLBACK_Allocatev
xQ:__ZNSt3__214__split_bufferIP13CHandlerEventRNS_9allocatorIS2_EEED2Ev
yQ:__ZNSt3__213basic_filebufIcNS_11char_traitsIcEEE5closeEv
zQ:__ZN22VGA_ChainedVGA_Handler5readwEj
AQ:__Z18MEM_GetPageHandlerj
BQ:__ZL10write_p3c6jjj
CQ:_sbrk
DQ:__ZNSt3__214__split_bufferIPFvPP7ProgramERNS_9allocatorIS5_EEED2Ev
EQ:__ZN7CSerial20changeLinePropertiesEv
FQ:__ZL21AddJAxisButton_hiddenjjbP11CJAxisEvent
GQ:__ZZN6Events12registerExitEvENK3__1clERKNSt3__212basic_stringIcNS1_11char_traitsIcEENS1_9allocatorIcEEEEPKcPFvS9_RK10jsonstreamE
HQ:__ZNSt3__214__split_bufferIP10CBindGroupRNS_9allocatorIS2_EEED2Ev
IQ:__ZN18GDTDescriptorTable13SetDescriptorEjR10Descriptor
JQ:__ZN18GDTDescriptorTable13GetDescriptorEjR10Descriptor
KQ:__ZL12TEXT_FillRowhhhjh
LQ:__Z23IO_RegisterWriteHandlerjPFvjjjEjj
MQ:__ZNSt3__218__find_first_of_ceIPKcS2_PFbccEEET_S5_S5_T0_S6_T1_
NQ:__Z7lowcaseRNSt3__212basic_stringIcNS_11char_traitsIcEENS_9allocatorIcEEEE
OQ:_perror
PQ:___towrite
QQ:__ZNSt3__214__split_bufferIP9DOS_DriveRNS_9allocatorIS2_EEED2Ev
RQ:__ZNSt3__214__split_bufferI9SDL_EventRNS_9allocatorIS1_EEED2Ev
SQ:__ZNSt3__214__split_bufferI5ValueRNS_9allocatorIS1_EEED2Ev
TQ:__ZNKSt3__27codecvtIwc11__mbstate_tE11do_encodingEv
UQ:__ZN8PropertyC2ERKNSt3__212basic_stringIcNS0_11char_traitsIcEENS0_9allocatorIcEEEENS_10Changeable5ValueE
VQ:__ZN7DOS_DTA9SetResultEPKcjtth
WQ:__ZN3DOSD2Ev
XQ:__Z6upcaseRNSt3__212basic_stringIcNS_11char_traitsIcEENS_9allocatorIcEEEE
YQ:__Z22IO_RegisterReadHandlerjPFjjjEjj
ZQ:__ZN5DBOPL8Operator15UpdateFrequencyEv
_Q:__zip_source_new
$Q:__ZNSt3__214__split_bufferIP7CButtonRNS_9allocatorIS2_EEED2Ev
aR:__ZNSt3__214__split_bufferIP6CEventRNS_9allocatorIS2_EEED2Ev
bR:__ZN7DOS_DTA9GetResultEPcRjRtS2_Rh
cR:__ZN12Section_lineC2ERKNSt3__212basic_stringIcNS0_11char_traitsIcEENS0_9allocatorIcEEEE
dR:__ZN7SectionC2ERKNSt3__212basic_stringIcNS0_11char_traitsIcEENS0_9allocatorIcEEEE
eR:__ZNSt3__215basic_streambufIcNS_11char_traitsIcEEE5uflowEv
fR:__ZNKSt3__29__num_getIwE12__do_widen_pIwEEPKT_RNS_8ios_baseEPS3_
gR:__ZN10CBindGroupC2Ev
hR:__Z7CPU_CLIv
iR:__Z16SVGA_S3_GetClockv
jR:__ZN7DOS_PSP17FindEntryByHandleEh
kR:__ZN7DOS_FCB6CreateEb
lR:__ZN22CALLBACK_HandlerObject7InstallEPFjvEjPKc
mR:__ZN14PIC_Controller9lower_irqEh
nR:__ZL15RENDER_CallBack23GFX_CallBackFunctions_t
oR:__Z7CPU_STIv
pR:__ZN18IllegalPageHandler6writebEjj
qR:__ZN15DOS_Drive_Cache8SetLabelEPKcbb
rR:__ZN22VGA_ChainedVGA_Handler6writebEjj
sR:__Z13TIMER_AddTickv
tR:_strncat
uR:__Z16XMS_ResizeMemoryjj
vR:__ZN7CMscdex14GetMediaStatusEhRbS0_S0_
wR:__ZN7CButton5OnTopEjj
xR:__ZN5DBOPL8Operator12UpdateAttackEPKNS_4ChipE
yR:__ZN10localDrive10FileExistsEPKc
zR:__ZL18VGA_Draw_2BPP_Linejj
AR:__ZN18IllegalPageHandler5readbEj
BR:__ZL16VGA_Text_Memwrapj
CR:__ZL11DSP_AddDatah
DR:__ZL24EMM_AllocateSystemHandlet
ER:_zip_stat_init
FR:__ZNKSt3__25ctypeIwE5do_isEPKwS3_Pt
GR:__ZL6FROUNDd
HR:__Z19DOS_GetDefaultDrivev
IR:__ZL12GetResult_16tttt
JR:__Z15PAGING_ClearTLBv
KR:___string_read
LR:__ZNSt3__26vectorIPNS_6locale5facetENS_15__sso_allocatorIS3_Lm28EEEEC2Em
MR:__ZN9localFileC2EPKcP8_IO_FILE
NR:_zip_source_function_create
OR:__zip_progress_update
PR:__ZN14PIC_Controller9raise_irqEh
QR:__ZL10FPU_FSCALEv
RR:___fmodeflags
SR:__ZNSt3__213__vector_baseIPNS_6locale5facetENS_15__sso_allocatorIS3_Lm28EEEED2Ev
TR:__ZNSt3__28ios_base4initEPv
UR:__ZL25EMM_GetPagesForAllHandlesjRt
VR:__ZN5DBOPL8Operator11UpdateDecayEPKNS_4ChipE
WR:__ZL10MakeTablesv
XR:__Z18IO_FreeReadHandlerjjj
YR:_write_cdir
ZR:__ZN5DBOPL7Channel7WriteA0EPKNS_4ChipEh
_R:__ZN16CContinuousEvent13ActivateEventEbb
$R:__ZN13CKeyBindGroupD2Ev
aS:__Z19IO_FreeWriteHandlerjjj
bS:__Z12Herc_Palettev
cS:__ZN10localDrive9RemoveDirEPc
dS:__ZN10localDrive7MakeDirEPc
eS:__ZN14TSS_Descriptor7SetBusyEb
fS:_wmemmove
gS:_start
hS:_memcmp
iS:__ZNSt3__26vectorIPNS_6locale5facetENS_15__sso_allocatorIS3_Lm28EEEE6resizeEm
jS:__ZN4OPL315operator_outputEPNS_15operator_structEii
kS:__ZN4OPL215operator_outputEPNS_15operator_structEii
lS:__ZN5TIMERD2Ev
mS:_vasprintf
nS:__zip_buffer_skip
oS:__ZN11Prop_stringC2ERKNSt3__212basic_stringIcNS0_11char_traitsIcEENS0_9allocatorIcEEEEN8Property10Changeable5ValueEPKc
pS:__ZL18TandyCheckLineMaskv
qS:__Z14read_p3c1_et4kjj
rS:__Z14read_p3c1_et3kjj
sS:__Z10INT10_InitP7Section
tS:__ZN15DOS_Drive_Cache16CompareShortnameEPKcS1_
uS:__ZL17VGA_DAC_SendColorjj
vS:__Z14XMS_LockMemoryjRj
wS:__Z10DOS_NewPSPtt
xS:__ZNSt3__213__lower_boundIRNS_6__lessIjmEEPKjmEET0_S6_S6_RKT1_T_
yS:__Z14read_p3c5_et4kjj
zS:__Z14read_p3c5_et3kjj
AS:__zip_write
BS:__ZNKSt3__25ctypeIwE11do_scan_notEtPKwS3_
CS:__ZN7CMscdex12PlayAudioMSFEhjj
DS:__Z17DOS_GetCurrentDirhPc
ES:_fwrite
FS:__ZN7DOS_PSP17FindFreeFileEntryEv
GS:__ZL14DSP_ChangeRatej
HS:__ZN7Section11ExecuteInitEb
IS:__Z15write_p3c0_et4kjjj
JS:__Z15write_p3c0_et3kjjj
KS:__zip_hash_free
LS:__ZNSt3__2lsIcNS_11char_traitsIcEENS_9allocatorIcEEEERNS_13basic_ostreamIT_T0_EES9_RKNS_12basic_stringIS6_S7_T1_EE
MS:__ZN9Prop_boolC2ERKNSt3__212basic_stringIcNS0_11char_traitsIcEENS0_9allocatorIcEEEEN8Property10Changeable5ValueEb
NS:__ZN9MemStruct5GetItEjj
OS:__ZN24VGA_UnchainedEGA_Handler6writewEjj
PS:__ZNKSt3__24hashINS_12basic_stringIcNS_11char_traitsIcEENS_9allocatorIcEEEEEclERKS6_
QS:__ZN7CSerial8Read_LSREv
RS:__ZN7CMscdex10GetSubUnitEt
SS:__ZN4OPL318change_keepsustainEjPNS_15operator_structE
TS:__ZN4OPL218change_keepsustainEjPNS_15operator_structE
US:__ZL15UpdateConductorv
VS:__ZL11DrawButtonsv
WS:__Z15write_p3c5_et4kjjj
XS:__Z15write_p3c5_et3kjjj
YS:__Z15DOS_FCBFindNexttt
ZS:__ZN9MemStruct6SaveItEjjj
_S:__ZN15DOS_Drive_Cache9CFileInfoC2Ev
$S:__ZL24RENDER_FinishLineHandlerPKv
aT:__zip_buffer_set_offset
bT:__ZNSt3__219basic_ostringstreamIcNS_11char_traitsIcEENS_9allocatorIcEEED2Ev
cT:__ZNSt3__219basic_istringstreamIcNS_11char_traitsIcEENS_9allocatorIcEEED2Ev
dT:_input
eT:__ZL18Tandy_InitializeTSv
fT:__ZL18Tandy_InitializeSBv
gT:__ZN8Property6SetValERK5Valuebb
hT:__ZN7CMscdex6GetUPCEhRhPc
iT:__Z16DOS_CanonicalizePKcPc
jT:__ZN5Cross20GetPlatformConfigDirERNSt3__212basic_stringIcNS0_11char_traitsIcEENS0_9allocatorIcEEEE
kT:__ZN12CJButtonBind10ConfigNameEPc
lT:__Z19VGA_ATTR_SetPalettehh
mT:__ZNSt3__28ios_base16__call_callbacksENS0_5eventE
nT:__ZNSt3__24listI12MessageBlockNS_9allocatorIS1_EEE9push_backERKS1_
oT:__ZNK10__cxxabiv117__class_type_info16search_above_dstEPNS_19__dynamic_cast_infoEPKvS4_ib
pT:__ZN5Cross14IsPathAbsoluteERKNSt3__212basic_stringIcNS0_11char_traitsIcEENS0_9allocatorIcEEEE
qT:__Z17INT10_GetDACBlockttj
rT:__ZNSt3__26vectorI5ValueNS_9allocatorIS1_EEE18__construct_at_endIPS1_EENS_9enable_ifIXsr21__is_forward_iteratorIT_EE5valueEvE4typeES8_S8_m
sT:__ZN12CJButtonBind8BindNameEPc
tT:__ZL18DSP_PrepareDMA_Old9DMA_MODESbb
uT:__ZL12AddModButtonjjjjPKcj
vT:__Z14XMS_FreeMemoryj
wT:__ZNKSt3__220__time_get_c_storageIwE3__xEv
xT:__ZNKSt3__220__time_get_c_storageIwE3__rEv
yT:__ZNKSt3__220__time_get_c_storageIwE3__cEv
zT:__ZNKSt3__220__time_get_c_storageIwE3__XEv
AT:__ZNKSt3__220__time_get_c_storageIcE3__xEv
BT:__ZNKSt3__220__time_get_c_storageIcE3__rEv
CT:__ZNKSt3__220__time_get_c_storageIcE3__cEv
DT:__ZNKSt3__220__time_get_c_storageIcE3__XEv
ET:__ZN24VGA_UnchainedVGA_Handler6writewEjj
FT:__ZN4OPL37Handler8GenerateEP12MixerChannelj
GT:__ZN4OPL27Handler8GenerateEP12MixerChannelj
HT:__ZL19DSP_E2_DMA_CallBackP10DmaChannel8DMAEvent
IT:___muldsi3
JT:__Z15MEM_FreeLargestv
KT:__ZNSt3__212basic_stringIcNS_11char_traitsIcEENS_9allocatorIcEEEaSERKS5_
LT:__ZNKSt3__25ctypeIwE10do_scan_isEtPKwS3_
MT:__ZN15keyboard_layoutD2Ev
NT:__Z11GFX_ShowMsgPKcz
OT:__ZNSt3__214basic_ifstreamIcNS_11char_traitsIcEEE4openEPKcj
PT:__ZN6MyFifo6getTopEv
QT:__ZNSt3__24listIP5CBindNS_9allocatorIS2_EEE10push_frontERKS2_
RT:__ZN16VGA_LIN4_Handler6writewEjj
ST:__ZN12Section_prop8Get_propEi
TT:_copysign
UT:__ZN25VGA_UnchainedRead_Handler5readwEj
VT:__ZN18DOS_KeyboardLayoutD2Ev
WT:_strcmp
XT:__ZNSt3__24listIPFbvENS_9allocatorIS2_EEE10push_frontERKS2_
YT:__ZNSt3__213basic_ostreamIcNS_11char_traitsIcEEE6sentryC2ERS3_
ZT:__ZN9PIC_8259AD2Ev
_T:__ZN12MixerChannel6EnableEb
$T:__ZL12INT8_Handlerv
aU:_size_for_capacity
bU:__ZN7CSerial9Write_LCREh
cU:__ZN7CMscdexD2Ev
dU:__ZN15DOS_Drive_Cache10SetBaseDirEPKc
eU:__Z14DOS_FileExistsPKc
fU:__ZN7CMscdex15LoadUnloadMediaEhb
gU:__ZN15DOS_Drive_Cache9SetResultEPNS_9CFileInfoERPcj
hU:__Z22DOS_FCBSetRandomRecordtt
iU:_hash_string
jU:__ZN9DOS_Shell10ShowPromptEv
kU:__ZN9BatchFileD2Ev
lU:__ZL9read_p3c2jj
mU:__ZN6Config10GetSectionEi
nU:__ZN11CJAxisEventC2EPKcjjbPS_
oU:__ZN13Virtual_Drive11GetFileAttrEPcPt
pU:__ZN12MixerChannel3MixEj
qU:__Z19IO_USEC_write_delayv
rU:__ZNSt3__218__libcpp_refstringC2EPKc
sU:__ZNKSt3__25ctypeIcE10do_toupperEPcPKc
tU:__ZNKSt3__25ctypeIcE10do_tolowerEPcPKc
uU:__ZN5Adlib4Chip4ReadEv
vU:__ZN4CMOSD2Ev
wU:__ZN22VGA_ChainedEGA_Handler6writewEjj
xU:__ZN19VGA_Changes_Handler6writedEjj
yU:__Z16VGA_DAC_SetEntryjhhh
zU:__ZNSt3__28numpunctIwEC2Em
AU:__Z12CPU_READ_CRXjRj
BU:__ZNKSt3__25ctypeIwE9do_narrowEPKwS3_cPc
CU:__ZN4OPL316operator_advanceEPNS_15operator_structEi
DU:__ZN4OPL216operator_advanceEPNS_15operator_structEi
EU:__ZN5Adlib7Capture6AddBufEhh
FU:__Z12CPU_READ_TRXjRj
GU:__zip_dirent_clone
HU:__ZNSt3__28numpunctIcEC2Em
IU:__ZNKSt3__25ctypeIwE10do_toupperEPwPKw
JU:__ZNKSt3__25ctypeIwE10do_tolowerEPwPKw
KU:__ZL11InitLUTs_32v
LU:__ZL11InitLUTs_16v
MU:__ZNSt3__219__libcpp_snprintf_lEPcmP15__locale_structPKcz
NU:__ZN20CDROM_Interface_Fake11GetAudioSubERhS0_S0_R4SMSFS2_
OU:__ZN11SERIALPORTSD2Ev
PU:__Z13PAGING_Enableb
QU:__Z12DOS_FCBClosett
RU:__ZNK12Section_line12GetPropValueERKNSt3__212basic_stringIcNS0_11char_traitsIcEENS0_9allocatorIcEEEE
SU:__ZN10localDrive16GetSystemFilePtrEPKcS1_
TU:__ZN5ValueaSE3Hex
UU:__ZN5ValueC2EPKc
VU:__Z19DOS_SetDefaultDriveh
WU:__ZN22VGA_ChainedEGA_Handler5readwEj
XU:__Z26VGA_ActivateHardwareCursorv
YU:__Z20VGA_DAC_CombineColorhh
ZU:__ZN20Prop_multival_remainC2ERKNSt3__212basic_stringIcNS0_11char_traitsIcEENS0_9allocatorIcEEEEN8Property10Changeable5ValueES8_
_U:__Z18IO_USEC_read_delayv
$U:__ZNSt3__24listIP8PropertyNS_9allocatorIS2_EEE9push_backERKS2_
aV:__ZN7CMscdex14ReadSectorsMSFEhbjtj
bV:__ZN5DBOPL8Operator7Write80EPKNS_4ChipEh
cV:__ZN19VGA_Changes_Handler5readdEj
dV:__ZN14PIC_Controller7set_imrEh
eV:__ZL11Mouse_Resetv
fV:__Z16SortByDirNameRevRKPN15DOS_Drive_Cache9CFileInfoES3_
gV:__ZNSt3__24listIP7SectionNS_9allocatorIS2_EEE9push_backERKS2_
hV:__ZN16VGA_LIN4_Handler5readwEj
iV:__ZN13CKeyBindGroup16CreateConfigBindERPc
jV:__ZL11FPU_FST_I64j
kV:_memmove
lV:__ZNSt3__24listIP5CBindNS_9allocatorIS2_EEE9push_backERKS2_
mV:__ZNSt3__214basic_ifstreamIcNS_11char_traitsIcEEED2Ev
nV:__ZN8fatDrive12getEntryNameEPcS0_
oV:__ZN12DriveManager15InitializeDriveEi
pV:__ZL13INT10_InitVGAv
qV:__Z13SortByDirNameRKPN15DOS_Drive_Cache9CFileInfoES3_
rV:__Z13CPU_WRITE_TRXjj
sV:_arg_n
tV:__ZN22VGA_LFBChanges_Handler6writedEjj
uV:__ZL17DISNEY_PlayStereojPhS_
vV:__Z28INT10_SetupRomMemoryChecksumv
wV:__Z19RestoreVgaRegistersv
xV:_rand
yV:__ZN5Adlib7Capture8ClearBufEv
zV:__ZN15keyboard_layoutC2Ev
AV:__Z27RestoreCursorBackgroundTextv
BV:__Z13RENDER_SetPalhhhh
CV:__ZN7CMscdex12IsValidDriveEt
DV:__Z16MIXER_DelChannelP12MixerChannel
EV:__ZNSt3__213basic_filebufIcNS_11char_traitsIcEEED2Ev
FV:_allocate
GV:__ZN7CMscdex13GetDriverInfoEj
HV:_zip_source_tell
IV:__ZL10PIT0_Eventj
JV:__ZN4OPL315enable_operatorEjPNS_15operator_structEj
KV:__ZN4OPL215enable_operatorEjPNS_15operator_structEj
LV:_zip_source_begin_write_cloning
MV:__ZN13CKeyBindGroup13CreateKeyBindEi
NV:__ZL11DSP_DoReseth
OV:__Z15doHeapOperationv
PV:__ZNSt3__219__libcpp_asprintf_lEPPcP15__locale_structPKcz
QV:__ZNK10__cxxabiv117__class_type_info27has_unambiguous_public_baseEPNS_19__dynamic_cast_infoEPvi
RV:__ZN7Program11GetEnvCountEv
SV:__Z14CALLBACK_SetupjPFjvEjjPKc
TV:__ZNSt3__214__split_bufferIPNS_6locale5facetERNS_15__sso_allocatorIS3_Lm28EEEE18__construct_at_endEm
UV:__ZN10device_CONC2Ev
VV:__zip_buffer_get
WV:__ZN9localFile4SeekEPjj
XV:__ZL11FPU_FRNDINTv
YV:__Z13GetDMAChannelh
ZV:_remove
_V:_opendir
$V:__ZZN6Events20registerPushSDLEventEvEN3__38__invokeERKNSt3__212basic_stringIcNS1_11char_traitsIcEENS1_9allocatorIcEEEEPKcPFvS9_RK10jsonstreamE
aW:__ZNKSt3__27collateIwE12do_transformEPKwS3_
bW:__ZNKSt3__27collateIcE12do_transformEPKcS3_
cW:__ZN8isoDrive10FileExistsEPKc
dW:__ZN7Section18AddDestroyFunctionEPFvPS_Eb
eW:__ZN7DOS_FCB7GetNameEPc
fW:__ZN22VGA_LFBChanges_Handler5readdEj
gW:__ZN10device_NUL4ReadEPhPt
hW:__ZL13multiplex_xmsv
iW:__ZNSt3__218__libcpp_refstringD2Ev
jW:__ZNSt3__217__libcpp_sscanf_lEPKcP15__locale_structS1_z
kW:__ZN4OPL316operator_sustainEPNS_15operator_structE
lW:__ZN4OPL216operator_sustainEPNS_15operator_structE
mW:__ZN12CSerialDummyC2EjP11CommandLine
nW:__Z10CPU_PopSeg8SegNamesb
oW:___cxa_can_catch
pW:__ZN5DBOPL8Operator7Write60EPKNS_4ChipEh
qW:__ZN10CJAxisBindC2EPNSt3__24listIP5CBindNS0_9allocatorIS3_EEEEP10CBindGroupjb
rW:__ZL12TEXT_CopyRowhhhhj
sW:__ZN8isoDrive7TestDirEPc
tW:__ZN7DOS_FCBC2Ettb
uW:__ZN7CMscdex11ResumeAudioEh
vW:__ZN7Section15AddInitFunctionEPFvPS_Eb
wW:__ZN7DOS_FCB9SetResultEjtth
xW:__ZN7CMscdex17SendDriverRequestEtj
yW:__ZN15DOS_Drive_Cache12RemoveSpacesEPc
zW:__ZN15CStickBindGroup16CreateButtonBindEj
AW:__ZL16SN76496_set_gaini
BW:__Z16XMS_UnlockMemoryj
CW:_vsscanf
DW:__ZNSt3__26vectorIPNS_6locale5facetENS_15__sso_allocatorIS3_Lm28EEEE18__construct_at_endEm
EW:__ZN5DBOPL8Operator5KeyOnEh
FW:__ZN12Section_propC2ERKNSt3__212basic_stringIcNS0_11char_traitsIcEENS0_9allocatorIcEEEE
GW:__zip_memmem
HW:__ZL18doGFX_CaptureMousev
IW:__ZL16VGA_ProcessSplitv
JW:__Z14DOS_SetupFilesv
KW:__ZN10CBindGroup18DeactivateBindListEPNSt3__24listIP5CBindNS0_9allocatorIS3_EEEEb
LW:__ZZN6Events18registerScreenshotEvEN3__28__invokeERKNSt3__212basic_stringIcNS1_11char_traitsIcEENS1_9allocatorIcEEEEPKcPFvS9_RK10jsonstreamE
MW:__ZL12DSP_ReadDatav
NW:__Z14CALLBACK_SetupjPFjvEjPKc
OW:__ZL24RENDER_ClearCacheHandlerPKv
PW:__ZL10FPU_FRSTORj
QW:__Z14PAGING_MapPagejj
RW:__ZN7CMscdex12ReplaceDriveEP15CDROM_Interfaceh
SW:__ZN10localDrive14AllocationInfoEPtPhS0_S0_
TW:__ZN5INTRO12DisplayMountEv
UW:__Z24INT10_VideoState_GetSizej
VW:_zip_error_to_data
WW:__zip_buffer_new_from_source
XW:__zip_allocate_new
YW:__ZL13DOS_27Handlerv
ZW:_getint_711
_W:__zip_buffer_left
$W:__Z12VGA_SetupGFXv
aX:_zip_source_file_create
bX:___unlist_locked_file
cX:__Z8DMA_InitP7Section
dX:_fmt_x
eX:__ZN6MEMORYD2Ev
fX:__Z12VGA_SetupSEQv
gX:_ftruncate
hX:__ZZN6Events12registerExitEvEN3__18__invokeERKNSt3__212basic_stringIcNS1_11char_traitsIcEENS1_9allocatorIcEEEEPKcPFvS9_RK10jsonstreamE
iX:__ZN21InitPageUserROHandler6writedEjj
jX:__ZL23AddJButtonButton_hiddenjj
kX:_zip_source_write
lX:__zip_string_equal
mX:__ZN7SectionD2Ev
nX:__ZN3DMAD2Ev
oX:__ZL13INT4B_Handlerv
pX:___ftello
qX:__ZL24Mouse_SetMickeyPixelRatess
rX:__Z16RENDER_EndUpdateb
sX:__ZN5Adlib6Module8CtrlReadEv
tX:__ZNSt3__215basic_stringbufIcNS_11char_traitsIcEENS_9allocatorIcEEE7seekposENS_4fposI11__mbstate_tEEj
uX:__ZN5Value4copyERKS_
vX:__ZN11GUSChannels13WriteWaveCtrlEh
wX:__ZN11GUSChannels13WriteRampCtrlEh
xX:__ZL10EA_32_87_nv
yX:__ZL10EA_32_86_nv
zX:__ZL10EA_32_85_nv
AX:__ZL10EA_32_83_nv
BX:__ZL10EA_32_82_nv
CX:__ZL10EA_32_81_nv
DX:__ZL10EA_32_80_nv
EX:___memrchr
FX:__Z14TS_Get_AddressRjS_S_
GX:__ZN19VGA_Changes_Handler6writewEjj
HX:__ZL17GetDosDriveNumberh
IX:__Z15PIC_ActivateIRQj
JX:__Z11MSCDEX_InitP7Section
KX:__ZN10DmaChannel17Register_CallbackEPFvPS_8DMAEventE
LX:__ZL18change_action_textPKch
MX:__Z15XGA_DrawWaitSubjj
NX:__ZN5Adlib5Timer5StartERKdi
OX:__ZN13Virtual_DriveC2Ev
PX:__ZL13CTMIXER_Resetv
QX:__ZL9FPU_FINITv
RX:__Z14VFILE_RegisterPKcPhj
SX:__Z14SB_Get_AddressRjS_S_
TX:__zip_hash_reserve_capacity
UX:__ZNSt3__215basic_streambufIcNS_11char_traitsIcEEE7seekoffExNS_8ios_base7seekdirEj
VX:__ZN4OPL315change_waveformEjPNS_15operator_structE
WX:__tr_init
XX:__ZN15DOS_Drive_CacheD2Ev
YX:__ZN12CSerialDummy16handleUpperEventEt
ZX:__ZL10RawMidiAddh
_X:__Z10mem_writebjh
$X:__ZN8fatDrive17getFirstFreeClustEv
aY:__ZL8CGAModelb
bY:__ZN10device_NUL5WriteEPhPt
cY:__ZL12GetResult_32jjjj
dY:__ZL17DecreaseFrameSkipb
eY:__ZN7CSerial16ByteTransmittingEv
fY:__ZN6PAGINGC2EP7Section
gY:__ZN10device_NUL4SeekEPjj
hY:__ZN9DOS_ShellD2Ev
iY:__ZN15DOS_Drive_Cache5ClearEv
jY:__Z9mem_readbj
kY:__ZSt9terminatev
lY:__ZNSt3__213__vector_baseIN21CDROM_Interface_Image5TrackENS_9allocatorIS2_EEED2Ev
mY:__ZN7ProgramD2Ev
nY:__ZN4OPL316disable_operatorEPNS_15operator_structEj
oY:__ZN4OPL216disable_operatorEPNS_15operator_structEj
pY:__ZL10EA_16_83_nv
qY:__ZL10EA_16_82_nv
rY:__ZL10EA_16_81_nv
sY:__ZL10EA_16_80_nv
tY:__ZNSt3__215basic_streambufIcNS_11char_traitsIcEEEC2Ev
uY:__ZNSt3__213__vector_baseIPN15DOS_Drive_Cache9CFileInfoENS_9allocatorIS3_EEED2Ev
vY:__ZL17IncreaseFrameSkipb
wY:__Z11ConvDecWordPc
xY:__ZN6CEvent7AddBindEP5CBind
yY:__ZN5DBOPLL14EnvelopeSelectEhRhS0_
zY:__ZN13Prop_multivalD2Ev
AY:__ZL17DSP_RaiseIRQEventj
BY:__ZL14DSP_SetSpeakerb
CY:__Z23Mouse_ChangePS2Callbacktt
DY:__Z14PAGING_InitTLBv
EY:___fseeko
FY:__ZN6DISNEYD2Ev
GY:__ZN24VGA_UnchainedEGA_Handler6writebEjj
HY:__ZN15DOS_Drive_Cache10EmptyCacheEv
IY:__Z18PAGING_UnlinkPagesjj
JY:__Z11SERIAL_InitP7Section
KY:__ZL14DISNEY_disablej
LY:_zip_source_begin_write
MY:__ZN9imageDisk11Read_SectorEjjjPv
NY:__ZN7CSerial8Read_MCREv
OY:__ZN5DBOPL8Operator6KeyOffEh
PY:__ZN22VGA_LFBChanges_Handler6writewEjj
QY:__ZL11StripSpacesRPcc
RY:__Z17MAPPER_CheckEventP9SDL_Event
SY:__ZNKSt3__25ctypeIcE9do_narrowEPKcS3_cPc
TY:__ZN7CSerial8Read_ISREv
UY:__ZN21CDROM_Interface_Image12HasDataTrackEv
VY:_sn_write
WY:__ZNSt3__25ctypeIcEC2EPKtbm
XY:__ZN9imageDisk12Write_SectorEjjjPv
YY:__Z24CPU_Core_Normal_Trap_Runv
ZY:__ZNSt3__28ios_baseD2Ev
_Y:__ZN5DBOPL4Chip9WriteAddrEjh
$Y:__ZN24VGA_UnchainedVGA_Handler6writebEjj
aZ:__ZN12Virtual_FileC2EPhj
bZ:__Z18MAPPER_LosingFocusv
cZ:__Z16DOS_SetupDevicesv
dZ:__zip_set_open_error
eZ:__ZNKSt3__27collateIwE7do_hashEPKwS3_
fZ:__ZN9imageDisk12Get_GeometryEPjS0_S0_S0_
gZ:__Z18CDROM_GetMountTypePci
hZ:__ZNSt3__212basic_stringIcNS_11char_traitsIcEENS_9allocatorIcEEE7replaceEmmPKc
iZ:__ZNKSt3__27collateIcE7do_hashEPKcS3_
jZ:__ZL9FPU_FSAVEj
kZ:__ZL7FPU_FSTjj
lZ:__ZN19VGA_Changes_Handler5readwEj
mZ:__ZN12CJButtonBindC2EPNSt3__24listIP5CBindNS0_9allocatorIS3_EEEEP10CBindGroupj
nZ:__ZNK10__cxxabiv117__class_type_info29process_static_type_below_dstEPNS_19__dynamic_cast_infoEPKvi
oZ:__ZL7diffYUVjj
pZ:__ZL12SetupCMDLinetR14DOS_ParamBlock
qZ:__Z30INT10_GetSinglePaletteRegisterhPh
rZ:__ZL11DecreaseHueb
sZ:__ZL11IncreaseHueb
tZ:__ZL10EA_32_05_nv
uZ:_write
vZ:__ZNKSt3__28numpunctIwE12do_falsenameEv
wZ:__ZNKSt3__28numpunctIcE12do_falsenameEv
xZ:__ZL15InitBiosSegmentv
yZ:__ZL13FPU_PREP_PUSHv
zZ:__Z13ScanCMDRemainPc
AZ:__ZNKSt3__28numpunctIwE11do_truenameEv
BZ:__ZNKSt3__28numpunctIcE11do_truenameEv
CZ:__Z13DOS_GetMemoryt
DZ:__ZNSt3__213__vector_baseIP9DOS_DriveNS_9allocatorIS2_EEED2Ev
EZ:__ZN7DOS_PSP13GetFileHandleEt
FZ:__Z17Mouse_SetPS2Stateb
GZ:__ZN22VGA_ChainedEGA_Handler6writebEjj
HZ:__ZL10EA_16_43_nv
IZ:__ZL10EA_16_42_nv
JZ:__ZL10EA_16_41_nv
KZ:__ZL10EA_16_40_nv
LZ:__Z8CPU_ARPLRjj
MZ:__Z6E_ExitPKcz
NZ:__ZNKSt3__212_GLOBAL__N_111__fake_bindclEv
OZ:__ZN7DOS_PSP14SetCommandTailEj
PZ:__ZN7DOS_FCB15GetSizeDateTimeERjRtS1_
QZ:__ZN16VGA_LIN4_Handler6writebEjj
RZ:__ZN7DOS_PSP13SetFileHandleEth
SZ:__ZN5Adlib6Module4InitENS_4ModeE
TZ:__ZN12MixerChannel10AddSilenceEv
UZ:__ZN10copysourceC2Ev
VZ:___uflow
WZ:__ZN5CBindD2Ev
XZ:__Z14PIC_SetIRQMaskjb
YZ:__ZNSt3__215basic_streambufIcNS_11char_traitsIcEEE7seekposENS_4fposI11__mbstate_tEEj
ZZ:__ZN8AUTOEXECD2Ev
_Z:__ZN6CONFIG16securemode_checkEv
$Z:dynCall_iiiiiiiii
a_:_fmt_o
b_:__zip_memdup
c_:__ZNSt3__24pairIKNS_12basic_stringIcNS_11char_traitsIcEENS_9allocatorIcEEEEPFvRS7_PKcPFvS8_RK10jsonstreamEEEC2ERKSI_
d_:__ZN4OPL215change_waveformEjPNS_15operator_structE
e_:__ZN12CEventButton5ClickEv
f_:__ZN3CMSD2Ev
g_:__ZN22VGA_ChainedVGA_Handler5readbEj
h_:__Z15VGA_StartResizej
i_:__ZN5Adlib5Timer5ResetERKd
j_:__ZN22VGA_LFBChanges_Handler5readwEj
k_:__ZN21InitPageUserROHandler6writewEjj
l_:__ZZ5_sendENK3__0clERKNSt3__212basic_stringIcNS0_11char_traitsIcEENS0_9allocatorIcEEEERK10jsonstream
m_:__ZNKSt3__28messagesIwE7do_openERKNS_12basic_stringIcNS_11char_traitsIcEENS_9allocatorIcEEEERKNS_6localeE
n_:__ZNKSt3__28messagesIcE7do_openERKNS_12basic_stringIcNS_11char_traitsIcEENS_9allocatorIcEEEERKNS_6localeE
o_:__ZN8fatDrive8FindNextER7DOS_DTA
p_:__ZN20CDROM_Interface_Fake17GetAudioTrackInfoEiR4SMSFRh
q_:__ZN8PropertyD2Ev
r_:__ZN7DOS_FCB7SetNameEhPcS0_
s_:__ZN14ROMPageHandler6writewEjj
t_:__ZN14ROMPageHandler6writedEjj
u_:__ZN14ROMPageHandler6writebEjj
v_:__ZN13Virtual_Drive10FileExistsEPKc
w_:__ZN11CJAxisEvent6ActiveEb
x_:__ZL16RawMidiAddNumberj
y_:__ZL10EA_16_87_nv
z_:__ZL10EA_16_86_nv
A_:__ZL10EA_16_85_nv
B_:__ZL10EA_16_84_nv
C_:___wasi_fd_is_valid
D_:___muldi3
E_:__Z16GFX_CaptureMousev
F_:__ZN7CSerial5setRIEb
G_:__ZN14AutoexecObjectC2Ev
H_:__ZN8CKeyBind8BindNameEPc
I_:__ZN7CMapperC2Ev
J_:__ZN4MIDID2Ev
K_:__ZL10EA_16_43_nv_396
L_:__ZL10EA_16_42_nv_395
M_:__ZL10EA_16_41_nv_394
N_:__ZL10EA_16_40_nv_393
O_:__ZL11StripSpacesRPc
P_:__ZN7CMscdex9GetDrivesEj
Q_:__ZN6CEvent13DeActivateAllEv
R_:__ZN12CCheckButtonC2EjjjjPKc8BC_Types
S_:__Z8CPU_LMSWj
T_:__Z13VGA_SetupAttrv
U_:__ZN8fatDrive26getAbsoluteSectFromBytePosEjj
V_:__ZN25VGA_UnchainedRead_Handler5readbEj
W_:__ZN12CEventButtonC2EjjjjPKcP6CEvent
X_:__ZN11CBindButtonC2EjjjjPKc8BB_Types
Y_:__ZN10jsonstreamC2Ev
Z_:__Z13MEM_FreeTotalv
__:__ZL10EA_16_83_nv_404
$_:__ZL10EA_16_82_nv_403
a$:__ZL10EA_16_81_nv_402
b$:__ZL10EA_16_80_nv_401
c$:__ZN11PageHandler6writewEjj
d$:__Z26INT10_GetSingleDACRegisterhPhS_S_
e$:_zip_source_tell_write
f$:__ZN8isoDrive15FreeDirIteratorEi
g$:__ZN6Events5frameEv
h$:__Z22MAPPER_UpdateJoysticksv
i$:__ZNKSt3__210moneypunctIwLb1EE16do_positive_signEv
j$:__ZNKSt3__210moneypunctIwLb0EE16do_positive_signEv
k$:__ZNKSt3__210moneypunctIcLb1EE16do_positive_signEv
l$:__ZNKSt3__210moneypunctIcLb0EE16do_positive_signEv
m$:__ZN7CSerial6setDSREb
n$:__ZN7CSerial6setCTSEb
o$:__ZN15DescriptorTable13GetDescriptorEjR10Descriptor
p$:__ZL16SwitchFullScreenb
q$:__ZN7CSerial5setCDEb
r$:__ZN11GUSChannels13WriteRampRateEh
s$:__Z17VESA_SetCPUWindowhh
t$:__zip_read_string
u$:__ZNSt3__212_GLOBAL__N_111__fake_bindC2EMNS_6locale2idEFvvEPS3_
v$:__ZNKSt3__210moneypunctIwLb1EE14do_curr_symbolEv
w$:__ZNKSt3__210moneypunctIwLb0EE14do_curr_symbolEv
x$:__ZNKSt3__210moneypunctIcLb1EE14do_curr_symbolEv
y$:__ZNKSt3__210moneypunctIcLb0EE14do_curr_symbolEv
z$:__ZN19VGA_Changes_Handler6writebEjj
A$:__ZN10DOS_Device22ReadFromControlChannelEjtPt
B$:__Z20GFX_SwitchFullScreenv
C$:__ZNSt3__27codecvtIwc11__mbstate_tED2Ev
D$:__ZN9imageDisk12Set_GeometryEjjjj
E$:__ZN4OPL319change_sustainlevelEjPNS_15operator_structE
F$:__ZN4OPL219change_sustainlevelEjPNS_15operator_structE
G$:__ZN10DOS_Device21WriteToControlChannelEjtPt
H$:__ZN10CJHatEventC2EPKcjjj
I$:__Z11DOS_ToUpperc
J$:__zip_buffer_put_32
K$:__ZN21CDROM_Interface_Image10BinaryFileD2Ev
L$:__ZL9write_p92jjj
M$:__ZNKSt3__210moneypunctIwLb1EE11do_groupingEv
N$:__ZNKSt3__210moneypunctIwLb0EE11do_groupingEv
O$:__ZNKSt3__210moneypunctIcLb1EE11do_groupingEv
P$:__ZNKSt3__210moneypunctIcLb0EE11do_groupingEv
Q$:__ZN14CCaptionButton6ChangeEPKcz
R$:_wmemcpy
S$:__zip_buffer_eof
T$:__ZNSt3__215basic_stringbufIcNS_11char_traitsIcEENS_9allocatorIcEEED2Ev
U$:__Z15getSendHandlersv
V$:__zip_hash_new
W$:__ZNSt3__212basic_stringIwNS_11char_traitsIwEENS_9allocatorIwEEED2Ev
X$:__ZNKSt3__27codecvtIcc11__mbstate_tE6do_outERS1_PKcS5_RS5_PcS7_RS7_
Y$:__ZN11PageHandler5readwEj
Z$:__ZNSt3__2lsINS_11char_traitsIcEEEERNS_13basic_ostreamIcT_EES6_PKc
_$:__ZNKSt3__27codecvtIcc11__mbstate_tE5do_inERS1_PKcS5_RS5_PcS7_RS7_
$$:__ZL9MIXER_Mixv
a0:__ZL14VESA_SetWindowv
b0:__ZL14SetupTandyBiosv
c0:__zip_file_new
d0:__ZN22VGA_ChainedEGA_Handler5readbEj
e0:__Z12CALLBACK_SIFb
f0:__ZN8CKeyBind10ConfigNameEPc
g0:__ZN12MixerChannel12UpdateVolumeEv
h0:__Z12CALLBACK_SZFb
i0:__ZNSt3__214__num_get_base10__get_baseERNS_8ios_baseE
j0:__ZNSt3__212_GLOBAL__N_14makeINS_8time_getIwNS_19istreambuf_iteratorIwNS_11char_traitsIwEEEEEEjEERT_T0_
k0:__ZNSt3__212_GLOBAL__N_14makeINS_8time_getIcNS_19istreambuf_iteratorIcNS_11char_traitsIcEEEEEEjEERT_T0_
l0:__ZL12em_exit_loopv
m0:__ZL10EA_16_47_nv
n0:__ZL10EA_16_46_nv
o0:__ZL10EA_16_45_nv
p0:__ZL10EA_16_44_nv
q0:__Z15isPointerLockedv
r0:__Z12CALLBACK_SCFb
s0:__ZL11FPU_FYL2XP1v
t0:__ZZ5_sendEN3__08__invokeERKNSt3__212basic_stringIcNS0_11char_traitsIcEENS0_9allocatorIcEEEERK10jsonstream
u0:dynCall_iiiiiiii
v0:___munmap
w0:__ZNKSt3__220__time_get_c_storageIwE8__monthsEv
x0:__ZN15CTriggeredEvent15DeActivateEventEb
y0:__ZN10copysourceC2ENSt3__212basic_stringIcNS0_11char_traitsIcEENS0_9allocatorIcEEEEb
z0:__Z18VGA_StartUpdateLFBv
A0:__Z18INT10_ReadCharAttrPth
B0:__ZZN6Events18registerScreenshotEvENK3__2clERKNSt3__212basic_stringIcNS1_11char_traitsIcEENS1_9allocatorIcEEEEPKcPFvS9_RK10jsonstreamE
C0:__ZNKSt3__220__time_get_c_storageIcE8__monthsEv
D0:_stat
E0:_rename
F0:_access
G0:__ZNSt3__211__call_onceERVmPvPFvS2_E
H0:__ZNKSt3__220__time_get_c_storageIwE7__weeksEv
I0:__ZNKSt3__220__time_get_c_storageIwE7__am_pmEv
J0:__ZN7DOS_FCB15SetSizeDateTimeEjtt
K0:__ZN7CMscdex12InitNewMediaEh
L0:__ZN16VGA_LIN4_Handler5readbEj
M0:_mkdir
N0:_chmod
O0:__zip_ef_size
P0:__ZNKSt3__27codecvtIwc11__mbstate_tE13do_max_lengthEv
Q0:__ZNKSt3__220__time_get_c_storageIcE7__weeksEv
R0:__ZNKSt3__220__time_get_c_storageIcE7__am_pmEv
S0:__ZNKSt3__210moneypunctIwLb1EE16do_negative_signEv
T0:__ZNKSt3__210moneypunctIwLb0EE16do_negative_signEv
U0:__ZNKSt3__210moneypunctIcLb1EE16do_negative_signEv
V0:__ZNKSt3__210moneypunctIcLb0EE16do_negative_signEv
W0:__ZN22VGA_LFBChanges_Handler6writebEjj
X0:__ZN11CTextButton4DrawEv
Y0:___cxx_global_var_init_2171
Z0:__ZNSt3__212basic_stringIwNS_11char_traitsIwEENS_9allocatorIwEEE6assignEPKw
_0:__ZNSt3__212basic_stringIcNS_11char_traitsIcEENS_9allocatorIcEEE6assignEPKc
$0:__ZNSt3__212basic_stringIcNS_11char_traitsIcEENS_9allocatorIcEEE6appendEPKc
a1:__ZN9Prop_bool8SetValueERKNSt3__212basic_stringIcNS0_11char_traitsIcEENS0_9allocatorIcEEEE
b1:__ZN5Adlib7Capture9MakeEntryEhRh
c1:__ZN19VGA_Changes_Handler5readbEj
d1:__Z5rtrimPc
e1:__Z24Mouse_BeforeNewVideoModeb
f1:__Z23CALLBACK_SetDescriptionjPKc
g1:__Z13GFX_EndUpdatePKt
h1:__zip_get_name
i1:__ZNSt3__219basic_ostringstreamIcNS_11char_traitsIcEENS_9allocatorIcEEED1Ev
j1:__ZNSt3__219basic_istringstreamIcNS_11char_traitsIcEENS_9allocatorIcEEED1Ev
k1:__ZN5DBOPL4ChipC2Ev
l1:__ZN14DOS_ParamBlock5ClearEv
m1:__ZN11GUSChannels13WriteWaveFreqEt
n1:__ZL9FPU_FYL2Xv
o1:__Z10CPU_Push16j
p1:__ZNKSt3__25ctypeIcE8do_widenEPKcS3_Pc
q1:__ZN8fatDrive10FileExistsEPKc
r1:__ZN12MessageBlockC2ERKS_
s1:__ZL9write_p61jjj
t1:__ZN6EventsC2Ev
u1:__ZN20CDROM_Interface_Fake14GetAudioTracksERiS0_R4SMSF
v1:__ZN10localDrive17GetSystemFilenameEPcPKc
w1:__ZL15read_cms_detectjj
x1:__Z28INT10_GetOverscanBorderColorPh
y1:__Z17MIXER_FindChannelPKc
z1:_snprintf
A1:__ZN7DOS_PSP14RestoreVectorsEv
B1:__ZN5ValueaSERKS_
C1:__Znwm
D1:__ZNKSt3__25ctypeIwE8do_widenEPKcS3_Pw
E1:__ZN7CMscdex14GetMediaStatusEhRh
F1:__ZN10device_CON9ClearAnsiEv
G1:__ZL9check_keyRt
H1:__ZL13AddDelayEntryff
I1:__ZL10EA_16_47_nv_400
J1:__ZL10EA_16_46_nv_399
K1:__ZL10EA_16_45_nv_398
L1:__ZL10EA_16_44_nv_397
M1:__Z23DOS_AddMultiplexHandlerPFbvE
N1:__Z18MEM_SetPageHandlerjjP11PageHandler
O1:__ZNSt3__212basic_stringIcNS_11char_traitsIcEENS_9allocatorIcEEED2Ev
P1:__ZNKSt3__26locale5__imp9has_facetEl
Q1:__ZN5ValueaSEPKc
R1:__ZL8read_p60jj
S1:__ZL12GUI_ShutDownP7Section
T1:__Z20removeTrailingSpacesPc
U1:__Z10strreplacePccc
V1:__ZNSt3__26localeD2Ev
W1:__ZN14PIC_Controller8activateEv
X1:__ZN13device_MSCDEX22ReadFromControlChannelEjtPt
Y1:__ZN13device_MSCDEX21WriteToControlChannelEjtPt
Z1:__Z9CPU_Pop16v
_1:__ZNSt3__26locale5__imp7installINS_9money_putIwNS_19ostreambuf_iteratorIwNS_11char_traitsIwEEEEEEEEvPT_
$1:__ZNSt3__26locale5__imp7installINS_9money_putIcNS_19ostreambuf_iteratorIcNS_11char_traitsIcEEEEEEEEvPT_
a2:__ZNSt3__26locale5__imp7installINS_9money_getIwNS_19istreambuf_iteratorIwNS_11char_traitsIwEEEEEEEEvPT_
b2:__ZNSt3__26locale5__imp7installINS_9money_getIcNS_19istreambuf_iteratorIcNS_11char_traitsIcEEEEEEEEvPT_
c2:_bitshift64Ashr
d2:__ZNSt3__26locale5__imp7installINS_8time_putIwNS_19ostreambuf_iteratorIwNS_11char_traitsIwEEEEEEEEvPT_
e2:__ZNSt3__26locale5__imp7installINS_8time_putIcNS_19ostreambuf_iteratorIcNS_11char_traitsIcEEEEEEEEvPT_
f2:__ZNSt3__26locale5__imp7installINS_8time_getIwNS_19istreambuf_iteratorIwNS_11char_traitsIwEEEEEEEEvPT_
g2:__ZNSt3__26locale5__imp7installINS_8time_getIcNS_19istreambuf_iteratorIcNS_11char_traitsIcEEEEEEEEvPT_
h2:__ZNKSt3__27codecvtIDsc11__mbstate_tE9do_lengthERS1_PKcS5_m
i2:__ZN4OPL315change_feedbackEjPNS_15operator_structE
j2:__ZN4OPL215change_feedbackEjPNS_15operator_structE
k2:__ZN15InitPageHandler13readw_checkedEjPt
l2:__ZN15InitPageHandler13readd_checkedEjPj
m2:__ZN13device_MSCDEX5WriteEPhPt
n2:__ZL10EA_16_87_nv_408
o2:__ZL10EA_16_86_nv_407
p2:__ZL10EA_16_85_nv_406
q2:__ZL10EA_16_84_nv_405
r2:__Z10CPU_Push32j
s2:_clearerr
t2:__ZNSt3__26locale5__imp7installINS_7num_putIwNS_19ostreambuf_iteratorIwNS_11char_traitsIwEEEEEEEEvPT_
u2:__ZNSt3__26locale5__imp7installINS_7num_putIcNS_19ostreambuf_iteratorIcNS_11char_traitsIcEEEEEEEEvPT_
v2:__ZNSt3__26locale5__imp7installINS_7num_getIwNS_19istreambuf_iteratorIwNS_11char_traitsIwEEEEEEEEvPT_
w2:__ZNSt3__26locale5__imp7installINS_7num_getIcNS_19istreambuf_iteratorIcNS_11char_traitsIcEEEEEEEEvPT_
x2:__ZNKSt3__27codecvtIDic11__mbstate_tE9do_lengthERS1_PKcS5_m
y2:__ZN7DOS_PSP11SaveVectorsEv
z2:__ZN5ValueaSEi
A2:__ZN5ValueaSEb
B2:__ZN15InitPageHandler13readb_checkedEjPh
C2:__ZN12CSerialDummy9setRTSDTREbb
D2:__ZL4outch
E2:__zip_buffer_get_32
F2:__ZTv0_n12_NSt3__219basic_ostringstreamIcNS_11char_traitsIcEENS_9allocatorIcEEED1Ev
G2:__ZTv0_n12_NSt3__219basic_ostringstreamIcNS_11char_traitsIcEENS_9allocatorIcEEED0Ev
H2:__ZTv0_n12_NSt3__219basic_istringstreamIcNS_11char_traitsIcEENS_9allocatorIcEEED1Ev
I2:__ZTv0_n12_NSt3__219basic_istringstreamIcNS_11char_traitsIcEENS_9allocatorIcEEED0Ev
J2:__ZN10device_EMM5WriteEPhPt
K2:_end
L2:__ZN9localFile5CloseEv
M2:__ZNK5ValuecvPKcEv
N2:__ZN5DBOPL8Operator7Write40EPKNS_4ChipEh
O2:__ZN10device_COMC2EP7CSerial
P2:__ZL13DISNEY_enablej
Q2:__ZNSt3__26locale8__globalEv
R2:__ZNSt3__26locale7classicEv
S2:__ZN5DBOPL8Operator17UpdateAttenuationEv
T2:__ZL10EA_32_47_nv
U2:__ZL10EA_32_46_nv
V2:__ZL10EA_32_45_nv
W2:__ZL10EA_32_43_nv
X2:__ZL10EA_32_42_nv
Y2:__ZL10EA_32_41_nv
Z2:__ZL10EA_32_40_nv
_2:__Z13DOS_LayoutKeyjhhh
$2:__ZN8CKeyBindC2EPNSt3__24listIP5CBindNS0_9allocatorIS3_EEEEi
a3:__ZN14PIC_Controller15check_after_EOIEv
b3:__ZN13Virtual_Drive14AllocationInfoEPtPhS0_S0_
c3:__ZN11CTextButtonC2EjjjjPKc
d3:__ZN15keyboard_layout18read_keyboard_fileEi
e3:__ZN15InitPageHandler14writew_checkedEjj
f3:__Z14MEM_A20_Enableb
g3:___ofl_add
h3:__ZN22VGA_LFBChanges_Handler5readbEj
i3:__Z9CPU_Pop32v
j3:___uselocale
k3:__ZN7CMscdex16GetDefaultBufferEv
l3:__ZN2IOC2EP7Section
m3:__ZN15InitPageHandler14writeb_checkedEjj
n3:__ZN15DOS_Drive_Cache14DeleteFileInfoEPNS_9CFileInfoE
o3:__ZL19DOS_default_handlerv
p3:__Z16MEM_ReleasePagesi
q3:__Z10MEM_SetLFBjjP11PageHandlerS0_
r3:__Z10FPU_GetTagv
s3:__ZN12CSerialDummy12transmitByteEhb
t3:__ZL15cmos_timereventj
u3:__ZN7DOS_PSP10CloseFilesEv
v3:__ZN5Value7destroyEv
w3:__Z2civ
x3:__ZN4OPL314change_vibratoEjPNS_15operator_structE
y3:__ZN4OPL214change_vibratoEjPNS_15operator_structE
z3:__ZN11CommandLineD2Ev
A3:dynCall_iiiiiii
B3:__ZN5Adlib6Module10CacheWriteEjh
C3:__ZN10DOS_Device5WriteEPhPt
D3:__ZL20set_clock_index_et4kj
E3:__ZL15default_handlerv
F3:__ZL10EA_16_06_nv
G3:__ZNKSt3__25ctypeIwE5do_isEtw
H3:__Z21MSCDEX_SetCDInterfaceii
I3:__Z20CALLBACK_RemoveSetupj
J3:__ZNSt3__212_GLOBAL__N_14makeINS_8time_putIwNS_19ostreambuf_iteratorIwNS_11char_traitsIwEEEEEEjEERT_T0_
K3:__ZNSt3__212_GLOBAL__N_14makeINS_8time_putIcNS_19ostreambuf_iteratorIcNS_11char_traitsIcEEEEEEjEERT_T0_
L3:__ZN8isoDrive14AllocationInfoEPtPhS0_S0_
M3:__ZN7DOS_FCB5ValidEv
N3:__ZN15InitPageHandler14writed_checkedEjj
O3:__ZN10DOS_Device4SeekEPjj
P3:__ZN10DOS_Device4ReadEPhPt
Q3:__ZL11FPU_FSINCOSv
R3:__Z15VGA_KillDrawingv
S3:_bitshift64Shl
T3:__zip_buffer_offset
U3:__ZN7DOS_SDA4InitEv
V3:__ZN7CSerial9Write_MSREh
W3:___cxx_global_var_init_3363
X3:___cxx_global_var_init_2773
Y3:__ZNSt3__210__list_impINS_12basic_stringIcNS_11char_traitsIcEENS_9allocatorIcEEEENS4_IS6_EEED2Ev
Z3:__ZN21InitPageUserROHandler6writebEjj
_3:__ZN13CJButtonEventC2EPKcjj
$3:__ZL15INT10_Seg40Initv
a4:__ZL10FPU_FPATANv
b4:__ZL10EA_32_47_nv_424
c4:__ZL10EA_32_46_nv_423
d4:__ZL10EA_32_45_nv_422
e4:__ZL10EA_32_43_nv_420
f4:__ZL10EA_32_42_nv_419
g4:__ZL10EA_32_41_nv_418
h4:__ZL10EA_32_40_nv_417
i4:_sprintf
j4:_fprintf
k4:__ZN21CDROM_Interface_Image6GetUPCERhPc
l4:__ZN10cdromDrive7UnMountEv
m4:dynCall_iiiiiid
n4:dynCall_iidiiii
o4:__ZN7CMscdexC2Ev
p4:__ZN5DBOPL7Channel7ResetC0EPKNS_4ChipE
q4:_sscanf
r4:__ZNSt3__211char_traitsIcE4findEPKcmRS2_
s4:__ZN7CMscdex13GetTempBufferEv
t4:__ZN4OPL317adlib_write_indexEjh
u4:__ZN15keyboard_layout15get_layout_nameEv
v4:__ZL25MPU401_EOIHandlerDispatchv
w4:__Z15write_p3cd_et3kjjj
x4:_zip_source_rollback_write
y4:_wmemset
z4:_ftell
A4:__ZN10Descriptor7GetBaseEv
B4:_printf
C4:__ZN8isoDrive7UnMountEv
D4:__ZN7CMscdex11ReadSectorsEtjtj
E4:__ZN20IO_WriteHandleObject9UninstallEv
F4:__Z23DOS_KeyboardLayout_InitP7Section
G4:__Z19XMS_QueryFreeMemoryRtS_
H4:dynCall_viiiiii
I4:_bitshift64Lshr
J4:__ZN8DOS_File7SetNameEPKc
K4:__ZN20CDROM_Interface_Fake6GetUPCERhPc
L4:__ZN12Section_lineD2Ev
M4:__GLOBAL__sub_I_sdl_mapper_cpp
N4:__ZN19IO_ReadHandleObject9UninstallEv
O4:__ZN5Adlib5Timer6UpdateEd
P4:__ZN14CCaptionButtonC2Ejjjj
Q4:__ZN12MixerChannel7SetFreqEj
R4:__ZL16UpdateEMSMappingv
S4:__ZN5Cross21GetPlatformConfigNameERNSt3__212basic_stringIcNS0_11char_traitsIcEENS0_9allocatorIcEEEE
T4:__ZN7fatFile5CloseEv
U4:_abort_message
V4:__ZN8isoDrive10readSectorEPhj
W4:__ZL8is_equalPKSt9type_infoS1_b
X4:__ZNSt3__26__clocEv
Y4:_ferror
Z4:__ZNSt3__211char_traitsIcE7not_eofEi
_4:__ZN9DOS_Block3pspEt
$4:__ZN9DOS_Block3dtaEj
a5:__ZL10EA_32_87_nv_432
b5:__ZL10EA_32_86_nv_431
c5:__ZL10EA_32_85_nv_430
d5:__ZL10EA_32_83_nv_428
e5:__ZL10EA_32_82_nv_427
f5:__ZL10EA_32_81_nv_426
g5:__ZL10EA_32_80_nv_425
h5:__Z7lowcasePc
i5:_unlink
j5:__zip_buffer_put_16
k5:__ZNSt3__24pairIKNS_12basic_stringIcNS_11char_traitsIcEENS_9allocatorIcEEEEPFvRS7_PKcPFvS8_RK10jsonstreamEEED2Ev
l5:__ZNKSt3__25ctypeIcE10do_tolowerEc
m5:__ZN8fatDrive7TestDirEPc
n5:__ZN10Descriptor4SaveEj
o5:__Z6upcasePc
p5:__Z12incrementFDDv
q5:_umask
r5:_rmdir
s5:_pop_arg_long_double
t5:__ZNSt3__26locale5__imp7installINS_7codecvtIDsc11__mbstate_tEEEEvPT_
u5:__ZNSt3__26locale5__imp7installINS_7codecvtIDic11__mbstate_tEEEEvPT_
v5:__ZNSt3__211char_traitsIcE6assignEPcmc
w5:__ZN14CCaptionButton4DrawEv
x5:__ZN10device_EMMC2Eb
y5:_zip_fclose
z5:__ZNSt3__26locale5__imp7installINS_7codecvtIwc11__mbstate_tEEEEvPT_
A5:__ZNSt3__26locale5__imp7installINS_7codecvtIcc11__mbstate_tEEEEvPT_
B5:__ZNSt3__214basic_ifstreamIcNS_11char_traitsIcEEED1Ev
C5:__ZNKSt3__27codecvtIcc11__mbstate_tE9do_lengthERS1_PKcS5_m
D5:__ZN9localFile5FlushEv
E5:__ZL17bank_setup_pvga1av
F5:__ZL12CycleHercPalb
G5:_zip_source_buffer
H5:__zip_fseek_u
I5:_zip_source_window
J5:__ZNSt3__25ctypeIcED2Ev
K5:__ZNKSt3__25ctypeIcE10do_toupperEc
L5:__ZN10copysourceaSERKS_
M5:__ZN10cdromDrive11GetFileAttrEPcPt
N5:__ZN10Descriptor4LoadEj
O5:__Z17VESA_GetCPUWindowhRt
P5:__Z15TANDYSOUND_InitP7Section
Q5:__ZNSt3__26localeC2Ev
R5:__ZN9DOS_Block3pspEv
S5:__ZN9DOS_Block3dtaEv
T5:__ZN8HARDWARED2Ev
U5:__ZN7DOS_FCB10GetSeqDataERhRt
V5:__Z16MEM_NextHandleAtij
W5:__Z10getVersionv
X5:__ZNSt3__213basic_ostreamIcNS_11char_traitsIcEEED1Ev
Y5:__ZNSt3__213basic_istreamIcNS_11char_traitsIcEEED1Ev
Z5:__ZN12MessageBlockD2Ev
_5:_i64Subtract
$5:__ZN7DOS_FCB9GetRecordERtRh
a6:__ZL20KEYBOARD_TickHandlerv
b6:__ZL11FPU_FLD_I64jj
c6:dynCall_iiiiii
d6:__ZNSt3__26locale5__imp7installINS_10moneypunctIwLb1EEEEEvPT_
e6:__ZNSt3__26locale5__imp7installINS_10moneypunctIwLb0EEEEEvPT_
f6:__ZNSt3__26locale5__imp7installINS_10moneypunctIcLb1EEEEEvPT_
g6:__ZNSt3__26locale5__imp7installINS_10moneypunctIcLb0EEEEEvPT_
h6:__ZN10CJHatEvent6ActiveEb
i6:__Z14PCSPEAKER_InitP7Section
j6:__ZN10Descriptor8GetLimitEv
k6:__ZL11FPU_FST_F64j
l6:__Z13SBLASTER_InitP7Section
m6:__ZN9CModEvent6ActiveEb
n6:__ZL12read_commandjj
o6:__Z13JOYSTICK_InitP7Section
p6:__zip_buffer_put
q6:__ZN6MyFifoC2Ej
r6:__Z14Mouse_AutoLockb
s6:__Z13HARDWARE_InitP7Section
t6:__Z12CPU_SetFlagsjj
u6:__ZN21CDROM_Interface_Image18GetMediaTrayStatusERbS0_S0_
v6:__ZTv0_n12_NSt3__214basic_ifstreamIcNS_11char_traitsIcEEED1Ev
w6:__ZTv0_n12_NSt3__214basic_ifstreamIcNS_11char_traitsIcEEED0Ev
x6:__ZN20CDROM_Interface_Fake18GetMediaTrayStatusERbS0_S0_
y6:__ZN13DOS_InfoBlock10SetBuffersEtt
z6:__ZL9FPU_FPTANv
A6:__Z8PIC_InitP7Section
B6:__Z11MPU401_InitP7Section
C6:__Z11DISNEY_InitP7Section
D6:dynCall_iiiiid
E6:__ZTv0_n12_NSt3__213basic_ostreamIcNS_11char_traitsIcEEED1Ev
F6:__ZTv0_n12_NSt3__213basic_ostreamIcNS_11char_traitsIcEEED0Ev
G6:__ZTv0_n12_NSt3__213basic_istreamIcNS_11char_traitsIcEEED1Ev
H6:__ZTv0_n12_NSt3__213basic_istreamIcNS_11char_traitsIcEEED0Ev
I6:__ZNSt3__26locale5__imp7installINS_8numpunctIwEEEEvPT_
J6:__ZNSt3__26locale5__imp7installINS_8numpunctIcEEEEvPT_
K6:__ZNSt3__26locale5__imp7installINS_8messagesIwEEEEvPT_
L6:__ZNSt3__26locale5__imp7installINS_8messagesIcEEEEvPT_
M6:__ZN5Adlib7CaptureC2EPA512_h
N6:__ZN15VGA_Map_Handler14GetHostWritePtEj
O6:__ZN11PageHandler13readw_checkedEjPt
P6:__ZN11PageHandler13readd_checkedEjPj
Q6:__ZN10copysourceC2ERKS_
R6:__ZL10EA_16_43_nv_313
S6:__ZL10EA_16_42_nv_312
T6:__ZL10EA_16_41_nv_311
U6:__ZL10EA_16_40_nv_310
V6:__Z18RemoveEMSPageFramev
W6:__Z18PreparePCJRCartRomv
X6:__Z10TIMER_InitP7Section
Y6:__ZNSt3__28numpunctIwED2Ev
Z6:__ZNSt3__28numpunctIcED2Ev
_6:__ZNSt3__26locale5__imp7installINS_7collateIwEEEEvPT_
$6:__ZNSt3__26locale5__imp7installINS_7collateIcEEEEvPT_
a7:__ZNSt3__219basic_ostringstreamIcNS_11char_traitsIcEENS_9allocatorIcEEED0Ev
b7:__ZNSt3__219basic_istringstreamIcNS_11char_traitsIcEENS_9allocatorIcEEED0Ev
c7:__ZN7DOS_FCB8GetDriveEv
d7:__ZN15VGA_Map_Handler13GetHostReadPtEj
e7:__ZN10DOS_DeviceC2ERKS_
f7:__ZL17VGA_VertInterruptj
g7:_context_free
h7:__ZNKSt3__29__num_getIwE10__do_widenERNS_8ios_baseEPw
i7:__ZN9DOS_Shell11SyntaxErrorEv
j7:__ZN11PageHandler13readb_checkedEjPh
k7:__Z18MSCDEX_RemoveDrivec
l7:__ZNSt3__26locale5__imp7installINS_5ctypeIwEEEEvPT_
m7:__ZL11FPU_FLD_F32jj
n7:__Z9BIOS_InitP7Section
o7:__Z8MEM_InitP7Section
p7:__Z18MOUSE_Limit_Eventsj
q7:__Z16AcceptsMode_ET3Kj
r7:_llvm_ctpop_i32
s7:__ZNSt3__26locale5__imp7installINS_5ctypeIcEEEEvPT_
t7:__ZNKSt3__25ctypeIwE10do_toupperEw
u7:__ZNKSt3__25ctypeIwE10do_tolowerEw
v7:__ZN11GUSChannels14UpdateWaveRampEv
w7:__ZN10DOS_Device14GetInformationEv
x7:__ZL10EA_16_83_nv_321
y7:__ZL10EA_16_82_nv_320
z7:__ZL10EA_16_81_nv_319
A7:__ZL10EA_16_80_nv_318
B7:__ZL10EA_16_06_nv_391
C7:__Z9CMOS_InitP7Section
D7:__Z24MOUSE_UserInt_CB_Handlerv
E7:dynCall_viiiii
F7:__zip_progress_start
G7:__ZL11PauseDOSBoxb
H7:__Z9MIDI_InitP7Section
I7:__Z8GUS_InitP7Section
J7:__Z8DOS_InitP7Section
K7:__ZNSt3__27codecvtIwc11__mbstate_tEC2Em
L7:__ZNKSt3__26locale9use_facetERNS0_2idE
M7:__ZNKSt3__26locale9has_facetERNS0_2idE
N7:__ZL16MPU401_ResetDonej
O7:__ZL11FPU_FLD_F64jj
P7:__Z8XMS_InitP7Section
Q7:__Z8EMS_InitP7Section
R7:__zip_progress_free
S7:__ZZ4mainEN3__18__invokeEiPK32EmscriptenPointerlockChangeEventPv
T7:__ZN21CDROM_Interface_Image14GetAudioStatusERbS0_
U7:__ZN10DmaChannel7SetPageEh
V7:__Z8CPU_InitP7Section
W7:__Z5ltrimPc
X7:_zip_source_layered
Y7:_zip_error_system_type
Z7:__zip_progress_subrange
_7:__ZN4BOOT10printErrorEv
$7:__ZN16CommandInterfaceD2Ev
a8:__ZL12show_warningPKc
b8:__ZNSt3__28time_putIwNS_19ostreambuf_iteratorIwNS_11char_traitsIwEEEEED0Ev
c8:__ZNSt3__28time_putIcNS_19ostreambuf_iteratorIcNS_11char_traitsIcEEEEED0Ev
d8:__ZNSt3__215basic_stringbufIcNS_11char_traitsIcEENS_9allocatorIcEEED0Ev
e8:__ZNK10__cxxabiv123__fundamental_type_info9can_catchEPKNS_16__shim_type_infoERPv
f8:__ZN7DOS_FCB10SetSeqDataEht
g8:__ZN5Cross9CreateDirERKNSt3__212basic_stringIcNS0_11char_traitsIcEENS0_9allocatorIcEEEE
h8:__Z7IO_InitP7Section
i8:__Z14open_directoryPKc
j8:__ZNK5ValuecvbEv
k8:__ZN8JOYSTICKD2Ev
l8:__ZN7DOS_PSP7SetFCB2Ej
m8:__ZN16VGA_MMIO_Handler6writewEjj
n8:__ZN16VGA_MMIO_Handler6writedEjj
o8:__ZN16VGA_MMIO_Handler6writebEjj
p8:__Z25CPU_Enable_SkipAutoAdjustv
q8:__ZNSt3__210__list_impIN7Section16Function_wrapperENS_9allocatorIS2_EEED2Ev
r8:__ZNKSt3__29__num_getIcE10__do_widenERNS_8ios_baseEPc
s8:__ZNKSt3__210moneypunctIwLb1EE13do_pos_formatEv
t8:__ZNKSt3__210moneypunctIwLb1EE13do_neg_formatEv
u8:__ZNKSt3__210moneypunctIwLb0EE13do_pos_formatEv
v8:__ZNKSt3__210moneypunctIwLb0EE13do_neg_formatEv
w8:__ZNKSt3__210moneypunctIcLb1EE13do_pos_formatEv
x8:__ZNKSt3__210moneypunctIcLb1EE13do_neg_formatEv
y8:__ZNKSt3__210moneypunctIcLb0EE13do_pos_formatEv
z8:__ZNKSt3__210moneypunctIcLb0EE13do_neg_formatEv
A8:__ZN7DOS_PSP7SetFCB1Ej
B8:__ZN7DOS_FCB9SetRecordEth
C8:__Z19removeLeadingSpacesPc
D8:__ZNSt3__217__call_once_proxyINS_5tupleIJONS_12_GLOBAL__N_111__fake_bindEEEEEEvPv
E8:__ZNKSt3__27codecvtIDsc11__mbstate_tE10do_unshiftERS1_PcS4_RS4_
F8:__ZNKSt3__27codecvtIDic11__mbstate_tE10do_unshiftERS1_PcS4_RS4_
G8:__ZNK12Section_line9PrintDataEP8_IO_FILE
H8:__Z14SERIAL_DestroyP7Section
I8:___lctrans_impl
J8:__ZNKSt3__27codecvtIcc11__mbstate_tE10do_unshiftERS1_PcS4_RS4_
K8:__ZL18KEYBOARD_SetPort60h
L8:__Z9FPU_FLDCWj
M8:__Z13SortByNameRevRKPN15DOS_Drive_Cache9CFileInfoES3_
N8:__zip_buffer_get_16
O8:___strdup
P8:___DOUBLE_BITS_719
Q8:___DOUBLE_BITS_295
R8:__ZN9CKeyEventC2EPKc8KBD_KEYS
S8:__ZN8fatDrive17getClustFirstSectEj
T8:__ZN12MixerChannel9SetVolumeEff
U8:__ZN10DOS_Device5CloseEv
V8:__ZL10EA_32_05_nv_414
W8:__Z17PIC_DeActivateIRQj
X8:__Z15GFX_ResetScreenv
Y8:__Z12OPL_ShutDownP7Section
Z8:__ZNSt3__26localeC2ERKS0_
_8:__Z8OPL_InitP7Section8OPL_Mode
$8:__Z15MSCDEX_ShutDownP7Section
a9:__Z15MSCDEX_AddDrivecPKcRh
b9:_compression_flags
c9:__ZN12CEventButton9BindColorEv
d9:__ZL15master_startIRQj
e9:_i64Add
f9:__ZN8Prop_int9SetMinMaxERK5ValueS2_
g9:__ZN11PageHandler14writew_checkedEjj
h9:__ZN11PageHandler14writed_checkedEjj
i9:__ZN11PageHandler14writeb_checkedEjj
j9:__Z17PAGING_SetDirBasej
k9:__Z16VESA_GetSVGAModeRt
l9:__ZN9imageDisk11GetBiosTypeEv
m9:__ZN9Prop_pathD2Ev
n9:__ZL11FPU_FST_F32j
o9:__Z16CAPTURE_AddImagejjjjjfPhS_
p9:__ZN11PageHandler6writebEjj
q9:__ZL19Serial_EventHandlerj
r9:__ZNK5ValuecviEv
s9:__ZN10DmaChannel10DoCallBackE8DMAEvent
t9:__ZL21TandyDAC_DMA_CallBackP10DmaChannel8DMAEvent
u9:__Z7Restartb
v9:__Z14VGA_SetModeNow8VGAModes
w9:dynCall_iiiii
x9:__ZNK5Valuecv3HexEv
y9:__ZN8DOS_FileC2Ev
z9:__ZN7CSerial5clearEh
A9:__ZL8FPU_FSINv
B9:__ZL8FPU_FCOSv
C9:__Z27DOS_KeyboardLayout_ShutDownP7Section
D9:__ZN9CModEventC2EPKcj
E9:__ZN15keyboard_layout18read_keyboard_fileEPKci
F9:__ZN12DriveManager4InitEP7Section
G9:__Z20TIMER_AddTickHandlerPFvvE
H9:__Z11VGA_SetMode8VGAModes
I9:__ZNSt3__28time_putIwNS_19ostreambuf_iteratorIwNS_11char_traitsIwEEEEED2Ev
J9:__ZNSt3__28time_putIcNS_19ostreambuf_iteratorIcNS_11char_traitsIcEEEEED2Ev
K9:__ZN7CSerial4riseEh
L9:__ZN5MIXER8ListMidiEv
M9:__ZL20set_clock_index_et3kj
N9:__ZNKSt3__28numpunctIwE11do_groupingEv
O9:__ZNKSt3__28numpunctIcE11do_groupingEv
P9:__ZL14DSP_ChangeMode9DSP_MODES
Q9:__zip_ef_free
R9:__ZZ4mainENK3__1clEiPK32EmscriptenPointerlockChangeEventPv
S9:__ZN13CJButtonEvent6ActiveEb
T9:__ZL10write_p3c8jjj
U9:__Z15write_p3cd_et4kjjj
V9:__ZNSt3__210__time_putD2Ev
W9:__ZN15CStickBindGroup9BindStartEv
X9:___cxx_global_var_init_1398
Y9:__ZN7DOS_FCB9FileCloseERh
Z9:__ZN7CSerial8Read_IEREv
_9:__ZN15VGA_LFB_Handler13GetHostReadPtEj
$9:__ZL10write_p3c7jjj
aaa:__ZN3LOGclEPKcddddddd
baa:__ZN16TaskStateSegment8Get_backEv
caa:__ZN11PageHandler5readbEj
daa:__ZL17MPU401_ReadStatusjj
eaa:b11
faa:_zip_fopen_index
gaa:__zip_buffer_put_8
haa:__ZN12MixerChannel15AddSamples_s16uEjPKt
iaa:__ZN12MixerChannel15AddSamples_m16uEjPKt
jaa:__ZN10Descriptor11GetSelectorEv
kaa:__Z24INT10_TeletypeOutputAttrhhb
laa:__Z19TANDYSOUND_ShutDownP7Section
maa:__zip_string_write
naa:__zip_string_crc32
oaa:__ZN13DmaController10GetChannelEh
paa:__ZN12MixerChannel14AddSamples_s8sEjPKa
qaa:__ZN12MixerChannel14AddSamples_s32EjPKi
raa:__ZN12MixerChannel14AddSamples_s16EjPKs
saa:__ZN12MixerChannel14AddSamples_m8sEjPKa
taa:__ZN12MixerChannel14AddSamples_m32EjPKi
uaa:__ZN12MixerChannel14AddSamples_m16EjPKs
vaa:__Z18PCSPEAKER_ShutDownP7Section
waa:__Z13XMS_EnableA20b
xaa:__ZZ4mainEN3__08__invokeEiPK20EmscriptenMouseEventPv
yaa:__ZN8DOS_File6IsNameEPKc
zaa:__ZN21VGA_TANDY_PageHandler14GetHostWritePtEj
Aaa:__ZN12MixerChannel13AddSamples_s8EjPKh
Baa:__ZN12MixerChannel13AddSamples_m8EjPKh
Caa:__ZN11CJAxisEvent14RepostActivityEv
Daa:__ZL9FPU_FSUBRjj
Eaa:__ZL9FPU_FDIVRjj
Faa:__Z24CloseSecondDMAControllerv
Gaa:__Z17SBLASTER_ShutDownP7Section
Haa:__Z15SetClock_PVGA1Ajj
Iaa:__Z15JOYSTICK_Buttonjjb
Jaa:dynCall_viiii
Kaa:__ZZ4mainENK3__0clEiPK20EmscriptenMouseEventPv
Laa:__ZN21VGA_TANDY_PageHandler13GetHostReadPtEj
Maa:__ZL8FPU_FSUBjj
Naa:__ZL8FPU_FMULjj
Oaa:__ZL8FPU_FDIVjj
Paa:__ZL8FPU_FADDjj
Qaa:__ZL15DISNEY_ShutDownP7Section
Raa:__ZL10EA_16_47_nv_317
Saa:__ZL10EA_16_46_nv_316
Taa:__ZL10EA_16_45_nv_315
Uaa:__ZL10EA_16_44_nv_314
Vaa:__Z16JOYSTICK_DestroyP7Section
Waa:__Z16HARDWARE_DestroyP7Section
Xaa:__ZN7DOS_FCB7GetAttrERh
Yaa:__Z20INT10_TeletypeOutputhh
Zaa:__Z19MSCDEX_ReplaceDriveP15CDROM_Interfaceh
_aa:__Z12DOS_SetDriveh
$aa:_strtoull_l
aba:__ZNSt3__211char_traitsIcE7compareEPKcS3_m
bba:__ZN9DOS_DriveC2Ev
cba:__ZN5Adlib4ChipC2Ev
dba:__ZN16VGA_MMIO_Handler5readwEj
eba:__ZN16VGA_MMIO_Handler5readdEj
fba:__ZN16VGA_MMIO_Handler5readbEj
gba:__ZN16TaskStateSegment12SaveSelectorEv
hba:__ZN16CommandInterfaceC2Ev
iba:__Z14read_p3cd_et3kjj
jba:__Z14MPU401_DestroyP7Section
kba:__ZN14TSS_Descriptor6IsBusyEv
lba:__ZL24DOSBOX_RunMachineNoSleepv_2909
mba:__ZL17VESA_PMSetPalettev
nba:__ZL12MEM_ShutDownP7Section
oba:__Z6get_PFv
pba:__Z13TIMER_DestroyP7Section
qba:__Z10GFX_GetRGBhhh
rba:_strtoll_l
sba:_safe_create_dir
tba:__ZN7CSerial8setEventEtf
uba:__ZN16VGA_PCJR_Handler14GetHostWritePtEj
vba:__ZN16VGA_HERC_Handler14GetHostWritePtEj
wba:__ZN14TSS_Descriptor5Is386Ev
xba:__ZL24DOSBOX_RunMachineNoSleepv_621
yba:__ZL10EA_16_87_nv_325
zba:__ZL10EA_16_86_nv_324
Aba:__ZL10EA_16_85_nv_323
Bba:__ZL10EA_16_84_nv_322
Cba:__Z12XMS_ShutDownP7Section
Dba:__Z12MIDI_DestroyP7Section
Eba:__Z12GUS_ShutDownP7Section
Fba:__Z12EMS_ShutDownP7Section
Gba:__Z12DOS_ShutDownP7Section
Hba:__Z12CPU_ShutDownP7Section
Iba:__Z12CMS_ShutDownP7Section
Jba:__Z12CMOS_DestroyP7Section
Kba:__Z12BIOS_DestroyP7Section
Lba:_strtoll
Mba:__ZNSt3__212_GLOBAL__N_14makeINS_9money_putIwNS_19ostreambuf_iteratorIwNS_11char_traitsIwEEEEEEjEERT_T0_
Nba:__ZNSt3__212_GLOBAL__N_14makeINS_9money_putIcNS_19ostreambuf_iteratorIcNS_11char_traitsIcEEEEEEjEERT_T0_
Oba:__ZNSt3__212_GLOBAL__N_14makeINS_9money_getIwNS_19istreambuf_iteratorIwNS_11char_traitsIwEEEEEEjEERT_T0_
Pba:__ZNSt3__212_GLOBAL__N_14makeINS_9money_getIcNS_19istreambuf_iteratorIcNS_11char_traitsIcEEEEEEjEERT_T0_
Qba:__ZN15VGA_LFB_Handler14GetHostWritePtEj
Rba:__ZN15DOS_Drive_Cache10ExpandNameEPc
Sba:__Z11PIC_DestroyP7Section
Tba:__Z11DMA_DestroyP7Section
Uba:__zip_error_copy
Vba:___wasi_syscall_ret
Wba:__ZN7DOS_MCB11GetFileNameEPc
Xba:__ZL10KillSwitchb
Yba:__Z19DOS_GetLoadedLayoutv
Zba:__Z10IO_DestroyP7Section
_ba:__ZSt11__terminatePFvvE
$ba:__ZNSt3__212_GLOBAL__N_14makeINS_7num_putIwNS_19ostreambuf_iteratorIwNS_11char_traitsIwEEEEEEjEERT_T0_
aca:__ZNSt3__212_GLOBAL__N_14makeINS_7num_putIcNS_19ostreambuf_iteratorIcNS_11char_traitsIcEEEEEEjEERT_T0_
bca:__ZNSt3__212_GLOBAL__N_14makeINS_7num_getIwNS_19istreambuf_iteratorIwNS_11char_traitsIwEEEEEEjEERT_T0_
cca:__ZNSt3__212_GLOBAL__N_14makeINS_7num_getIcNS_19istreambuf_iteratorIcNS_11char_traitsIcEEEEEEjEERT_T0_
dca:__ZN15keyboard_layout18main_language_codeEv
eca:__zip_entry_finalize
fca:__ZNSt3__211char_traitsIcE4moveEPcPKcm
gca:__ZN15MidiHandler_oss5CloseEv
hca:__ZN14PIC_Controller10deactivateEv
ica:__ZN10DmaChannel7SetMaskEb
jca:__ZN10Descriptor4TypeEv
kca:__ZL24DOSBOX_RunMachineNoSleepv
lca:__Z13CPU_Exceptionjj
mca:__zip_source_invalidate
nca:__ZNSt3__211char_traitsIcE4copyEPcPKcm
oca:__ZN8isoDrive8ActivateEv
pca:__ZN7CSerial11removeEventEt
qca:_get_algorithm
rca:__ZN8Prop_intD2Ev
sca:__ZN7Section16Function_wrapperC2EPFvPS_Eb
tca:__ZN15DOS_Drive_Cache10IsCachedInEPNS_9CFileInfoE
uca:__ZN10Descriptor3DPLEv
vca:__ZN10Descriptor3BigEv
wca:__ZL16write_cms_detectjjj
xca:__ZNSt3__217_DeallocateCaller27__do_deallocate_handle_sizeEPvm
yca:__ZNSt3__215basic_streambufIcNS_11char_traitsIcEEED0Ev
zca:__Z8CPU_LIDTjj
Aca:__Z8CPU_LGDTjj
Bca:__Z16VESA_SetSVGAModet
Cca:_strtoull
Dca:__ZN4OPL37Handler9WriteAddrEjh
Eca:__ZN20CDROM_Interface_Fake14GetAudioStatusERbS0_
Fca:__Z20CPU_Reset_AutoAdjustv
Gca:__ZNSt3__26locale2id6__initEv
Hca:__ZNSt3__214basic_ifstreamIcNS_11char_traitsIcEEED0Ev
Ica:__ZN11MixerObjectD2Ev
Jca:__ZL8FPU_FLDZv
Kca:__ZNSt3__26locale5facet16__on_zero_sharedEv
Lca:b10
Mca:_zip_source_supports
Nca:__ZNSt3__213basic_ostreamIcNS_11char_traitsIcEEED0Ev
Oca:__ZNSt3__213basic_istreamIcNS_11char_traitsIcEEED0Ev
Pca:__ZNSt3__213basic_filebufIcNS_11char_traitsIcEEED0Ev
Qca:__ZNSt3__210__list_impIP8PropertyNS_9allocatorIS2_EEED2Ev
Rca:__ZNSt11logic_errorC2EPKc
Sca:__ZN8DOS_File9RemoveRefEv
Tca:__ZL21VGA_DisplayStartLatchj
Uca:dynCall_iiii
Vca:__zip_unicode_to_utf8_len
Wca:__ZNSt3__214__ptr_in_rangeIwEEbPKT_S3_S3_
Xca:__ZNSt3__214__ptr_in_rangeIcEEbPKT_S3_S3_
Yca:__ZN7DOS_FCB7SetAttrEh
Zca:__Z18JOYSTICK_GetMove_Yj
_ca:__Z18JOYSTICK_GetMove_Xj
$ca:__ZNSt3__29money_putIwNS_19ostreambuf_iteratorIwNS_11char_traitsIwEEEEED0Ev
ada:__ZNSt3__29money_putIcNS_19ostreambuf_iteratorIcNS_11char_traitsIcEEEEED0Ev
bda:__ZNSt3__29money_getIwNS_19istreambuf_iteratorIwNS_11char_traitsIwEEEEED0Ev
cda:__ZNSt3__29money_getIcNS_19istreambuf_iteratorIcNS_11char_traitsIcEEEEED0Ev
dda:__ZNSt3__210__list_impIP7SectionNS_9allocatorIS2_EEED2Ev
eda:__ZN10cdromDrive10FileCreateEPP8DOS_FilePct
fda:__ZNSt3__28time_getIwNS_19istreambuf_iteratorIwNS_11char_traitsIwEEEEED0Ev
gda:__ZNSt3__28time_getIcNS_19istreambuf_iteratorIcNS_11char_traitsIcEEEEED0Ev
hda:__Z13AUTOEXEC_InitP7Section
ida:_zip_source_compress
jda:__zip_buffer_size
kda:__ZNSt3__27num_putIwNS_19ostreambuf_iteratorIwNS_11char_traitsIwEEEEED0Ev
lda:__ZNSt3__27num_putIcNS_19ostreambuf_iteratorIcNS_11char_traitsIcEEEEED0Ev
mda:__ZNSt3__27num_getIwNS_19istreambuf_iteratorIwNS_11char_traitsIwEEEEED0Ev
nda:__ZNSt3__27num_getIcNS_19istreambuf_iteratorIcNS_11char_traitsIcEEEEED0Ev
oda:__ZNSt3__26locale5__imp12make_classicEv
pda:_zip_error_set
qda:__ZN8isoDrive10FileCreateEPP8DOS_FilePct
rda:__ZN6MyFifo7setSizeEj
sda:__ZN5DBOPL7Handler9WriteAddrEjh
tda:__ZN11CommandLine11GetFileNameEv
uda:__ZL9FPU_F2XM1v
vda:_strchr
wda:_fputs
xda:__ZNSt3__215basic_streambufIcNS_11char_traitsIcEEE9pbackfailEi
yda:__ZNSt3__210__list_impIP5CBindNS_9allocatorIS2_EEED2Ev
zda:_getpid
Ada:__ZNSt3__215basic_streambufIcNS_11char_traitsIcEEE8overflowEi
Bda:__ZN6Events12write_stdoutEPKcm
Cda:__ZN20CDROM_Interface_Fake11ReadSectorsEjbmm
Dda:__ZN16DOS_DeviceHeader7SetNameEPKc
Eda:__ZL10EA_32_47_nv_341
Fda:__ZL10EA_32_46_nv_340
Gda:__ZL10EA_32_45_nv_339
Hda:__ZL10EA_32_43_nv_337
Ida:__ZL10EA_32_42_nv_336
Jda:__ZL10EA_32_41_nv_335
Kda:__ZL10EA_32_40_nv_334
Lda:__Z9OPL_Writejjj
Mda:__Z21IMGMOUNT_ProgramStartPP7Program
Nda:__Z21BIOS_ZeroExtendedSizeb
Oda:__ZNSt3__215basic_streambufIcNS_11char_traitsIcEEED2Ev
Pda:__ZNSt3__211char_traitsIwE4moveEPwPKwm
Qda:__ZN7DOS_FCB17ClearBlockRecsizeEv
Rda:__ZN5ValueC2ERKS_
Sda:__ZN13device_MSCDEXC2Ev
Tda:__ZL20LOADROM_ProgramStartPP7Program
Uda:__ZL20LOADFIX_ProgramStartPP7Program
Vda:__ZL18SHELL_ProgramStartPP7Program
Wda:__zip_entry_init
Xda:___syscall_ret
Yda:__ZNSt3__211char_traitsIwE6assignEPwmw
Zda:__ZNSt3__211char_traitsIwE4copyEPwPKwm
_da:__ZN6Events11shell_inputEPci
$da:__ZN5DBOPL7Handler8WriteRegEjh
aea:__Z18JOYSTICK_IsEnabledj
bea:__Z11PAGING_InitP7Section
cea:_wcslen
dea:___ctype_get_mb_cur_max
eea:__ZNSt3__28ios_base33__set_badbit_and_consider_rethrowEv
fea:__ZN11device_LPT1C2Ev
gea:__ZL19RESCAN_ProgramStartPP7Program
hea:__ZL19CONFIG_ProgramStartPP7Program
iea:__ZL11FPU_FLD_I16jj
jea:_zip_get_name
kea:_free_list
lea:__ZN9MemStruct5SetPtEtt
mea:__ZN5DBOPL7Handler4InitEj
nea:__ZN12MixerChannel8SetScaleEf
oea:__ZN10device_NULC2Ev
pea:dynCall_viii
qea:__zip_string_free
rea:___cxx_global_var_init
sea:__ZL18MOUNT_ProgramStartPP7Program
tea:__ZL18MIXER_ProgramStartPP7Program
uea:__ZL18INTRO_ProgramStartPP7Program
vea:__ZL11FPU_FLD_F80j
wea:__Z13SetClock_ET4Kjj
xea:__Z13SetClock_ET3Kjj
yea:___cxa_is_pointer_type
zea:__ZNK10jsonstream5c_strEv
Aea:__ZN7DOS_MCB11SetFileNameEPKc
Bea:__ZN5DBOPL7HandlerC2Ev
Cea:__ZN5Adlib5TimerC2Ev
Dea:__ZN3LOGclEPKcddddd
Eea:__Z23CALLBACK_GetDescriptionj
Fea:__zip_source_set_source_archive
Gea:__zip_buffer_get_8
Hea:__ZNK7Section7GetNameEv
Iea:__ZN8fatDrive13getSectorSizeEv
Jea:__ZN6CEventD2Ev
Kea:__ZN13DOS_InfoBlock18SetStartOfUMBChainEt
Lea:__ZN10localDrive7UnMountEv
Mea:__ZL17WGET_ProgramStartPP7Program
Nea:__ZL17KEYB_ProgramStartPP7Program
Oea:__ZL17BOOT_ProgramStartPP7Program
Pea:__ZL15DSP_FinishResetj
Qea:__Z20MSCDEX_GetVolumeNamehPc
Rea:__zip_get_encryption_implementation
Sea:__zip_buffer_free
Tea:__ZL19Mixer_irq_importantv
Uea:__Z8CMS_InitP7Section
Vea:stackAlloc
Wea:__ZNSt3__29money_putIwNS_19ostreambuf_iteratorIwNS_11char_traitsIwEEEEED2Ev
Xea:__ZNSt3__29money_putIcNS_19ostreambuf_iteratorIcNS_11char_traitsIcEEEEED2Ev
Yea:__ZNSt3__29money_getIwNS_19istreambuf_iteratorIwNS_11char_traitsIwEEEEED2Ev
Zea:__ZNSt3__29money_getIcNS_19istreambuf_iteratorIcNS_11char_traitsIcEEEEED2Ev
_ea:__ZNKSt3__26vectorINS_12basic_stringIcNS_11char_traitsIcEENS_9allocatorIcEEEENS4_IS6_EEE8max_sizeEv
$ea:__ZNKSt3__26locale5__imp9use_facetEl
afa:__ZN12CSerialDummyD2Ev
bfa:__ZN11CJAxisEvent16GetActivityCountEv
cfa:__ZL9FPU_FSQRTv
dfa:__ZL16MEM_ProgramStartPP7Program
efa:__Z23DOS_SetMemAllocStrategyt
ffa:__ZNSt3__28time_getIwNS_19istreambuf_iteratorIwNS_11char_traitsIwEEEEED2Ev
gfa:__ZNSt3__28time_getIcNS_19istreambuf_iteratorIcNS_11char_traitsIcEEEEED2Ev
hfa:__ZN8fatDrive7UnMountEv
ifa:__ZN5ValueC2Eb
jfa:__ZN22VGA_ChainedEGA_Handler11readHandlerEj
kfa:__ZL7isvalidc
lfa:__ZL20get_clock_index_et4kv
mfa:__Z18KEYBOARD_ClrBufferv
nfa:__ZNSt3__28ios_base5clearEj
ofa:__ZNSt3__27num_putIwNS_19ostreambuf_iteratorIwNS_11char_traitsIwEEEEED2Ev
pfa:__ZNSt3__27num_putIcNS_19ostreambuf_iteratorIcNS_11char_traitsIcEEEEED2Ev
qfa:__ZNSt3__27num_getIwNS_19istreambuf_iteratorIwNS_11char_traitsIwEEEEED2Ev
rfa:__ZNSt3__27num_getIcNS_19istreambuf_iteratorIcNS_11char_traitsIcEEEEED2Ev
sfa:__ZN6MyFifo5clearEv
tfa:__ZN21CDROM_Interface_Image10BinaryFileD0Ev
ufa:__ZN16DOS_DeviceHeader14SetNumSubUnitsEh
vfa:__ZN16DOS_DeviceHeader14SetDriveLetterEh
wfa:__ZN13DOS_InfoBlock16SetUMBChainStateEh
xfa:__ZL8FPU_FABSv
yfa:__ZL11FPU_FST_I32j
zfa:__ZL11FPU_FST_I16j
Afa:__Z9read_p3c0jj
Bfa:_strpbrk
Cfa:__ZNSt3__212_GLOBAL__N_14makeINS_7codecvtIwc11__mbstate_tEEjEERT_T0_
Dfa:__ZNKSt3__25ctypeIwE9do_narrowEwc
Efa:__ZN22CALLBACK_HandlerObject15Get_RealPointerEv
Ffa:__ZN16DOS_DeviceHeader12SetInterruptEt
Gfa:__ZN16DOS_DeviceHeader12SetAttributeEt
Hfa:__ZN12DriveManager9DriveInfoC2Ev
Ifa:__ZL8FPU_FPOPv
Jfa:dynCall_vidi
Kfa:b9
Lfa:_close
Mfa:__ZNKSt3__25ctypeIcE9do_narrowEcc
Nfa:__ZN5ValueC2Ei
Ofa:__ZN22CALLBACK_HandlerObjectC2Ev
Pfa:__ZN16DOS_DeviceHeader19SetNextDeviceHeaderEj
Qfa:__ZN16DOS_DeviceHeader11SetStrategyEt
Rfa:__ZL16EMM_GetFreePagesv
Sfa:__Z7em_exiti
Tfa:__Z19SVGA_S3_AcceptsModej
Ufa:__Z15MAPPER_RunEventj
Vfa:__Z15JOYSTICK_Enablejb
Wfa:_zip_source_decompress
Xfa:__ZNSt3__26locale5__imp11make_globalEv
Yfa:__ZNSt3__215basic_streambufIcNS_11char_traitsIcEEE6setbufEPcl
Zfa:__ZN9CKeyEvent6ActiveEb
_fa:__ZN7CMscdex8HasDriveEt
$fa:__ZN13DOS_InfoBlock19SetDiskBufferHeadPtEj
aga:__ZN10__cxxabiv123__fundamental_type_infoD0Ev
bga:__ZL10EA_32_87_nv_349
cga:__ZL10EA_32_86_nv_348
dga:__ZL10EA_32_85_nv_347
ega:__ZL10EA_32_83_nv_345
fga:__ZL10EA_32_82_nv_344
gga:__ZL10EA_32_81_nv_343
hga:__ZL10EA_32_80_nv_342
iga:__Z18AcceptsMode_PVGA1Aj
jga:__Z15MSCDEX_HasDrivec
kga:__Z15JOYSTICK_Move_Yjf
lga:__Z15JOYSTICK_Move_Xjf
mga:__ZN16VGA_PCJR_Handler13GetHostReadPtEj
nga:__ZN13DOS_InfoBlock19SetDeviceChainStartEj
oga:__ZN13DOS_InfoBlock11SetFirstMCBEt
pga:__ZN10jsonstreamD2Ev
qga:b8
rga:b2
sga:_swapc
tga:_out_710
uga:__ZN7DOS_FCB9GetRandomERj
vga:__ZN13Virtual_Drive10FileCreateEPP8DOS_FilePct
wga:__ZN10__cxxabiv121__vmi_class_type_infoD0Ev
xga:__ZN10DmaChannel9ReachedTCEv
yga:__ZL9read_datajj
zga:__Z16AcceptsMode_ET4Kj
Aga:___udivdi3
Bga:__ZNSt3__215basic_streambufIcNS_11char_traitsIcEEE9underflowEv
Cga:__ZN4OPL37Handler8WriteRegEjh
Dga:__ZN4OPL27Handler8WriteRegEjh
Ega:__ZN16CContinuousEventC2EPKc
Fga:__ZN11Module_baseC2EP7Section
Gga:__ZN10device_NUL22ReadFromControlChannelEjtPt
Hga:__ZN10device_CON22ReadFromControlChannelEjtPt
Iga:__ZN10__cxxabiv120__si_class_type_infoD0Ev
Jga:__ZL11FPU_FLD_I32jj
Kga:__ZNSt3__212_GLOBAL__N_14makeINS_7codecvtIDsc11__mbstate_tEEjEERT_T0_
Lga:__ZNSt3__212_GLOBAL__N_14makeINS_7codecvtIDic11__mbstate_tEEjEERT_T0_
Mga:__ZN7DOS_DTA15SetDirIDClusterEt
Nga:__ZN15CTriggeredEventC2EPKc
Oga:__ZN12DriveManager9DriveInfoD2Ev
Pga:__ZN10device_NUL21WriteToControlChannelEjtPt
Qga:__ZN10device_EMM21WriteToControlChannelEjtPt
Rga:__ZN10device_CON21WriteToControlChannelEjtPt
Sga:__ZN10__cxxabiv119__pointer_type_infoD0Ev
Tga:___cxa_guard_release
Uga:__ZNSt3__27codecvtIwc11__mbstate_tED0Ev
Vga:__ZNSt3__212_GLOBAL__N_14makeINS_7codecvtIcc11__mbstate_tEEjEERT_T0_
Wga:__ZNSt11logic_errorD2Ev
Xga:__ZN7DOS_PSP14SetEnvironmentEt
Yga:__ZN13DOS_InfoBlock15SetCurDirStructEj
Zga:__ZN13CHandlerEvent6ActiveEb
_ga:__ZL23VGA_Other_VertInterruptj
$ga:_mbrlen
aha:___emscripten_stdout_seek
bha:__ZNKSt3__29__num_getIcE12__do_widen_pERNS_8ios_baseEPc
cha:__ZN5ValueC2E3Hex
dha:__ZN10__cxxabiv117__class_type_infoD0Ev
eha:__ZN10DOS_DeviceC2Ev
fha:__ZL8read_p61jj
gha:__ZL15illegal_handlerv
hha:dynCall_iii
iha:b19
jha:_llvm_bswap_i32
kha:_fseek
lha:__ZL10FPU_FLDL2Ev
mha:__zip_error_set_from_source
nha:__ZNSt3__211char_traitsIcE6assignERcRKc
oha:__ZN5DBOPL7Channel2OpEj
pha:__ZN15DOS_Drive_Cache10SetDirSortENS_8TDirSortE
qha:__ZN14RAMPageHandler14GetHostWritePtEj
rha:__ZN13DOS_InfoBlock18GetStartOfUMBChainEv
sha:__ZN13DOS_InfoBlock11SetFCBTableEj
tha:__ZN10copysourceD2Ev
uha:__ZL8OPL_Readjj
vha:__ZL11RENDER_Haltv
wha:__ZL10FPU_FLDLN2v
xha:__ZL10FPU_FLDLG2v
yha:__ZL10FPU_FLDL2Tv
zha:__Z11PS2_Handlerv
Aha:___cxa_guard_acquire
Bha:__ZN7DOS_PSPC2Et
Cha:__ZN4WGET17downloadSucceededEP18emscripten_fetch_t
Dha:__ZN21CDROM_Interface_Image10PauseAudioEb
Eha:__ZN14RAMPageHandler13GetHostReadPtEj
Fha:__ZL8FPU_FCHSv
Gha:__ZL19VGA_Memory_ShutDownP7Section
Hha:__Z14read_p3cd_et4kjj
Iha:__ZNSt3__212_GLOBAL__N_14makeINS_5ctypeIcEEDnbjEERT_T0_T1_T2_
Jha:__ZNSt3__212_GLOBAL__N_14makeINS_10moneypunctIwLb1EEEjEERT_T0_
Kha:__ZNSt3__212_GLOBAL__N_14makeINS_10moneypunctIwLb0EEEjEERT_T0_
Lha:__ZNSt3__212_GLOBAL__N_14makeINS_10moneypunctIcLb1EEEjEERT_T0_
Mha:__ZNSt3__212_GLOBAL__N_14makeINS_10moneypunctIcLb0EEEjEERT_T0_
Nha:__ZNSt3__211char_traitsIwE6assignERwRKw
Oha:__ZN7DOS_PSP9SetParentEt
Pha:__ZL9FPU_FLDPIv
Qha:__ZL8read_p92jj
Rha:__ZL23MSCDEX_Strategy_Handlerv
Sha:__ZL10EA_16_03_nv_388
Tha:__ZL10EA_16_02_nv_387
Uha:__ZL10EA_16_01_nv_386
Vha:__ZL10EA_16_00_nv_385
Wha:__Z20CPU_PrepareExceptionjj
Xha:__Z17DOSBOX_RunMachinev
Yha:__ZNKSt3__28ios_base6getlocEv
Zha:__ZN9MemStruct5SetPtEj
_ha:__ZN8fatDrive12GetMediaByteEv
$ha:__ZN7DOS_MCB9SetPSPSegEt
aia:__ZN7DOS_DTA8SetDirIDEt
bia:__ZN7CButton6EnableEb
cia:__ZL10EA_16_03_nv_305
dia:__ZL10EA_16_02_nv_304
eia:__ZL10EA_16_01_nv_303
fia:__ZL10EA_16_00_nv_302
gia:_fileno
hia:__ZNKSt3__26vectorIPNS_6locale5facetENS_15__sso_allocatorIS3_Lm28EEEE8max_sizeEv
iia:__ZNKSt3__26vectorIPN15DOS_Drive_Cache9CFileInfoENS_9allocatorIS3_EEE8max_sizeEv
jia:__ZNKSt3__26vectorIN21CDROM_Interface_Image5TrackENS_9allocatorIS2_EEE8max_sizeEv
kia:__ZN7DOS_SDAC2Ett
lia:__ZN4WGET14downloadFailedEP18emscripten_fetch_t
mia:__ZN16DOS_DeviceHeader14GetNumSubUnitsEv
nia:__ZN13DOS_InfoBlock16GetUMBChainStateEv
oia:__ZN10cdromDrive6RenameEPcS0_
pia:_vfprintf
qia:__ZNKSt3__28time_getIwNS_19istreambuf_iteratorIwNS_11char_traitsIwEEEEE13do_date_orderEv
ria:__ZNKSt3__28time_getIcNS_19istreambuf_iteratorIcNS_11char_traitsIcEEEEE13do_date_orderEv
sia:__ZN7DOS_SDA8SetDriveEh
tia:__ZN7DOS_SDA6SetPSPEt
uia:__ZN7DOS_PSP7SetSizeEt
via:__ZN7DOS_MCB7SetSizeEt
wia:__ZN6MyFifo9probeByteEv
xia:__ZN10__cxxabiv112_GLOBAL__N_115set_initializedEPj
yia:__Z13MEM_BlockCopyjjj
zia:_zip_error_init
Aia:__zip_dirent_new
Bia:__ZN7CSerial11receiveByteEh
Cia:__ZN20CDROM_Interface_FakeC2Ev
Dia:__ZN11device_LPT14ReadEPhPt
Eia:__ZL8FPU_PUSHd
Fia:__ZL22write_crtc_index_otherjjj
Gia:___cxx_global_var_init_4
Hia:__ZNSt3__27codecvtIDsc11__mbstate_tED0Ev
Iia:__ZNSt3__27codecvtIDic11__mbstate_tED0Ev
Jia:__ZNSt3__217__widen_from_utf8ILm32EED0Ev
Kia:__ZNSt3__215basic_streambufIcNS_11char_traitsIcEEE5imbueERKNS_6localeE
Lia:__ZN8isoDrive6RenameEPcS0_
Mia:__ZN7DOS_MCB7SetTypeEh
Nia:__ZL10EA_16_03_nv
Oia:__ZL10EA_16_02_nv
Pia:__ZL10EA_16_01_nv
Qia:__ZL10EA_16_00_nv
Ria:b7
Sia:___stdio_close
Tia:___loc_is_allocated
Uia:__ZNSt3__27codecvtIcc11__mbstate_tED0Ev
Via:__ZNSt3__216__narrow_to_utf8ILm32EED0Ev
Wia:__ZNSt3__211char_traitsIcE2eqEcc
Xia:__ZN9DOS_DriveD2Ev
Yia:__ZN8DOS_File6AddRefEv
Zia:__ZN5ValueC2Ev
_ia:__ZN10Descriptor9GetOffsetEv
$ia:__ZL17SN76496_set_clocki
aja:__ZNSt3__212_GLOBAL__N_14makeINS_8messagesIwEEjEERT_T0_
bja:__ZNSt3__212_GLOBAL__N_14makeINS_8messagesIcEEjEERT_T0_
cja:__ZL19VGA_DAC_UpdateColorj
dja:dynCall_vii
eja:_wctomb
fja:__zip_error_clear
gja:__ZNSt3__215__refstring_imp12_GLOBAL__N_113data_from_repEPNS1_9_Rep_baseE
hja:__ZNSt3__212_GLOBAL__N_14makeINS_7collateIwEEjEERT_T0_
ija:__ZNSt3__212_GLOBAL__N_14makeINS_7collateIcEEjEERT_T0_
jja:__ZNSt3__211char_traitsIwE11eq_int_typeEjj
kja:__ZNSt3__211char_traitsIcE11eq_int_typeEii
lja:__ZN7isoFile5CloseEv
mja:__ZN7DOS_FCB9SetRandomEj
nja:__ZN3LOGclEPKcddS1_
oja:__ZN21CDROM_Interface_Image9StopAudioEv
pja:__ZN10device_CON4SeekEPjj
qja:__ZN10device_COM4SeekEPjj
rja:__Z10trimStringPc
sja:b6
tja:_zip_error_fini
uja:_vsprintf
vja:__ZN7DOS_PSP8SetStackEj
wja:__ZN7DOS_DTA15GetDirIDClusterEv
xja:__ZN3HexeqERKS_
yja:__ZN20CDROM_Interface_Fake15PlayAudioSectorEmm
zja:__ZN11CJAxisEvent15SetOppositeAxisEPS_
Aja:__ZL16adlib_gusforwardjjj
Bja:__ZL10EA_16_06_nv_308
Cja:__Z11FPU_ESC6_EAjj
Dja:__Z11FPU_ESC4_EAjj
Eja:__Z11FPU_ESC2_EAjj
Fja:__Z11FPU_ESC0_EAjj
Gja:_strerror
Hja:___cxa_pure_virtual
Ija:__ZNSt3__212_GLOBAL__N_14makeINS_5ctypeIwEEjEERT_T0_
Jja:__ZNKSt11logic_error4whatEv
Kja:__ZN7DOS_PSP14GetEnvironmentEv
Lja:__ZN21CDROM_Interface_ImageD0Ev
Mja:__ZN16TaskStateSegmentC2Ev
Nja:__ZL15VESA_PMSetStartv
Oja:__Z11cmos_selregjjj
Pja:__ZNSt3__212_GLOBAL__N_14makeINS_6locale5__impEjEERT_T0_
Qja:__ZN7DOS_SDA6SetDTAEj
Rja:__ZL10write_p3cejjj
Sja:_zip_source_keep
Tja:_decompress_allocate
Uja:__ZNSt3__210moneypunctIwLb1EED0Ev
Vja:__ZNSt3__210moneypunctIwLb0EED0Ev
Wja:__ZNSt3__210moneypunctIcLb1EED0Ev
Xja:__ZNSt3__210moneypunctIcLb0EED0Ev
Yja:__ZN8fatDrive8FileStatEPKcP14FileStat_Block
Zja:__ZN10DOS_Device15SetDeviceNumberEj
_ja:_strncpy
$ja:_closedir
aka:__ZNSt3__212_GLOBAL__N_14makeINS_8numpunctIwEEjEERT_T0_
bka:__ZNSt3__212_GLOBAL__N_14makeINS_8numpunctIcEEjEERT_T0_
cka:__ZN9DOS_Drive10EmptyCacheEv
dka:__ZN8DOS_FileD2Ev
eka:__ZN7DOS_DTA14GetSearchDriveEv
fka:__ZN6MyFifo6isFullEv
gka:__ZN3LOGclEPKcddd
hka:__Z14vga_write_p3d4jjj
ika:__Z14getSwapRequestv
jka:_zcalloc
kka:_do_read_685
lka:_compress_allocate
mka:__zip_string_length
nka:___cxx_global_var_init_1_2197
oka:__ZNSt3__212_GLOBAL__N_17countofIwEEmPKT_S4_
pka:__ZN9imageDiskD2Ev
qka:__ZN9BatchFile5ShiftEv
rka:__ZN4OPL27Handler9WriteAddrEjh
ska:__ZN22CALLBACK_HandlerObjectD2Ev
tka:__ZN10__cxxabiv112_GLOBAL__N_114is_initializedEPj
uka:b18
vka:_strcat
wka:__ZN9localFile14GetInformationEv
xka:__ZN9MemStruct5SetPtEt
yka:__ZN20CDROM_Interface_Fake9SetDeviceEPci
zka:__ZN13Virtual_Drive7TestDirEPc
Aka:__ZN10__cxxabiv119__getExceptionClassEPK17_Unwind_Exception
Bka:__ZL18cga16_color_selecth
Cka:_isxdigit
Dka:__zip_dirent_free
Eka:___cxx_global_var_init_3276
Fka:___cxx_global_var_init_2196
Gka:__ZNSt3__29basic_iosIcNS_11char_traitsIcEEED2Ev
Hka:__ZNKSt3__26vectorIP13CHandlerEventNS_9allocatorIS2_EEE8max_sizeEv
Ika:__ZN7DOS_PSP9GetParentEv
Jka:__ZN4OPL37HandlerC2Ev
Kka:__ZN4OPL27HandlerC2Ev
Lka:__ZN18DOS_KeyboardLayoutD0Ev
Mka:__ZN15DescriptorTable8SetLimitEj
Nka:_toupper
Oka:_tolower
Pka:_strrchr
Qka:__ZN9DOS_Drive8GetLabelEv
Rka:__ZN7DOS_MCB9GetPSPSegEv
Ska:__ZN7DOS_DTA8GetDirIDEv
Tka:__ZN24VGA_UnchainedVGA_HandlerD0Ev
Uka:__ZN24VGA_UnchainedEGA_HandlerD0Ev
Vka:__ZN22CALLBACK_HandlerObject12Get_callbackEv
Wka:__ZN20CDROM_Interface_FakeD0Ev
Xka:__ZN16VGA_HERC_Handler13GetHostReadPtEj
Yka:__ZN13DOS_InfoBlock14GetDeviceChainEv
Zka:__ZL8FPU_FLD1v
_ka:__Z10write_p3c4jjj
$ka:__GLOBAL__sub_I_js_dos_debug_mem_cpp
ala:_mbsinit
bla:__ZNSt3__26locale5facetD0Ev
cla:__ZNSt3__26locale5__impD0Ev
dla:__ZNKSt3__26vectorIPFvPP7ProgramENS_9allocatorIS5_EEE8max_sizeEv
ela:__ZN6Config10SetStartUpEPFvvE
fla:__ZN20IO_WriteHandleObjectD2Ev
gla:__ZN13DOS_InfoBlock10GetPointerEv
hla:__ZN12CSerialDummy16updatePortConfigEth
ila:__ZN10cdromDrive10FileUnlinkEPc
jla:__ZL14CURSOR_POS_ROWh_1025
kla:__ZL14CURSOR_POS_COLh_1021
lla:___cxx_global_var_init_3
mla:___cxx_global_var_init_2
nla:__ZNSt3__28messagesIwED0Ev
ola:__ZNSt3__28messagesIcED0Ev
pla:__ZNSt3__25ctypeIcE21__classic_upper_tableEv
qla:__ZNSt3__25ctypeIcE21__classic_lower_tableEv
rla:__ZNSt3__212_GLOBAL__N_17countofIcEEmPKT_S4_
sla:__ZNKSt3__26vectorIP10CBindGroupNS_9allocatorIS2_EEE8max_sizeEv
tla:__ZN7DOS_SDA8GetDriveEv
ula:__ZN7DOS_SDA6GetPSPEv
vla:__ZN7DOS_PSP7GetSizeEv
wla:__ZN7DOS_MCB7GetSizeEv
xla:__ZN3LOGclEPKcS1_S1_
yla:__ZN22VGA_LFBChanges_HandlerD0Ev
zla:__ZN22VGA_ChainedVGA_HandlerD0Ev
Ala:__ZN22VGA_ChainedEGA_HandlerD0Ev
Bla:__ZN20Prop_multival_remainD0Ev
Cla:__ZL9read_p3c7jj
Dla:__ZL20get_clock_index_et3kv
Ela:__ZL14CURSOR_POS_ROWh_862
Fla:__ZL14CURSOR_POS_COLh_861
Gla:__ZL10EA_32_05_nv_331
Hla:__Z15GetClock_PVGA1Av
Ila:__Z13GetClock_ET4Kv
Jla:__Z13GetClock_ET3Kv
Kla:__ZNSt3__28numpunctIwED0Ev
Lla:__ZNSt3__28numpunctIcED0Ev
Mla:__ZNSt3__215__refstring_imp12_GLOBAL__N_113rep_from_dataEPKc
Nla:__ZN9DOS_Drive6SetDirEPKc
Ola:__ZN6Events24supplyScreenshotIfNeededEv
Pla:__ZN3LOGC2E9LOG_TYPES14LOG_SEVERITIES
Qla:__ZN21VGA_TANDY_PageHandlerD0Ev
Rla:__ZN21InitPageUserROHandlerD0Ev
Sla:__ZN19IO_ReadHandleObjectD2Ev
Tla:__ZN10cdromDrive9RemoveDirEPc
Ula:__Z8CPU_LLDTj
Vla:__Z16CMOS_SetRegisterjh
Wla:__ZNKSt3__26vectorIP9DOS_DriveNS_9allocatorIS2_EEE8max_sizeEv
Xla:__ZNKSt3__26vectorI10copysourceNS_9allocatorIS1_EEE8max_sizeEv
Yla:__ZN8isoDrive10FileUnlinkEPc
Zla:__ZN7DOS_MCB7GetTypeEv
_la:__ZN4OPL37Handler4InitEj
$la:__ZN4OPL27Handler4InitEj
ama:__ZN20VGA_TEXT_PageHandlerD0Ev
bma:__ZN15DescriptorTable7SetBaseEj
cma:___cxx_global_var_init_1
dma:__ZNSt3__27collateIwED0Ev
ema:__ZNSt3__27collateIcED0Ev
fma:__ZNSt3__25ctypeIwED0Ev
gma:__ZN19VGA_Changes_HandlerD0Ev
hma:__ZN16SVGA_PVGA1A_DATA6lockedEv
ima:__ZN15CStickBindGroupD0Ev
jma:__ZN15C4AxisBindGroupD0Ev
kma:__ZN10cdromDrive7MakeDirEPc
lma:__ZL21read_crtc_index_otherjj
mma:__Z14MEM_NextHandlei
nma:__ZNSt3__213basic_ostreamIcNS_11char_traitsIcEEED2Ev
oma:__ZNSt3__213basic_istreamIcNS_11char_traitsIcEEED2Ev
pma:__ZNKSt3__26vectorIP7CButtonNS_9allocatorIS2_EEE8max_sizeEv
qma:__ZN8isoDrive9RemoveDirEPc
rma:__ZN7CSerial9Write_SPREh
sma:__ZN18IllegalPageHandlerD0Ev
tma:__ZN13Virtual_Drive6RenameEPcS0_
uma:__ZL14CURSOR_POS_ROWh
vma:__ZL14CURSOR_POS_COLh
wma:__Z8GFX_Stopv
xma:__Z15close_directoryP10dir_struct
yma:b5
zma:_llvm_cttz_i32
Ama:_catgets
Bma:__ZNKSt3__26vectorIP6CEventNS_9allocatorIS2_EEE8max_sizeEv
Cma:__ZNKSt3__26vectorI9SDL_EventNS_9allocatorIS1_EEE8max_sizeEv
Dma:__ZN8DOS_File8SetDriveEh
Ema:__ZN3LOGclEPKcdS1_
Fma:__ZN3LOGclEPKcS1_d
Gma:__ZN17VGA_Empty_HandlerD0Ev
Hma:__ZN17VGA_Empty_Handler6writebEjj
Ima:__ZN13CFCSBindGroupD0Ev
Jma:__ZL7add_keyt
Kma:dynCall_ii
Lma:___clang_call_terminate
Mma:__ZNSt12length_errorD0Ev
Nma:__ZNKSt3__28numpunctIwE16do_thousands_sepEv
Oma:__ZNKSt3__25ctypeIwE8do_widenEc
Pma:__ZN8isoDrive7MakeDirEPc
Qma:__ZN7CButton8SetColorEh
Rma:__ZN6CEvent8SetValueEi
Sma:__ZN21CDROM_Interface_Image9TrackFileC2Ev
Tma:__ZN16VGA_PCJR_HandlerD0Ev
Uma:__ZN16VGA_MMIO_HandlerD0Ev
Vma:__ZN16VGA_LIN4_HandlerD0Ev
Wma:__ZN16VGA_HERC_HandlerD0Ev
Xma:__ZN12CCHBindGroupD0Ev
Yma:__ZN10DescriptorC2Ev
Zma:_strtold_l
_ma:__ZNSt3__28ios_baseD0Ev
$ma:__ZNSt3__25ctypeIcED0Ev
ana:__ZNSt3__210moneypunctIwLb1EED2Ev
bna:__ZNSt3__210moneypunctIwLb0EED2Ev
cna:__ZNSt3__210moneypunctIcLb1EED2Ev
dna:__ZNSt3__210moneypunctIcLb0EED2Ev
ena:__ZNSt11logic_errorD0Ev
fna:__ZNKSt3__28numpunctIwE16do_decimal_pointEv
gna:__ZN8IMGMOUNTC2Ev
hna:__ZN7DOS_MCBC2Et
ina:__ZN7DOS_DTAC2Ej
jna:__ZN20CDROM_Interface_Fake14ChannelControlE5SCtrl
kna:__ZN16TaskStateSegment7IsValidEv
lna:__ZN16DOS_DeviceHeaderC2Ej
mna:__ZN16CContinuousEvent16GetActivityCountEv
nna:__ZN15VGA_Map_HandlerD0Ev
ona:__ZN15VGA_LFB_HandlerD0Ev
pna:__ZN15MidiHandler_ossD0Ev
qna:__ZN15InitPageHandlerD0Ev
rna:__ZN13device_MSCDEX4ReadEPhPt
sna:__ZN13Prop_multivalD0Ev
tna:__ZN13CKeyBindGroupD0Ev
una:__ZN12Virtual_File5WriteEPhPt
vna:__ZN11MidiHandler9PlaySysexEPhj
wna:__ZL16VESA_PMSetWindowv
xna:__ZNSt3__220__time_get_c_storageIwEC2Ev
yna:__ZNSt3__220__time_get_c_storageIcEC2Ev
zna:__ZNKSt3__28numpunctIcE16do_thousands_sepEv
Ana:__ZNKSt3__28numpunctIcE16do_decimal_pointEv
Bna:__ZNKSt3__26vectorI5ValueNS_9allocatorIS1_EEE8max_sizeEv
Cna:__ZNKSt3__221__basic_string_commonILb1EE20__throw_out_of_rangeEv
Dna:__ZNKSt3__221__basic_string_commonILb1EE20__throw_length_errorEv
Ena:__ZN7LOADROMC2Ev
Fna:__ZN7LOADFIXC2Ev
Gna:__ZN21CDROM_Interface_Image15LoadUnloadMediaEb
Hna:__ZN14ROMPageHandlerD0Ev
Ina:__ZN14RAMPageHandlerD0Ev
Jna:__ZN13device_MSCDEX4SeekEPjj
Kna:__ZL8read_p64jj
Lna:_strtof_l
Mna:_strtod_l
Nna:__ZNKSt3__220__vector_base_commonILb1EE20__throw_length_errorEv
Ona:__ZN6RESCANC2Ev
Pna:__ZN6CONFIGC2Ev
Qna:__ZN5DBOPL7HandlerD0Ev
Rna:__ZN20CDROM_Interface_Fake15LoadUnloadMediaEb
Sna:__ZN14DOS_ParamBlockC2Ej
Tna:__ZN12Section_propD0Ev
Una:__ZN12Section_lineD0Ev
Vna:__ZN12CSerialDummyD0Ev
Wna:__Z19CALLBACK_DeAllocatej
Xna:__Z16INT10_GetPelMaskRh
Yna:__ZNSt3__215basic_streambufIcNS_11char_traitsIcEEE9showmanycEv
Zna:__ZN5MOUNTC2Ev
_na:__ZN5MIXERC2Ev
$na:__ZN5INTROC2Ev
aoa:__ZN4OPL37HandlerD0Ev
boa:__ZN4OPL27HandlerD0Ev
coa:__ZN3LOGclEPKcdd
doa:__ZN10device_EMM4ReadEPhPt
eoa:__Z11DRIVES_InitP7Section
foa:__Z10MAPPER_Runb
goa:__ZN5Adlib6ModuleD0Ev
hoa:__ZN4WGETC2Ev
ioa:__ZN4KEYBC2Ev
joa:__ZN4BOOTC2Ev
koa:__ZN11SERIALPORTSD0Ev
loa:__ZN11Module_baseD0Ev
moa:__ZN11MidiHandlerD0Ev
noa:__ZN10device_EMM4SeekEPjj
ooa:__ZN10__cxxabiv121__isOurExceptionClassEPK17_Unwind_Exception
poa:__ZN9localFile18FlagReadOnlyMediumEv
qoa:__ZN7DOS_PSP8GetStackEv
roa:__ZN7DOS_PSP8GetInt22Ev
soa:__ZN3MEMC2Ev
toa:__ZN13Virtual_DriveD0Ev
uoa:__ZN11Module_base13Change_ConfigEP7Section
voa:__ZL8FPU_FTSTv
woa:__Z13vga_read_p3d4jj
xoa:establishStackSpace
yoa:_free
zoa:__ZNKSt3__210moneypunctIwLb1EE16do_thousands_sepEv
Aoa:__ZNKSt3__210moneypunctIwLb1EE16do_decimal_pointEv
Boa:__ZNKSt3__210moneypunctIwLb0EE16do_thousands_sepEv
Coa:__ZNKSt3__210moneypunctIwLb0EE16do_decimal_pointEv
Doa:__ZNK6Config10SecureModeEv
Eoa:__ZN7isoFile5WriteEPhPt
Foa:__ZN14CCaptionButtonD0Ev
Goa:__ZN13device_MSCDEXD0Ev
Hoa:__ZN10localDrive12GetMediaByteEv
Ioa:__ZN10device_COMD0Ev
Joa:__ZN10TANDYSOUNDD0Ev
Koa:b17
Loa:__ZNSt3__28messagesIwED2Ev
Moa:__ZNSt3__28messagesIcED2Ev
Noa:__ZNSt3__25ctypeIcE13classic_tableEv
Ooa:__ZN7DOS_SDA6GetDTAEv
Poa:__ZN20CDROM_Interface_Fake10PauseAudioEb
Qoa:__ZN12Virtual_FileD0Ev
Roa:__ZL9FPU_FUCOMjj
Soa:__ZL15IO_WriteBlockedjjj
Toa:__ZL11FPU_FST_F80j
Uoa:_isspace
Voa:__ZNSt8bad_castD0Ev
Woa:__ZNSt3__27collateIwED2Ev
Xoa:__ZNSt3__27collateIcED2Ev
Yoa:__ZNSt3__215basic_streambufIcNS_11char_traitsIcEEE4syncEv
Zoa:__ZNKSt3__27codecvtIDsc11__mbstate_tE16do_always_noconvEv
_oa:__ZNKSt3__27codecvtIDic11__mbstate_tE16do_always_noconvEv
$oa:__ZNKSt3__218__libcpp_refstring5c_strEv
apa:__ZN6Config18SwitchToSecureModeEv
bpa:__ZN5Adlib7CaptureD2Ev
cpa:__ZN13Prop_multival10GetSectionEv
dpa:__ZN13CJButtonEventD0Ev
epa:__ZN13CHandlerEventD0Ev
fpa:__ZN12CEventButtonD0Ev
gpa:__ZN12CCheckButtonD0Ev
hpa:__ZN11device_LPT1D0Ev
ipa:__ZN11Prop_stringD0Ev
jpa:__ZN10localDriveD0Ev
kpa:__ZN10cdromDriveD0Ev
lpa:__ZN10DmaChannel13Raise_RequestEv
mpa:__ZN10DmaChannel13Clear_RequestEv
npa:dynCall_vi
opa:__ZNKSt3__27codecvtIwc11__mbstate_tE16do_always_noconvEv
ppa:__ZNKSt3__27codecvtIcc11__mbstate_tE16do_always_noconvEv
qpa:__ZN5DBOPL8Operator14TemplateVolumeILNS0_5StateE0EEEiv
rpa:__ZN13CKeyBindGroup11ConfigStartEv
spa:__ZN13CHandlerEvent10ButtonNameEv
tpa:__ZN11CTextButtonD0Ev
upa:__ZN11CBindButtonD0Ev
vpa:__ZN10device_NULD0Ev
wpa:__ZN10device_EMMD0Ev
xpa:__ZN10device_COND0Ev
ypa:__ZN10DOS_DeviceD0Ev
zpa:__ZL9read_p3cejj
Apa:__ZL9read_p3ccjj
Bpa:__ZL9read_p3c8jj
Cpa:__ZL9read_p3c6jj
Dpa:__ZL16VGA_PanningLatchj
Epa:__ZN9Prop_pathD0Ev
Fpa:__ZN9PIC_8259AD0Ev
Gpa:__ZN9PCSPEAKERD0Ev
Hpa:__ZN9DOS_ShellD0Ev
Ipa:__ZN9BatchFileD0Ev
Jpa:__ZN8isoDrive12GetMediaByteEv
Kpa:__ZN8Prop_int6getMinEv
Lpa:__ZN8Prop_int6getMaxEv
Mpa:__ZN8DOS_File6IsOpenEv
Npa:__ZN7DOS_FCB8ExtendedEv
Opa:__ZN7CMscdex13GetFirstDriveEv
Ppa:__ZN6PAGINGD0Ev
Qpa:__ZN6MyFifo7isEmptyEv
Rpa:__ZN12CJButtonBindD0Ev
Spa:__ZN11CJAxisEventD0Ev
Tpa:__ZL13DOS_20Handlerv
Upa:__ZL10EA_16_07_nv_392
Vpa:__ZL10EA_16_05_nv_390
Wpa:__ZL10EA_16_04_nv_389
Xpa:__Z9read_p3c4jj
Ypa:_strcpy
Zpa:_freelocale
_pa:___lctrans
$pa:__ZNSt3__217_DeallocateCaller9__do_callEPv
aqa:__ZNKSt3__27codecvtIDsc11__mbstate_tE13do_max_lengthEv
bqa:__ZNKSt3__27codecvtIDic11__mbstate_tE13do_max_lengthEv
cqa:__ZNKSt3__25ctypeIcE8do_widenEc
dqa:__ZN9localFileD0Ev
eqa:__ZN9Prop_boolD0Ev
fqa:__ZN8fatDriveD0Ev
gqa:__ZN18GDTDescriptorTable4SLDTEv
hqa:__ZN15DescriptorTable8GetLimitEv
iqa:__ZN10CJHatEventD0Ev
jqa:__ZL10EA_16_07_nv_309
kqa:__ZL10EA_16_05_nv_307
lqa:__ZL10EA_16_04_nv_306
mqa:__Z12GFX_SetTitleiib
nqa:__ZNSt3__211char_traitsIcE12to_char_typeEi
oqa:__ZNKSt3__27codecvtIcc11__mbstate_tE13do_max_lengthEv
pqa:__ZN9imageDisk11getSectSizeEv
qqa:__ZN8isoDriveD0Ev
rqa:__ZN8SBLASTERD0Ev
sqa:__ZN8Prop_intD0Ev
tqa:__ZN8Prop_hexD0Ev
uqa:__ZN8JOYSTICKD0Ev
vqa:__ZN8HARDWARED0Ev
wqa:__ZN8AUTOEXECD0Ev
xqa:__ZN11PageHandler14GetHostWritePtEj
yqa:__ZN10CJAxisBindD0Ev
zqa:__ZL10EA_32_07_nv_416
Aqa:__ZL10EA_32_06_nv_415
Bqa:__ZL10EA_32_03_nv_412
Cqa:__ZL10EA_32_02_nv_411
Dqa:__ZL10EA_32_01_nv_410
Eqa:__ZL10EA_32_00_nv_409
Fqa:__Z16INT10_SetPelMaskh
Gqa:_zip_file_strerror
Hqa:__ZSt18uncaught_exceptionv
Iqa:__ZNSt3__211char_traitsIcE11to_int_typeEc
Jqa:__ZNKSt3__27codecvtIDsc11__mbstate_tE11do_encodingEv
Kqa:__ZNKSt3__27codecvtIDic11__mbstate_tE11do_encodingEv
Lqa:__ZNKSt3__210moneypunctIcLb1EE16do_thousands_sepEv
Mqa:__ZNKSt3__210moneypunctIcLb1EE16do_decimal_pointEv
Nqa:__ZNKSt3__210moneypunctIcLb0EE16do_thousands_sepEv
Oqa:__ZNKSt3__210moneypunctIcLb0EE16do_decimal_pointEv
Pqa:__ZN9CModEventD0Ev
Qqa:__ZN9CKeyEventD0Ev
Rqa:__ZN8IMGMOUNTD0Ev
Sqa:__ZN7isoFileD0Ev
Tqa:__ZN7fatFileD0Ev
Uqa:__ZN3CPUD0Ev
Vqa:__ZN13Virtual_Drive10FileUnlinkEPc
Wqa:__ZN11PageHandler13GetHostReadPtEj
Xqa:__ZL12CaptureMouseb
Yqa:__ZL10EA_32_07_nv_333
Zqa:__ZL10EA_32_06_nv_332
_qa:__ZL10EA_32_03_nv_329
$qa:__ZL10EA_32_02_nv_328
ara:__ZL10EA_32_01_nv_327
bra:__ZL10EA_32_00_nv_326
cra:__ZNSt3__211char_traitsIwE6lengthEPKw
dra:__ZNSt3__211char_traitsIcE6lengthEPKc
era:__ZNKSt3__27codecvtIcc11__mbstate_tE11do_encodingEv
fra:__ZN9CJHatBindD0Ev
gra:__ZN7LOADROMD0Ev
hra:__ZN7LOADFIXD0Ev
ira:__ZN7CSerial8Read_SPREv
jra:__ZN7CSerial8Read_LCREv
kra:__ZN7CButtonD0Ev
lra:__ZN3LOGclEPKcS1_
mra:__ZN3HexC2Ei
nra:__ZN2IOD0Ev
ora:__ZN20IO_WriteHandleObjectC2Ev
pra:__ZN17VGA_Empty_Handler5readbEj
qra:__ZN11MidiHandler7ListAllEP7Program
rra:__Z4pingPKc
sra:__ZNKSt3__28messagesIwE8do_closeEl
tra:__ZNKSt3__28messagesIcE8do_closeEl
ura:__ZNKSt3__218__libcpp_refstring15__uses_refcountEv
vra:__ZN8CKeyBindD0Ev
wra:__ZN6RESCAND0Ev
xra:__ZN6CONFIGD0Ev
yra:__ZN19IO_ReadHandleObjectC2Ev
zra:__ZN15CDROM_InterfaceC2Ev
Ara:__ZN13Virtual_Drive9RemoveDirEPc
Bra:__ZN11CommandLine8GetCountEv
Cra:__ZL13INT12_Handlerv
Dra:__ZL13INT11_Handlerv
Era:__ZL10EA_16_07_nv
Fra:__ZL10EA_16_05_nv
Gra:__ZL10EA_16_04_nv
Hra:b4
Ira:__ZN6MPU401D0Ev
Jra:__ZN6MEMORYD0Ev
Kra:__ZN6DISNEYD0Ev
Lra:__ZN5MOUNTD0Ev
Mra:__ZN5MIXERD0Ev
Nra:__ZN5INTROD0Ev
Ora:__ZN16CommandInterface6eventsEv
Pra:__ZN15DescriptorTable7GetBaseEv
Qra:__ZN14TSS_DescriptorC2Ev
Rra:__Z14CPU_SIDT_limitv
Sra:__Z14CPU_SGDT_limitv
Tra:__Z10GetKeyCode10SDL_Keysym
Ura:__zip_progress_end
Vra:__ZNKSt3__210moneypunctIwLb1EE14do_frac_digitsEv
Wra:__ZNKSt3__210moneypunctIwLb0EE14do_frac_digitsEv
Xra:__ZNKSt3__210moneypunctIcLb1EE14do_frac_digitsEv
Yra:__ZNKSt3__210moneypunctIcLb0EE14do_frac_digitsEv
Zra:__ZN8Property9getChangeEv
_ra:__ZN7DOS_PSP10GetSegmentEv
$ra:__ZN4WGETD0Ev
asa:__ZN4KEYBD0Ev
bsa:__ZN4BOOTD0Ev
csa:__ZN13Virtual_Drive7MakeDirEPc
dsa:__ZL13END_DMA_Eventj
esa:__ZL10EA_32_07_nv
fsa:__ZL10EA_32_06_nv
gsa:__ZL10EA_32_03_nv
hsa:__ZL10EA_32_02_nv
isa:__ZL10EA_32_01_nv
jsa:__ZL10EA_32_00_nv
ksa:_zip_strerror
lsa:_strtold
msa:___emscripten_environ_constructor
nsa:___cxx_global_var_init_464
osa:__ZN8Property8Get_typeEv
psa:__ZN5TIMERD0Ev
qsa:__ZN5Adlib7HandlerC2Ev
rsa:__ZN5Adlib5Timer4StopEv
ssa:__ZN3MEMD0Ev
tsa:__Z28SecondDMAControllerAvailablev
usa:__Z13CPU_SIDT_basev
vsa:__Z13CPU_SGDT_basev
wsa:__GLOBAL__sub_I_js_dos_asyncify_cpp
xsa:_strtof
ysa:_strtod
zsa:__ZNSt3__211char_traitsIwE11to_int_typeEw
Asa:__ZN8DOS_File8GetDriveEv
Bsa:__ZN8DOS_File7GetNameEv
Csa:__ZN7CMscdex12GetNumDrivesEv
Dsa:__ZN3LOGclEPKcd
Esa:__ZN15CStickBindGroup11ConfigStartEv
Fsa:__ZN11Module_baseD2Ev
Gsa:_zError
Hsa:_isxdigit_l
Isa:__ZNK8Property17Get_Default_ValueEv
Jsa:__ZN6CEvent8GetValueEv
Ksa:__ZN4MIDID0Ev
Lsa:__ZN4CMOSD0Ev
Msa:__ZN4BIOSD0Ev
Nsa:__ZN21CDROM_Interface_Image9TrackFileD0Ev
Osa:__ZN15DOS_Drive_Cache8GetLabelEv
Psa:__ZN12CSerialDummy8setBreakEb
Qsa:__ZL8overheadv
Rsa:__Z4trimPc
Ssa:_zip_error_code_system
Tsa:__ZNSt8bad_castC2Ev
Usa:__ZN4OPL312operator_offEPNS_15operator_structE
Vsa:__ZN4OPL212operator_offEPNS_15operator_structE
Wsa:__ZN11MidiHandler7PlayMsgEPh
Xsa:__ZN11MidiHandler4OpenEPKc
Ysa:__Z17XMS_GetEnabledA20v
Zsa:__Z14DOSBOX_SetLoopPFjvE
_sa:__GLOBAL__sub_I_shell_misc_cpp
$sa:_isdigit_l
ata:_isalpha
bta:__ZN3XMSD0Ev
cta:__ZN3GUSD0Ev
dta:__ZN3EMSD0Ev
eta:__ZN3DOSD0Ev
fta:__ZN3DMAD0Ev
gta:__ZN3CMSD0Ev
hta:__ZN12CSerialDummy6setRTSEb
ita:__ZN12CSerialDummy6setDTREb
jta:__Z13isNormalStatev
kta:_copysignl
lta:__ZSt19uncaught_exceptionsv
mta:__ZN13device_MSCDEX14GetInformationEv
nta:__ZN10device_COMD2Ev
ota:__GLOBAL__sub_I_programs_cpp
pta:__GLOBAL__sub_I_hardware_cpp
qta:_scalbnl
rta:__ZNK10__cxxabiv116__shim_type_info5noop2Ev
sta:__ZNK10__cxxabiv116__shim_type_info5noop1Ev
tta:__ZN21CDROM_Interface_Image12InitNewMediaEv
uta:__ZL9FPU_FCLEXv
vta:__ZL14IO_ReadBlockedjj
wta:__Z8CPU_SLDTv
xta:dynCall_i
yta:b16
zta:__ZN8isoDriveD2Ev
Ata:__ZN11device_LPT114GetInformationEv
Bta:__ZN11MixerObjectC2Ev
Cta:__ZL9read_p3c8jj_3003
Dta:__ZL8ClrQueuev
Eta:__Z22SVGA_S3_HWCursorActivev
Fta:__Z15DMA_SetWrappingj
Gta:__Z12DOS_SetErrort
Hta:__GLOBAL__sub_I_drives_cpp
Ita:_ldexp
Jta:__zip_buffer_data
Kta:__ZN8DOS_File22UpdateDateTimeFromHostEv
Lta:__ZN6Events5readyEv
Mta:__ZN5ValueD2Ev
Nta:__ZN21CDROM_Interface_Image9TrackFileD2Ev
Ota:__ZN10device_NUL14GetInformationEv
Pta:__ZN10device_EMM14GetInformationEv
Qta:__ZN10device_COM14GetInformationEv
Rta:__ZL19Mouse_ResetHardwarev
Sta:__Z8FPU_InitP7Section
Tta:__GLOBAL__sub_I_setup_cpp
Uta:__zip_source_eof
Vta:___cxa_guard_abort
Wta:__ZNSt3__212__cxx03_bool12__true_valueEv
Xta:__ZN8isoDrive8GetLabelEv
Yta:__ZN7fatFile22UpdateDateTimeFromHostEv
Zta:__ZN20CDROM_Interface_Fake9StopAudioEv
_ta:__ZN16CContinuousEvent14RepostActivityEv
$ta:__ZL18TandyDACDMAEnabledv
aua:b14
bua:_zip_error_code_zip
cua:_end_of_input
dua:__ZNSt3__221__throw_runtime_errorEPKc
eua:__ZN12Virtual_File14GetInformationEv
fua:_pthread_cond_wait
gua:_isupper
hua:_isprint
iua:_islower
jua:_isdigit
kua:__ZNK8Property9GetValuesEv
lua:__ZN15MidiHandler_oss7GetNameEv
mua:__ZN13Virtual_Drive12GetMediaByteEv
nua:__ZN13CKeyBindGroup9BindStartEv
oua:__ZN10__cxxabiv116__shim_type_infoD2Ev
pua:__Z26CPU_Disable_SkipAutoAdjustv
qua:__Z13initSyncSleepv
rua:__GLOBAL__sub_I_cpu_cpp
sua:_zcfree
tua:___cxx_global_var_init_5
uua:___cxx_global_var_init_39
vua:__ZNK8Property8GetValueEv
wua:__ZN7IO_BaseC2Ev
xua:__ZN15CDROM_Interface12InitNewMediaEv
yua:__Z14registerSendFnv
zua:_fmodl
Aua:__ZN9DOS_Drive7GetInfoEv
Bua:__ZN16CContinuousEvent9IsTriggerEv
Cua:__ZN13Virtual_Drive11isRemovableEv
Dua:__ZL9read_p3cajj
Eua:__Z15MEM_A20_Enabledv
Fua:__ZN15CTriggeredEvent9IsTriggerEv
Gua:__Z14MIDI_Availablev
Hua:_destroySyncSleep
Iua:__zip_buffer_ok
Jua:__ZNK3HexcviEv
Kua:__ZN3HexC2Ev
Lua:__ZN11MidiHandler7GetNameEv
Mua:__Z23DOS_GetMemAllocStrategyv
Nua:__Z15GFX_LosingFocusv
Oua:b3
Pua:_catopen
Qua:__ZN7isoFile14GetInformationEv
Rua:__ZN6CEvent7GetNameEv
Sua:__ZN13Virtual_Drive10EmptyCacheEv
Tua:__ZN10localDrive11isRemovableEv
Uua:__ZN10cdromDrive11isRemovableEv
Vua:__Z21DestroyConditionFlagsv
Wua:__Z20DOSBOX_SetNormalLoopv
Xua:__ZN7fatFile14GetInformationEv
Yua:__ZN3LOGclEPKc
Zua:__ZN16CContinuousEventD0Ev
_ua:__ZN13Virtual_Drive8isRemoteEv
$ua:__ZL23RENDER_EmptyLineHandlerPKv
ava:__ZN15CTriggeredEventD0Ev
bva:__ZN15CDROM_InterfaceD0Ev
cva:__ZN13Virtual_Drive7UnMountEv
dva:dynCall_v
eva:__ZNSt3__214__shared_countD2Ev
fva:__ZNKSt8bad_cast4whatEv
gva:__ZN8isoDrive11isRemovableEv
hva:__ZN8fatDrive11isRemovableEv
iva:__ZN7CMscdex10GetVersionEv
jva:__ZN12CSerialDummy9updateMSREv
kva:_zip_source_error
lva:__ZN13device_MSCDEX5CloseEv
mva:__ZN10localDrive8isRemoteEv
nva:__ZN10cdromDrive8isRemoteEv
ova:___emscripten_stdout_close
pva:__ZN5Adlib7HandlerD0Ev
qva:__ZN12Virtual_File5CloseEv
rva:__Z26INT10_EGA_RIL_GetVersionPtv
sva:__ZNSt3__26locale5facetD2Ev
tva:__ZNSt3__212__do_nothingEPv
uva:__ZN8isoDrive10EmptyCacheEv
vva:setEmtStackMax
wva:__ZN8isoDrive8isRemoteEv
xva:__ZN8fatDrive8isRemoteEv
yva:__ZN10device_NUL5CloseEv
zva:__ZN10device_EMM5CloseEv
Ava:__ZN10device_CON5CloseEv
Bva:__ZN10device_COM5CloseEv
Cva:__ZN10CBindGroupD0Ev
Dva:__Z17PAGING_GetDirBasev
Eva:emtStackRestore
Fva:_pthread_cond_broadcast
Gva:__ZN9DOS_Drive8ActivateEv
Hva:__ZN15CDROM_InterfaceD2Ev
Iva:__ZN11MidiHandler5CloseEv
Jva:__ZL10MIXER_StopP7Section
Kva:b15
Lva:_pkware_free
Mva:___ofl_lock
Nva:__ZN9DOS_DriveD0Ev
Ova:__ZN7CButton9BindColorEv
Pva:__Z14MEM_TotalPagesv
Qva:_pthread_mutex_unlock
Rva:_deallocate
Sva:___pthread_self_750
Tva:___pthread_self_606
Uva:___pthread_self_457
Vva:___pthread_self_254
Wva:___pthread_self_250
Xva:___pthread_self_247
Yva:___pthread_self_240
Zva:___pthread_self_204
_va:__ZN8PropertyD0Ev
$va:__ZN8DOS_FileD0Ev
awa:__Z10MapSDLCodej
bwa:setAsyncState
cwa:__ZN7SectionD0Ev
dwa:__ZN7ProgramD0Ev
ewa:__ZN7CSerialD0Ev
fwa:__ZN5Adlib7HandlerD2Ev
gwa:_pthread_mutex_lock
hwa:__Znam
iwa:__ZdaPv
jwa:__ZN6CEventD0Ev
kwa:__ZN11PageHandlerD2Ev
lwa:__ZN11MidiHandlerD2Ev
mwa:__ZNSt9type_infoD2Ev
nwa:__ZNSt9exceptionD2Ev
owa:__ZN7CButton5ClickEv
pwa:__ZN5CBindD0Ev
qwa:__ZN10CBindGroupD2Ev
rwa:stackRestore
swa:___ofl_unlock
twa:__ZdlPv
uwa:__ZNSt8bad_castD2Ev
vwa:__ZNSt3__211char_traitsIwE3eofEv
wwa:__ZNSt3__211char_traitsIcE3eofEv
xwa:__Z9GFX_Startv
ywa:_emscripten_get_sbrk_ptr
zwa:__Z8CPU_SMSWv
Awa:getEmtStackMax
Bwa:___cxa_get_globals_fast
Cwa:__ZN7CButtonD2Ev
Dwa:__Z7CPU_STRv
Ewa:b1
Fwa:_dummy
Gwa:___unlockfile
Hwa:___lockfile
Iwa:emtStackSave
Jwa:___cxa_uncaught_exceptions
Kwa:_catclose
Lwa:___ctype_toupper_loc
Mwa:___ctype_tolower_loc
Nwa:__ZSt17__throw_bad_allocv
Owa:___errno_location
Pwa:___em_js__syncSleep
Qwa:__ZL17shellstop_handlerv
Rwa:__ZSt15get_new_handlerv
Swa:__ZSt13get_terminatev
Twa:__ZL15DOS_CaseMapFuncv
Uwa:__get_timezone
Vwa:__get_daylight
Wwa:stackSave
Xwa:b13
Ywa:__get_environ
Zwa:__ZL13INT2A_Handlerv
_wa:__ZL13INT1C_Handlerv
$wa:__get_tzname
axa:___ctype_b_loc
bxa:__ZL12stop_handlerv
cxa:_pthread_self
dxa:b0
exa:_dummy_852
fxa:b12
