a:HEAP8
b:HEAP16
c:HEAP32
d:HEAPU8
e:HEAPU16
f:HEAPU32
g:HEAPF32
h:HEAPF64
i:tempDoublePtr
j:EMTSTACKTOP
k:EMT_STACK_MAX
l:eb
m:__THREW__
n:threwValue
o:setjmpId
p:tempInt
q:tempBigInt
r:tempBigIntS
s:tempValue
t:tempDouble
u:nan
v:inf
w:Math_floor
x:Math_abs
y:Math_sqrt
z:Math_pow
A:Math_cos
B:Math_sin
C:Math_tan
D:Math_acos
E:Math_asin
F:Math_atan
G:Math_atan2
H:Math_exp
I:Math_log
J:Math_ceil
K:Math_imul
L:Math_min
M:Math_max
N:Math_clz32
O:abort
P:setTempRet0
Q:getTempRet0
R:abortStackOverflowEmterpreter
S:_SDL_AudioQuit
T:_SDL_CloseAudio
U:_SDL_CreateRGBSurface
V:_SDL_Delay
W:_SDL_FillRect
X:_SDL_Flip
Y:_SDL_FreeSurface
Z:_SDL_GetError
_:_SDL_GetKeyName
$:_SDL_GetModState
aa:_SDL_GetTicks
ba:_SDL_GetVideoInfo
ca:_SDL_Init
da:_SDL_InitSubSystem
ea:_SDL_JoystickClose
fa:_SDL_JoystickEventState
ga:_SDL_JoystickGetAxis
ha:_SDL_JoystickGetButton
ia:_SDL_JoystickGetHat
ja:_SDL_JoystickName
ka:_SDL_JoystickNumAxes
la:_SDL_JoystickNumButtons
ma:_SDL_JoystickNumHats
na:_SDL_JoystickOpen
oa:_SDL_JoystickUpdate
pa:_SDL_LockAudio
qa:_SDL_LockSurface
ra:_SDL_MapRGB
sa:_SDL_NumJoysticks
ta:_SDL_OpenAudio
ua:_SDL_PauseAudio
va:_SDL_PollEvent
wa:_SDL_Quit
xa:_SDL_SetAlpha
ya:_SDL_SetColors
za:_SDL_SetPalette
Aa:_SDL_SetVideoMode
Ba:_SDL_ShowCursor
Ca:_SDL_UnlockAudio
Da:_SDL_UnlockSurface
Ea:_SDL_UpperBlit
Fa:_SDL_VideoModeOK
Ga:_SDL_WM_GrabInput
Ha:_SDL_WM_SetCaption
Ia:_SDL_WaitEvent
Ja:___assert_fail
Ka:___buildEnvironment
La:___cxa_allocate_exception
Ma:___cxa_begin_catch
Na:___cxa_throw
Oa:___exception_addRef
Pa:___exception_deAdjust
Qa:___gxx_personality_v0
Ra:___lock
Sa:___map_file
Ta:___setErrNo
Ua:___syscall10
Va:___syscall15
Wa:___syscall183
Xa:___syscall194
Ya:___syscall195
Za:___syscall197
_a:___syscall20
$a:___syscall220
ab:___syscall221
bb:___syscall33
cb:___syscall38
db:___syscall39
eb:___syscall4
fb:___syscall40
gb:___syscall5
hb:___syscall54
ib:___syscall60
jb:___syscall91
kb:___unlock
lb:___wasi_fd_close
mb:___wasi_fd_fdstat_get
nb:___wasi_fd_read
ob:___wasi_fd_seek
pb:___wasi_fd_write
qb:__addDays
rb:__arraySum
sb:__emscripten_syscall_munmap
tb:__fillMouseEventData
ub:__fillPointerlockChangeEventData
vb:__findEventTarget
wb:__isLeapYear
xb:__registerMouseEventCallback
yb:__registerPointerlockChangeEventCallback
zb:__requestPointerLock
Ab:_abort
Bb:_clock_gettime
Cb:_emscripten_asm_const_i
Db:_emscripten_asm_const_ii
Eb:_emscripten_asm_const_iii
Fb:_emscripten_cancel_main_loop
Gb:_emscripten_exit_pointerlock
Hb:_emscripten_fetch
Ib:_emscripten_fetch_attr_init
Jb:_emscripten_fetch_close
Kb:_emscripten_force_exit
Lb:_emscripten_get_heap_size
Mb:_emscripten_get_now
Nb:_emscripten_get_now_is_monotonic
Ob:_emscripten_get_pointerlock_status
Pb:_emscripten_memcpy_big
Qb:_emscripten_request_pointerlock
Rb:_emscripten_resize_heap
Sb:_emscripten_set_main_loop
Tb:_emscripten_set_main_loop_timing
Ub:_emscripten_set_mousedown_callback_on_thread
Vb:_emscripten_set_pointerlockchange_callback_on_thread
Wb:_emscripten_sleep
Xb:_emscripten_sleep_with_yield
Yb:_execl
Zb:_execlp
_b:_execvp
$b:_exit
ac:_fd_close
bc:_fd_fdstat_get
cc:_fd_read
dc:_fd_seek
ec:_fd_write
fc:_getenv
gc:_getpwnam
hc:_llvm_exp2_f32
ic:_llvm_exp2_f64
jc:_llvm_stackrestore
kc:_llvm_stacksave
lc:_llvm_trap
mc:_localtime
nc:_localtime_r
oc:_mktime
pc:_putenv
qc:_strftime
rc:_strftime_l
sc:_syncSleep
tc:_time
uc:_tzset
vc:abortOnCannotGrowMemory
wc:demangle
xc:demangleAll
yc:jsStackTrace
zc:stackTrace
Ac:STACKTOP
Bc:STACK_MAX
Cc:tempFloat
Dc:asyncState
Ec:FUNCTION_TABLE_i
Fc:FUNCTION_TABLE_ii
Gc:FUNCTION_TABLE_iidiiii
Hc:FUNCTION_TABLE_iii
Ic:FUNCTION_TABLE_iiii
Jc:FUNCTION_TABLE_iiiii
Kc:FUNCTION_TABLE_iiiiid
Lc:FUNCTION_TABLE_iiiiii
Mc:FUNCTION_TABLE_iiiiiid
Nc:FUNCTION_TABLE_iiiiiii
Oc:FUNCTION_TABLE_iiiiiiii
Pc:FUNCTION_TABLE_iiiiiiiii
Qc:FUNCTION_TABLE_v
Rc:FUNCTION_TABLE_vi
Sc:FUNCTION_TABLE_vidi
Tc:FUNCTION_TABLE_vii
Uc:FUNCTION_TABLE_viii
Vc:FUNCTION_TABLE_viiii
Wc:FUNCTION_TABLE_viiiii
Xc:FUNCTION_TABLE_viiiiii
Yc:emterpret
Zc:__Z19CPU_Core_Simple_Runv
_c:__Z19CPU_Core_Normal_Runv
$c:__Z21CPU_Core_Prefetch_Runv
ad:__Z7Hq3x_32PjS_S_PKj
bd:__Z7Hq3x_16PtS_S_PKt
cd:__Z7Hq2x_32PjS_PKj
dd:__Z17CPU_Core_Full_Runv
ed:__Z7Hq2x_16PtS_PKt
fd:__Z11DOSBOX_Initv
gd:__ZN12_GLOBAL__N_116itanium_demangle22AbstractManglingParserINS0_14ManglingParserINS_16DefaultAllocatorEEES3_E9parseExprEv
hd:__ZN6CONFIG3RunEv
id:_inflate
jd:__ZL13DOS_21Handlerv
kd:__ZN4OPL315adlib_getsampleEPsi
ld:_deflate
md:__ZN8IMGMOUNT3RunEv
nd:__ZNSt3__29money_getIcNS_19istreambuf_iteratorIcNS_11char_traitsIcEEEEE8__do_getERS4_S4_bRKNS_6localeEjRjRbRKNS_5ctypeIcEERNS_10unique_ptrIcPFvPvEEERPcSM_
od:__ZNSt3__29money_getIwNS_19istreambuf_iteratorIwNS_11char_traitsIwEEEEE8__do_getERS4_S4_bRKNS_6localeEjRjRbRKNS_5ctypeIwEERNS_10unique_ptrIwPFvPvEEERPwSM_
pd:__ZL13INT10_Handlerv
qd:__ZN5MOUNT3RunEv
rd:__ZN3CPU13Change_ConfigEP7Section
sd:__Z18INT10_SetVideoModet
td:__Z9FillFlagsv
ud:__ZN12_GLOBAL__N_116itanium_demangle22AbstractManglingParserINS0_14ManglingParserINS_16DefaultAllocatorEEES3_E9parseTypeEv
vd:__ZL16AdvInterp3x_16_Rv
wd:__ZL16AdvInterp3x_16_Lv
xd:__ZL16AdvInterp3x_15_Rv
yd:__ZL16AdvInterp3x_15_Lv
zd:__ZN12_GLOBAL__N_116itanium_demangle22AbstractManglingParserINS0_14ManglingParserINS_16DefaultAllocatorEEES3_E13parseFoldExprEv
Ad:__ZL16AdvInterp3x_32_Rv
Bd:__ZL16AdvInterp3x_32_Lv
Cd:__ZN12_GLOBAL__N_116itanium_demangle22AbstractManglingParserINS0_14ManglingParserINS_16DefaultAllocatorEEES3_E17parseOperatorNameEPNS5_9NameStateE
Dd:__ZNSt3__212__next_primeEm
Ed:__ZN8AUTOEXECC2EP7Section
Fd:__ZN21CDROM_Interface_Image12LoadCueSheetEPc
Gd:__ZL14AdvMame3x_16_Rv
Hd:__ZL14AdvMame3x_16_Lv
Id:__ZL13AdvMame3x_8_Rv
Jd:__ZL13AdvMame3x_8_Lv
Kd:__ZL14AdvMame3x_32_Rv
Ld:__ZL14AdvMame3x_32_Lv
Md:__ZL11GUI_StartUpP7Section
Nd:_vfscanf
Od:__Z19CALLBACK_SetupExtrajjjb
Pd:__Z16VGA_SetupDrawingj
Qd:__ZN4BOOT3RunEv
Rd:__Z15FillFlagsNoCFOFv
Sd:__ZN4OPL215adlib_getsampleEPsi
Td:__Z11RENDER_InitP7Section
Ud:__Z11DOS_ExecutePcjh
Vd:__ZL13DSP_DoCommandv
Wd:__ZN12_GLOBAL__N_116itanium_demangle22AbstractManglingParserINS0_14ManglingParserINS_16DefaultAllocatorEEES3_E16parseExprPrimaryEv
Xd:_build_tree
Yd:__ZN9DOS_Shell8CMD_COPYEPc
Zd:__Z14Config_Add_SDLv
_d:__ZL13INT67_Handlerv
$d:_printf_core
ae:__tr_flush_block
be:_fmt_fp
ce:__ZL12CreateLayoutv
de:__ZL16AdvInterp2x_16_Rv
ee:_decfloat
fe:__ZL16AdvInterp2x_15_Rv
ge:__ZL16AdvInterp2x_16_Lv
he:__ZL16AdvInterp2x_15_Lv
ie:__ZL16AdvInterp2x_32_Rv
je:__Z20INT10_SetupRomMemoryv
ke:_main
le:__ZL16AdvInterp2x_32_Lv
me:__ZN15keyboard_layout18read_keyboard_fileEPKcii
ne:__ZL16GenerateDMASoundj
oe:__ZN9DOS_Shell7CMD_DIREPc
pe:__ZNSt3__211__money_putIcE13__gather_infoEbbRKNS_6localeERNS_10money_base7patternERcS8_RNS_12basic_stringIcNS_11char_traitsIcEENS_9allocatorIcEEEESF_SF_Ri
qe:__ZN10device_CON5WriteEPhPt
re:__ZNSt3__211__money_putIwE13__gather_infoEbbRKNS_6localeERNS_10money_base7patternERwS8_RNS_12basic_stringIcNS_11char_traitsIcEENS_9allocatorIcEEEERNS9_IwNSA_IwEENSC_IwEEEESJ_Ri
se:_deflate_slow
te:__ZN3GUSC2EP7Section
ue:__ZN12_GLOBAL__N_116itanium_demangle22AbstractManglingParserINS0_14ManglingParserINS_16DefaultAllocatorEEES3_E16parseSpecialNameEv
ve:__ZNKSt3__28time_getIwNS_19istreambuf_iteratorIwNS_11char_traitsIwEEEEE6do_getES4_S4_RNS_8ios_baseERjP2tmcc
we:__ZNKSt3__28time_getIcNS_19istreambuf_iteratorIcNS_11char_traitsIcEEEEE6do_getES4_S4_RNS_8ios_baseERjP2tmcc
xe:__ZNSt3__211__money_getIcE13__gather_infoEbRKNS_6localeERNS_10money_base7patternERcS8_RNS_12basic_stringIcNS_11char_traitsIcEENS_9allocatorIcEEEESF_SF_SF_Ri
ye:__ZNSt3__211__money_getIwE13__gather_infoEbRKNS_6localeERNS_10money_base7patternERwS8_RNS_12basic_stringIcNS_11char_traitsIcEENS_9allocatorIcEEEERNS9_IwNSA_IwEENSC_IwEEEESJ_SJ_Ri
ze:__ZL8DoString9STRING_OP
Ae:__ZL8DoString9STRING_OP_377
Be:__ZL8DoString9STRING_OP_288
Ce:_inflate_table
De:__Z9DOS_IOCTLv
Ee:__ZL13INT33_Handlerv
Fe:__zip_dirent_write
Ge:__ZN12_GLOBAL__N_116itanium_demangle22AbstractManglingParserINS0_14ManglingParserINS_16DefaultAllocatorEEES3_E15parseNestedNameEPNS5_9NameStateE
He:_zip_close
Ie:_read_file
Je:__ZN4OPL311adlib_writeEjh
Ke:_inflate_fast
Le:_add_data
Me:__ZL13INT15_Handlerv
Ne:__zip_dirent_read
Oe:___intscan
Pe:__ZN5DBOPL7Channel13BlockTemplateILNS_9SynthModeE11EEEPS0_PNS_4ChipEjPi
Qe:_deflate_fast
Re:__ZN5DBOPL7Channel13BlockTemplateILNS_9SynthModeE10EEEPS0_PNS_4ChipEjPi
Se:__Z15KEYBOARD_AddKey8KBD_KEYSb
Te:_realloc
Ue:__ZN4BIOSC2EP7Section
Ve:__ZL14AdvMame2x_16_Rv
We:__ZNKSt3__28time_getIcNS_19istreambuf_iteratorIcNS_11char_traitsIcEEEEE3getES4_S4_RNS_8ios_baseERjP2tmPKcSC_
Xe:__ZL13AdvMame2x_8_Rv
Ye:__Z8CPU_IRETbj
Ze:__ZL14AdvMame2x_32_Rv
_e:__ZNKSt3__28time_getIwNS_19istreambuf_iteratorIwNS_11char_traitsIwEEEEE3getES4_S4_RNS_8ios_baseERjP2tmPKwSC_
$e:__ZN12_GLOBAL__N_116itanium_demangle22AbstractManglingParserINS0_14ManglingParserINS_16DefaultAllocatorEEES3_E17parseFunctionTypeEv
af:__ZN8SBLASTERC2EP7Section
bf:__ZL14AdvMame2x_16_Lv
cf:_send_tree
df:__ZL13AdvMame2x_8_Lv
ef:__ZL14AdvMame2x_32_Lv
ff:__ZL12RENDER_Resetv
gf:__ZN9DOS_Shell7ExecuteEPcS0_
hf:__ZL16MPU401_WriteDatajjj
jf:__ZL22DOS_MultiplexFunctionsv
kf:__ZN12_GLOBAL__N_116itanium_demangle22AbstractManglingParserINS0_14ManglingParserINS_16DefaultAllocatorEEES3_E19parseUnresolvedNameEv
lf:__ZL11V86_Monitorv
mf:__Z21INT10_VideoState_Savejj
nf:__ZN9DOS_Shell9CMD_CHDIREPc
of:__ZN11GUSChannels15generateSamplesEPij
pf:__ZL15DOSBOX_RealInitP7Section
qf:__Z14CPU_SwitchTaskj11TSwitchTypej
rf:__Z9_2xSaI_16PtS_PKt
sf:__ZL12IRQ1_Handlerv
tf:__Z8CPU_CALLbjjj
uf:__ZL17INT13_DiskHandlerv
vf:__zip_read_cdir
wf:__Z12DOS_MakeNamePKcPcPh
xf:__ZN11CommandLine21FindStringRemainBeginEPKcRNSt3__212basic_stringIcNS2_11char_traitsIcEENS2_9allocatorIcEEEE
yf:__ZNK6Config11PrintConfigEPKc
zf:__Z13CPU_Interruptjjj
Af:_hexfloat
Bf:__ZN5Adlib6ModuleC2EP7Section
Cf:__ZL18MSCDEX_IOCTL_Inputjh
Df:__ZL12cmos_readregjj
Ef:__Z24INT10_SetVideoMode_OTHERtb
Ff:__Z24INT10_VideoState_Restorejj
Gf:__ZNSt3__220__get_up_to_n_digitsIcNS_19istreambuf_iteratorIcNS_11char_traitsIcEEEEEEiRT0_S5_RjRKNS_5ctypeIT_EEi
Hf:__ZN10TANDYSOUNDC2EP7Section
If:__ZN5DBOPL7Channel13BlockTemplateILNS_9SynthModeE8EEEPS0_PNS_4ChipEjPi
Jf:__ZN8fatDriveC2EPKcjjjjj
Kf:__Z9_2xSaI_32PjS_PKj
Lf:__Z27VESA_GetSVGAModeInformationttt
Mf:__ZNKSt3__27num_getIwNS_19istreambuf_iteratorIwNS_11char_traitsIwEEEEE17__do_get_unsignedIyEES4_S4_S4_RNS_8ios_baseERjRT_
Nf:__ZNKSt3__27num_getIcNS_19istreambuf_iteratorIcNS_11char_traitsIcEEEEE17__do_get_unsignedIyEES4_S4_S4_RNS_8ios_baseERjRT_
Of:__ZL18CreateDefaultBindsv
Pf:__ZNKSt3__27num_getIwNS_19istreambuf_iteratorIwNS_11char_traitsIwEEEEE15__do_get_signedIxEES4_S4_S4_RNS_8ios_baseERjRT_
Qf:__ZNKSt3__27num_getIcNS_19istreambuf_iteratorIcNS_11char_traitsIcEEEEE15__do_get_signedIxEES4_S4_S4_RNS_8ios_baseERjRT_
Rf:__ZNKSt3__27num_getIwNS_19istreambuf_iteratorIwNS_11char_traitsIwEEEEE23__do_get_floating_pointIfEES4_S4_S4_RNS_8ios_baseERjRT_
Sf:__ZNKSt3__27num_getIwNS_19istreambuf_iteratorIwNS_11char_traitsIwEEEEE23__do_get_floating_pointIeEES4_S4_S4_RNS_8ios_baseERjRT_
Tf:__ZNKSt3__27num_getIwNS_19istreambuf_iteratorIwNS_11char_traitsIwEEEEE23__do_get_floating_pointIdEES4_S4_S4_RNS_8ios_baseERjRT_
Uf:__ZNKSt3__27num_getIcNS_19istreambuf_iteratorIcNS_11char_traitsIcEEEEE23__do_get_floating_pointIfEES4_S4_S4_RNS_8ios_baseERjRT_
Vf:__ZNKSt3__27num_getIcNS_19istreambuf_iteratorIcNS_11char_traitsIcEEEEE23__do_get_floating_pointIeEES4_S4_S4_RNS_8ios_baseERjRT_
Wf:__ZNKSt3__27num_getIcNS_19istreambuf_iteratorIcNS_11char_traitsIcEEEEE23__do_get_floating_pointIdEES4_S4_S4_RNS_8ios_baseERjRT_
Xf:_window_read
Yf:__ZNKSt3__27num_getIwNS_19istreambuf_iteratorIwNS_11char_traitsIwEEEEE17__do_get_unsignedItEES4_S4_S4_RNS_8ios_baseERjRT_
Zf:__ZNKSt3__27num_getIwNS_19istreambuf_iteratorIwNS_11char_traitsIwEEEEE17__do_get_unsignedImEES4_S4_S4_RNS_8ios_baseERjRT_
_f:__ZNKSt3__27num_getIwNS_19istreambuf_iteratorIwNS_11char_traitsIwEEEEE17__do_get_unsignedIjEES4_S4_S4_RNS_8ios_baseERjRT_
$f:__ZNKSt3__27num_getIcNS_19istreambuf_iteratorIcNS_11char_traitsIcEEEEE17__do_get_unsignedItEES4_S4_S4_RNS_8ios_baseERjRT_
ag:__ZNKSt3__27num_getIcNS_19istreambuf_iteratorIcNS_11char_traitsIcEEEEE17__do_get_unsignedImEES4_S4_S4_RNS_8ios_baseERjRT_
bg:__ZNKSt3__27num_getIcNS_19istreambuf_iteratorIcNS_11char_traitsIcEEEEE17__do_get_unsignedIjEES4_S4_S4_RNS_8ios_baseERjRT_
cg:__ZNKSt3__27num_getIwNS_19istreambuf_iteratorIwNS_11char_traitsIwEEEEE15__do_get_signedIlEES4_S4_S4_RNS_8ios_baseERjRT_
dg:__ZNKSt3__27num_getIcNS_19istreambuf_iteratorIcNS_11char_traitsIcEEEEE15__do_get_signedIlEES4_S4_S4_RNS_8ios_baseERjRT_
eg:__ZL13CTMIXER_Writeh
fg:_compress_block
gg:__ZNKSt3__27num_getIwNS_19istreambuf_iteratorIwNS_11char_traitsIwEEEEE6do_getES4_S4_RNS_8ios_baseERjRPv
hg:__ZNKSt3__27num_getIcNS_19istreambuf_iteratorIcNS_11char_traitsIcEEEEE6do_getES4_S4_RNS_8ios_baseERjRPv
ig:__Z10SHELL_Initv
jg:_crc_read
kg:__ZN12_GLOBAL__N_116itanium_demangle22AbstractManglingParserINS0_14ManglingParserINS_16DefaultAllocatorEEES3_E13parseEncodingEv
lg:__ZNSt3__220__get_up_to_n_digitsIwNS_19istreambuf_iteratorIwNS_11char_traitsIwEEEEEEiRT0_S5_RjRKNS_5ctypeIT_EEi
mg:__ZN5DBOPL7Channel13BlockTemplateILNS_9SynthModeE6EEEPS0_PNS_4ChipEjPi
ng:__ZN5DBOPL7Channel13BlockTemplateILNS_9SynthModeE7EEEPS0_PNS_4ChipEjPi
og:__ZNSt3__214__scan_keywordINS_19istreambuf_iteratorIcNS_11char_traitsIcEEEEPKNS_12basic_stringIcS3_NS_9allocatorIcEEEENS_5ctypeIcEEEET0_RT_SE_SD_SD_RKT1_Rjb
pg:__ZNSt3__214__scan_keywordINS_19istreambuf_iteratorIwNS_11char_traitsIwEEEEPKNS_12basic_stringIwS3_NS_9allocatorIwEEEENS_5ctypeIwEEEET0_RT_SE_SD_SD_RKT1_Rjb
qg:__ZN7CMscdex8AddDriveEtPcRh
rg:__ZNSt3__26locale5__impC2Em
sg:__Z17SVGA_S3_WriteCRTCjjj
tg:__Z13Super2xSaI_16PtS_PKt
ug:__ZN4OPL211adlib_writeEjh
vg:__Z14INT10_PutPixeltthh
wg:__ZL14MSCDEX_Handlerv
xg:__ZN5DBOPL7Channel13BlockTemplateILNS_9SynthModeE5EEEPS0_PNS_4ChipEjPi
yg:__ZNSt3__211__money_putIwE8__formatEPwRS2_S3_jPKwS5_RKNS_5ctypeIwEEbRKNS_10money_base7patternEwwRKNS_12basic_stringIcNS_11char_traitsIcEENS_9allocatorIcEEEERKNSE_IwNSF_IwEENSH_IwEEEESQ_i
zg:__ZNSt3__211__money_putIcE8__formatEPcRS2_S3_jPKcS5_RKNS_5ctypeIcEEbRKNS_10money_base7patternEccRKNS_12basic_stringIcNS_11char_traitsIcEENS_9allocatorIcEEEESL_SL_i
Ag:_mbsrtowcs
Bg:_deflate_stored
Cg:__Z13SuperEagle_16PtS_PKt
Dg:__ZN8fatDrive7MakeDirEPc
Eg:__ZL19ExecuteGlobRegisterv
Fg:__ZN9DOS_Shell5WhichEPc
Gg:__Z14vga_write_p3d5jjj
Hg:__ZNSt3__26__sortIRPFbRKPN15DOS_Drive_Cache9CFileInfoES5_EPS3_EEvT0_SA_T_
Ig:__Z13SuperEagle_32PjS_PKj
Jg:__ZN9BatchFile8ReadLineEPc
Kg:__Z15DOS_SetupTablesv
Lg:__ZNSt3__213unordered_mapINS_12basic_stringIcNS_11char_traitsIcEENS_9allocatorIcEEEEPFvRKS6_PKcPFvS8_RK10jsonstreamEENS_4hashIS6_EENS_8equal_toIS6_EENS4_INS_4pairIS7_SH_EEEEEC2ERKSP_
Mg:__Z11XMS_Handlerv
Ng:__Z13Super2xSaI_32PjS_PKj
Og:__ZN4WGET3RunEv
Pg:__ZL17VGA_VerticalTimerj
Qg:___floatscan
Rg:__zip_source_zip_new
Sg:_buffer_write
Tg:__ZN15CStickBindGroup27ActivateJoystickBoundEventsEv
Ug:__Z9XGA_Writejjj
Vg:__ZNSt3__29__num_putIwE23__widen_and_group_floatEPcS2_S2_PwRS3_S4_RKNS_6localeE
Wg:__ZN12_GLOBAL__N_116itanium_demangle22AbstractManglingParserINS0_14ManglingParserINS_16DefaultAllocatorEEES3_E12parseNewExprEv
Xg:__ZN15keyboard_layout16extract_codepageEPKc
Yg:__ZN6Config15ParseConfigFileEPKc
Zg:__ZN9DOS_Shell9CMD_SUBSTEPc
_g:__ZNSt3__29__num_putIcE23__widen_and_group_floatEPcS2_S2_S2_RS2_S3_RKNS_6localeE
$g:__ZN7CMscdex17GetDirectoryEntryEtbjjRt
ah:__ZN4MIDIC2EP7Section
bh:__zip_read_eocd64
ch:__ZL18update_cga16_colorv
dh:__zip_source_file_or_p
eh:_twoway_strstr
fh:_read_data
gh:__ZN5Value8set_boolERKNSt3__212basic_stringIcNS0_11char_traitsIcEENS0_9allocatorIcEEEE
hh:__ZL19MPU401_WriteCommandjjj
ih:__ZN9DOS_Shell7CMD_SETEPc
jh:__ZL12MemoryRegionv
kh:__Z18DOS_AllocateMemoryPtS_
lh:__ZN21CDROM_Interface_Image15GetRealFileNameERNSt3__212basic_stringIcNS0_11char_traitsIcEENS0_9allocatorIcEEEES7_
mh:__ZN15InitPageHandler8InitPageEjb
nh:__ZN4OPL310adlib_initEj
oh:___udivmoddi4
ph:__Z12VGA_SetupXGAv
qh:__ZN7fatFile5WriteEPhPt
rh:__Z18INT10_ScrollWindowhhhhahh
sh:__ZL12CTMIXER_Readv
th:__ZN6Events20registerPushSDLEventEv
uh:__ZN6Events18registerScreenshotEv
vh:__ZN6Events12registerExitEv
wh:__ZN12_GLOBAL__N_116itanium_demangle22AbstractManglingParserINS0_14ManglingParserINS_16DefaultAllocatorEEES3_E17parseSubstitutionEv
xh:__ZNKSt3__29money_putIwNS_19ostreambuf_iteratorIwNS_11char_traitsIwEEEEE6do_putES4_bRNS_8ios_baseEwe
yh:__ZNSt3__26vectorINS_12basic_stringIcNS_11char_traitsIcEENS_9allocatorIcEEEENS4_IS6_EEE6insertENS_11__wrap_iterIPKS6_EERSA_
zh:__ZN4OPL210adlib_initEj
Ah:__ZN20Prop_multival_remain8SetValueERKNSt3__212basic_stringIcNS0_11char_traitsIcEENS0_9allocatorIcEEEE
Bh:__ZNKSt3__29money_putIcNS_19ostreambuf_iteratorIcNS_11char_traitsIcEEEEE6do_putES4_bRNS_8ios_baseEce
Ch:__ZN4KEYB3RunEv
Dh:__Z7CPU_RETbjj
Eh:__ZN12_GLOBAL__N_116itanium_demangle22AbstractManglingParserINS0_14ManglingParserINS_16DefaultAllocatorEEES3_E5parseEv
Fh:__ZNSt3__26vectorI9SDL_EventNS_9allocatorIS1_EEE6insertENS_11__wrap_iterIPKS1_EERS6_
Gh:_fill_window
Hh:__ZN13Prop_multival8SetValueERKNSt3__212basic_stringIcNS0_11char_traitsIcEENS0_9allocatorIcEEEE
Ih:__Z13FCB_ParsenametthPcPh
Jh:__ZL14saa1099_updateiPPsi
Kh:_compress_read
Lh:__Z14VGA_SetupOtherv
Mh:__Z13CALLBACK_InitP7Section
Nh:__Z10MIXER_InitP7Section
Oh:__ZNKSt3__29money_putIwNS_19ostreambuf_iteratorIwNS_11char_traitsIwEEEEE6do_putES4_bRNS_8ios_baseEwRKNS_12basic_stringIwS3_NS_9allocatorIwEEEE
Ph:__ZL14launchcapturesRKNSt3__212basic_stringIcNS_11char_traitsIcEENS_9allocatorIcEEEE
Qh:__ZN12_GLOBAL__N_116itanium_demangle22AbstractManglingParserINS0_14ManglingParserINS_16DefaultAllocatorEEES3_E15parseBracedExprEv
Rh:__Z14INT10_GetPixeltthPh
Sh:__ZNKSt3__29money_putIcNS_19ostreambuf_iteratorIcNS_11char_traitsIcEEEEE6do_putES4_bRNS_8ios_baseEcRKNS_12basic_stringIcS3_NS_9allocatorIcEEEE
Th:__ZNSt3__26vectorIPN15DOS_Drive_Cache9CFileInfoENS_9allocatorIS3_EEE6insertENS_11__wrap_iterIPKS3_EERS8_
Uh:__ZN9DOS_Shell8CMD_DATEEPc
Vh:_fmod
Wh:__ZNSt3__213basic_filebufIcNS_11char_traitsIcEEE9underflowEv
Xh:__ZN15CStickBindGroupC2Ejjb
Yh:__ZN21CDROM_Interface_Image8AddTrackERNS_5TrackERiiS2_i
Zh:__Z12XGA_DrawWaitjj
_h:__ZNK10__cxxabiv121__vmi_class_type_info16search_below_dstEPNS_19__dynamic_cast_infoEPKvib
$h:__ZL9stopUsingP6Region
ai:__ZN12_GLOBAL__N_116itanium_demangle22AbstractManglingParserINS0_14ManglingParserINS_16DefaultAllocatorEEES3_E9parseNameEPNS5_9NameStateE
bi:__ZN12_GLOBAL__N_116itanium_demangle22AbstractManglingParserINS0_14ManglingParserINS_16DefaultAllocatorEEES3_E16parseTemplateArgEv
ci:__Z17DOS_SetupProgramsv
di:__ZN12_GLOBAL__N_116itanium_demangle22AbstractManglingParserINS0_14ManglingParserINS_16DefaultAllocatorEEES3_E20parseUnnamedTypeNameEPNS5_9NameStateE
ei:__ZN12_GLOBAL__N_116itanium_demangle22AbstractManglingParserINS0_14ManglingParserINS_16DefaultAllocatorEEES3_E15parseVectorTypeEv
fi:__Z6get_CFv
gi:__Z17VGA_SetupHandlersv
hi:__zip_checkcons
ii:__ZN11SERIALPORTSC2EP7Section
ji:_extract_zip
ki:__ZL14MIXER_CallBackPvPhi
li:__ZNSt3__213basic_filebufIcNS_11char_traitsIcEEE4syncEv
mi:__ZN5DBOPL7Channel13BlockTemplateILNS_9SynthModeE2EEEPS0_PNS_4ChipEjPi
ni:__ZNKSt3__29money_getIwNS_19istreambuf_iteratorIwNS_11char_traitsIwEEEEE6do_getES4_S4_bRNS_8ios_baseERjRe
oi:__ZN15DOS_Drive_Cache15CreateShortNameEPNS_9CFileInfoES1_
pi:__ZNSt3__2L13utf8_to_utf16EPKhS1_RS1_PtS3_RS3_mNS_12codecvt_modeE
qi:__ZNKSt3__29money_getIcNS_19istreambuf_iteratorIcNS_11char_traitsIcEEEEE6do_getES4_S4_bRNS_8ios_baseERjRe
ri:__ZN12_GLOBAL__N_116itanium_demangle22AbstractManglingParserINS0_14ManglingParserINS_16DefaultAllocatorEEES3_E18parseQualifiedTypeEv
si:__ZN8JOYSTICKC2EP7Section
ti:_adler32
ui:__ZN9DOS_Shell6CMD_IFEPc
vi:__ZL13SN76496Updatej
wi:__ZNSt3__212__hash_tableINS_17__hash_value_typeINS_12basic_stringIcNS_11char_traitsIcEENS_9allocatorIcEEEEPFvRKS7_PKcPFvS9_RK10jsonstreamEEEENS_22__unordered_map_hasherIS7_SJ_NS_4hashIS7_EELb1EEENS_21__unordered_map_equalIS7_SJ_NS_8equal_toIS7_EELb1EEENS5_ISJ_EEE8__rehashEm
xi:__ZN12_GLOBAL__N_116itanium_demangle22AbstractManglingParserINS0_14ManglingParserINS_16DefaultAllocatorEEES3_E20parseUnqualifiedNameEPNS5_9NameStateE
yi:__ZNK10__cxxabiv119__pointer_type_info9can_catchEPKNS_16__shim_type_infoERPv
zi:__ZNSt3__29__num_putIwE21__widen_and_group_intEPcS2_S2_PwRS3_S4_RKNS_6localeE
Ai:___get_locale
Bi:__ZN9DOS_Shell10CMD_CHOICEEPc
Ci:__ZNSt3__29__num_putIcE21__widen_and_group_intEPcS2_S2_S2_RS2_S3_RKNS_6localeE
Di:__ZNKSt3__29money_getIwNS_19istreambuf_iteratorIwNS_11char_traitsIwEEEEE6do_getES4_S4_bRNS_8ios_baseERjRNS_12basic_stringIwS3_NS_9allocatorIwEEEE
Ei:__ZNKSt3__29money_getIcNS_19istreambuf_iteratorIcNS_11char_traitsIcEEEEE6do_getES4_S4_bRNS_8ios_baseERjRNS_12basic_stringIcS3_NS_9allocatorIcEEEE
Fi:__zip_cdir_write
Gi:__ZNKSt3__28time_getIwNS_19istreambuf_iteratorIwNS_11char_traitsIwEEEEE13__get_percentERS4_S4_RjRKNS_5ctypeIwEE
Hi:__ZNKSt3__28time_getIcNS_19istreambuf_iteratorIcNS_11char_traitsIcEEEEE13__get_percentERS4_S4_RjRKNS_5ctypeIcEE
Ii:__ZNSt3__2L13utf16_to_utf8EPKtS1_RS1_PhS3_RS3_mNS_12codecvt_modeE
Ji:__ZN12_GLOBAL__N_116itanium_demangle22AbstractManglingParserINS0_14ManglingParserINS_16DefaultAllocatorEEES3_E17parseTemplateArgsEb
Ki:__ZL19Tandy_SetupTransferjb
Li:__ZN5DBOPL7Channel13BlockTemplateILNS_9SynthModeE3EEEPS0_PNS_4ChipEjPi
Mi:__ZN5DBOPL7Channel13BlockTemplateILNS_9SynthModeE0EEEPS0_PNS_4ChipEjPi
Ni:__Z10DrawCursorv
Oi:__ZN7LOADFIX3RunEv
Pi:__Z10write_p3c0jjj
Qi:__Z15FPU_ESC1_Normalj
Ri:__ZNKSt3__28time_getIcNS_19istreambuf_iteratorIcNS_11char_traitsIcEEEEE17__get_white_spaceERS4_S4_RjRKNS_5ctypeIcEE
Si:__ZN5DBOPL4Chip5SetupEj
Ti:__ZNKSt3__28time_getIwNS_19istreambuf_iteratorIwNS_11char_traitsIwEEEEE17__get_white_spaceERS4_S4_RjRKNS_5ctypeIwEE
Ui:__ZNSt3__213basic_filebufIcNS_11char_traitsIcEEE8overflowEi
Vi:__ZNSt3__2L12utf8_to_ucs4EPKhS1_RS1_PjS3_RS3_mNS_12codecvt_modeE
Wi:__Z17Mouse_CursorMovedffffb
Xi:__ZN12_GLOBAL__N_116itanium_demangle22AbstractManglingParserINS0_14ManglingParserINS_16DefaultAllocatorEEES3_E14parseLocalNameEPNS5_9NameStateE
Yi:__ZN3MEM3RunEv
Zi:__ZL11write_latchjjj
_i:__ZL9HQ3x_32_Rv
$i:__ZN9DOS_Shell9ParseLineEPc
aj:__ZL9HQ3x_16_Rv
bj:__ZN5DBOPL7Channel13BlockTemplateILNS_9SynthModeE1EEEPS0_PNS_4ChipEjPi
cj:__ZN9DOS_Shell3RunEv
dj:_compress_callback
ej:__ZN21CDROM_Interface_Image11LoadIsoFileEPc
fj:_longest_match
gj:__Z10GFX_Eventsv
hj:__Z17CPU_SetSegGeneral8SegNamesj
ij:__ZNSt3__213basic_istreamIcNS_11char_traitsIcEEE6sentryC2ERS3_b
jj:__ZN12_GLOBAL__N_116itanium_demangle22AbstractManglingParserINS0_14ManglingParserINS_16DefaultAllocatorEEES3_E19parseConversionExprEv
kj:__ZL20saa1099_write_port_wiii
lj:__Z9WriteChartthhhb
mj:_crc32
nj:__ZN3EMSC2EP7Section
oj:__ZNK12_GLOBAL__N_116itanium_demangle8FoldExpr9printLeftERNS_12OutputStreamE
pj:__ZNKSt3__28messagesIwE6do_getEliiRKNS_12basic_stringIwNS_11char_traitsIwEENS_9allocatorIwEEEE
qj:__ZN8fatDrive16FindNextInternalEjR7DOS_DTAP8direntry
rj:__ZN5DBOPL10InitTablesEv
sj:__ZL9HQ3x_32_Lv
tj:__ZL15SuperEagle_32_Rv
uj:__ZL15Super2xSaI_32_Rv
vj:__Z15INT10_SetupVESAv
wj:__ZNSt3__29__num_getIcE19__stage2_float_loopEcRbRcPcRS4_ccRKNS_12basic_stringIcNS_11char_traitsIcEENS_9allocatorIcEEEEPjRSE_RjS4_
xj:__ZL9HQ3x_16_Lv
yj:__ZL15SuperEagle_16_Rv
zj:__ZL15Super2xSaI_16_Rv
Aj:__ZN12_GLOBAL__N_116itanium_demangle22AbstractManglingParserINS0_14ManglingParserINS_16DefaultAllocatorEEES3_E17parseCtorDtorNameERPNS0_4NodeEPNS5_9NameStateE
Bj:__ZL11_2xSaI_32_Rv
Cj:__ZL11_2xSaI_16_Rv
Dj:__ZL9HQ2x_32_Rv
Ej:__ZL9HQ2x_16_Rv
Fj:__ZNSt3__2L12init_wmonthsEv
Gj:__ZNSt3__2L11init_monthsEv
Hj:__ZN7CMscdex11RemoveDriveEt
Ij:__zip_find_central_dir
Jj:__ZN7LOADROM3RunEv
Kj:__Z6get_OFv
Lj:__ZL13INT16_Handlerv
Mj:__ZN15keyboard_layout10layout_keyEjhhh
Nj:__ZL24MSCDEX_Interrupt_Handlerv
Oj:__ZL13INT14_Handlerv
Pj:__Z15MIDI_RawOutByteh
Qj:__ZNSt3__29__num_getIwE19__stage2_float_loopEwRbRcPcRS4_wwRKNS_12basic_stringIcNS_11char_traitsIcEENS_9allocatorIcEEEEPjRSE_RjPw
Rj:__Z12DOS_FCBWritettt
Sj:__Z17MEM_AllocatePagesjb
Tj:__ZNKSt3__27codecvtIwc11__mbstate_tE6do_outERS1_PKwS5_RS5_PcS7_RS7_
Uj:__ZN24VGA_UnchainedEGA_Handler12writeHandlerILb1EEEvjh
Vj:__ZN24VGA_UnchainedEGA_Handler12writeHandlerILb0EEEvjh
Wj:__ZN15DOS_Drive_Cache9FindFirstEPcRt
Xj:__ZNKSt3__27codecvtIwc11__mbstate_tE5do_inERS1_PKcS5_RS5_PwS7_RS7_
Yj:__ZN21InitPageUserROHandler8InitPageEjj
Zj:__ZL10ForwardPITf
_j:__Z16DOS_ResizeMemorytPt
$j:_buffer_clone
ak:__ZN8SBLASTER17Find_Type_And_OplEP12Section_propR8SB_TYPESR8OPL_Mode
bk:__ZNKSt3__27num_putIwNS_19ostreambuf_iteratorIwNS_11char_traitsIwEEEEE6do_putES4_RNS_8ios_baseEwd
ck:__ZNKSt3__27num_putIwNS_19ostreambuf_iteratorIwNS_11char_traitsIwEEEEE6do_putES4_RNS_8ios_baseEwe
dk:__ZN11CommandLine20GetParameterFromListEPKPKcRNSt3__26vectorINS4_12basic_stringIcNS4_11char_traitsIcEENS4_9allocatorIcEEEENS9_ISB_EEEE
ek:__ZN10device_CON4ReadEPhPt
fk:_deflateInit2_
gk:_buffer_new
hk:__ZN7CSerial9Write_MCREh
ik:__ZN12_GLOBAL__N_116itanium_demangle22AbstractManglingParserINS0_14ManglingParserINS_16DefaultAllocatorEEES3_E23parseBaseUnresolvedNameEv
jk:__ZN9DOS_Shell14GetRedirectionEPcPS0_S1_Pb
kk:__ZNSt3__2rsIcNS_11char_traitsIcEENS_9allocatorIcEEEERNS_13basic_istreamIT_T0_EES9_RNS_12basic_stringIS6_S7_T1_EE
lk:__ZN12_GLOBAL__N_116itanium_demangle22AbstractManglingParserINS0_14ManglingParserINS_16DefaultAllocatorEEES3_E18parseFunctionParamEv
mk:__ZL22EMM_PartialPageMappingv
nk:_scanexp
ok:__Z12DOS_OpenFilePKchPtb
pk:__ZN13DmaController18WriteControllerRegEjjj
qk:__ZNKSt3__27num_putIcNS_19ostreambuf_iteratorIcNS_11char_traitsIcEEEEE6do_putES4_RNS_8ios_baseEcd
rk:__ZNKSt3__27num_putIcNS_19ostreambuf_iteratorIcNS_11char_traitsIcEEEEE6do_putES4_RNS_8ios_baseEce
sk:__ZN8fatDrive10FileCreateEPP8DOS_FilePct
tk:__ZNSt3__215basic_stringbufIcNS_11char_traitsIcEENS_9allocatorIcEEE8overflowEi
uk:__ZL13FinishSetModeb
vk:__zip_open
wk:__Z8XGA_Readjj
xk:__ZN12Section_prop15HandleInputlineERKNSt3__212basic_stringIcNS0_11char_traitsIcEENS0_9allocatorIcEEEE
yk:__ZNK12_GLOBAL__N_116itanium_demangle11PointerType9printLeftERNS_12OutputStreamE
zk:__ZL15SuperEagle_32_Lv
Ak:__ZL15Super2xSaI_32_Lv
Bk:__ZL11TV3x_9_16_RPKv
Ck:__ZL15SuperEagle_16_Lv
Dk:__ZL15Super2xSaI_16_Lv
Ek:__ZL11TV3x_9_15_RPKv
Fk:__Z16SVGA_S3_ReadCRTCjj
Gk:__Z12ReadCharAttrtthPt
Hk:__ZL11TV3x_9_32_RPKv
Ik:__ZN15DOS_Drive_Cache11FindDirInfoEPKcPc
Jk:__ZN12CCHBindGroup10CheckEventEP9SDL_Event
Kk:__ZL11_2xSaI_32_Lv
Lk:__ZL11_2xSaI_16_Lv
Mk:__ZN5DBOPL4Chip8WriteRegEjh
Nk:__Z29INT10_GetFuncStateInformationj
Ok:__ZL9HQ2x_32_Lv
Pk:__ZNK12_GLOBAL__N_116itanium_demangle12FunctionType10printRightERNS_12OutputStreamE
Qk:__ZL9HQ2x_16_Lv
Rk:__ZN10device_EMM22ReadFromControlChannelEjtPt
Sk:__ZN13DOS_InfoBlock11SetLocationEt
Tk:__ZL16MOUSE_BD_Handlerv
Uk:__Z18BIND_MappingEventsv
Vk:__ZN12_GLOBAL__N_116itanium_demangle22AbstractManglingParserINS0_14ManglingParserINS_16DefaultAllocatorEEES3_E14parseArrayTypeEv
Wk:__zip_read_local_ef
Xk:__ZL11TV3x_9_16_LPKv
Yk:__ZL11TV3x_9_15_LPKv
Zk:__Z11GFX_SetSizejjjddPFv23GFX_CallBackFunctions_tE
_k:__ZNK12_GLOBAL__N_116itanium_demangle16FunctionEncoding10printRightERNS_12OutputStreamE
$k:__ZL11TV3x_9_32_LPKv
al:__Z20Mouse_ButtonReleasedh
bl:__ZL12RGB3x_9_16_RPKv
cl:__ZL12RGB3x_9_15_RPKv
dl:__Z19Mouse_ButtonPressedh
el:__ZNK12_GLOBAL__N_116itanium_demangle7NewExpr9printLeftERNS_12OutputStreamE
fl:__ZL12RGB3x_9_32_RPKv
gl:__ZN7fatFile4ReadEPhPt
hl:__ZNSt3__2L20utf8_to_utf16_lengthEPKhS1_mmNS_12codecvt_modeE
il:__ZNSt3__2L12ucs4_to_utf8EPKjS1_RS1_PhS3_RS3_mNS_12codecvt_modeE
jl:__Z15OpenCaptureFilePKcS0_
kl:__Z23VESA_GetSVGAInformationtt
ll:__ZNSt3__213basic_istreamIcNS_11char_traitsIcEEE7getlineEPclc
ml:__ZN3CMSC2EP7Section
nl:__ZNK12_GLOBAL__N_116itanium_demangle14IntegerLiteral9printLeftERNS_12OutputStreamE
ol:__ZL12RGB3x_9_16_LPKv
pl:__ZL12RGB3x_9_15_LPKv
ql:_calloc
rl:__ZNSt3__2L19utf8_to_ucs4_lengthEPKhS1_mmNS_12codecvt_modeE
sl:__ZL12RGB3x_9_32_LPKv
tl:__ZN9BatchFile4GotoEPc
ul:__ZNK12_GLOBAL__N_116itanium_demangle10BinaryExpr9printLeftERNS_12OutputStreamE
vl:__ZN4BOOT19disable_umb_ems_xmsEv
wl:__ZL15Normal3x_9_32_RPKv
xl:__ZL13counter_latchj
yl:__ZL15Normal3x_9_16_RPKv
zl:__ZL15Normal3x_9_15_RPKv
Al:__ZL13Scan3x_9_32_RPKv
Bl:__ZL13Scan3x_9_16_RPKv
Cl:__ZL13Scan3x_9_15_RPKv
Dl:__ZL18PCSPEAKER_CallBackj
El:__ZN9DOS_Shell10CMD_DELETEEPc
Fl:__ZL9write_gusjjj
Gl:__ZL11TV3x_8_16_RPKv
Hl:__ZNSt3__212basic_stringIcNS_11char_traitsIcEENS_9allocatorIcEEE7replaceEmmPKcm
Il:__ZL11TV3x_8_15_RPKv
Jl:_buffer_read
Kl:__ZN8fatDrive15setClusterValueEjj
Ll:__ZL11TV3x_8_32_RPKv
Ml:_pop_arg
Nl:__ZN5MOUNT10ListMountsEv
Ol:__Z11DOS_FCBReadttt
Pl:__ZN11Prop_string10CheckValueERK5Valueb
Ql:_malloc
Rl:__ZN24VGA_UnchainedVGA_Handler12writeHandlerEjh
Sl:__ZL15Normal3x_9_32_LPKv
Tl:__ZN11CommandLineC2EPKcS1_
Ul:__ZL15Normal3x_9_16_LPKv
Vl:__ZL15Normal3x_9_15_LPKv
Wl:__ZL13write_commandjjj
Xl:__ZN5Adlib6Module9PortWriteEjjj
Yl:_zip_open_from_source
Zl:__ZL13Scan3x_9_32_LPKv
_l:__ZL13Scan3x_9_16_LPKv
$l:__ZL13Scan3x_9_15_LPKv
am:__tr_stored_block
bm:__ZN11CommandLine10FillVectorERNSt3__26vectorINS0_12basic_stringIcNS0_11char_traitsIcEENS0_9allocatorIcEEEENS5_IS7_EEEE
cm:__ZL11TV3x_8_16_LPKv
dm:__ZL11TV3x_8_15_LPKv
em:__ZN14AutoexecObjectD2Ev
fm:__ZL11TV2x_9_16_RPKv
gm:__ZL19ExecuteReadRegisterv
hm:__ZL11TV2x_9_15_RPKv
im:__ZL11TV3x_8_32_LPKv
jm:__ZL11TV2x_9_32_RPKv
km:__ZL25VGA_TEXT_Xlat16_Draw_Linejj
lm:__ZL12RGB3x_8_16_RPKv
mm:__ZL12RGB3x_8_15_RPKv
nm:__Z21XGA_DrawLineBresenhamj
om:__Z14INT10_LoadFontjbjjjj
pm:__ZNSt3__29__num_getIcE17__stage2_int_loopEciPcRS2_RjcRKNS_12basic_stringIcNS_11char_traitsIcEENS_9allocatorIcEEEEPjRSD_PKc
qm:__ZNSt3__29__num_getIwE17__stage2_int_loopEwiPcRS2_RjwRKNS_12basic_stringIcNS_11char_traitsIcEENS_9allocatorIcEEEEPjRSD_PKw
rm:__ZN3XMSC2EP7Section
sm:__ZL12TV3x_16_32_RPKv
tm:__ZL12TV3x_32_16_RPKv
um:__ZL12RGB3x_8_32_RPKv
vm:__ZL12TV3x_15_32_RPKv
wm:__zip_mkstemp
xm:_wcsrtombs
ym:__ZL12TV3x_32_16_LPKv
zm:__ZL12TV3x_16_32_LPKv
Am:__ZL12TV3x_15_16_RPKv
Bm:__ZL12TV3x_16_15_RPKv
Cm:__ZL12disney_writejjj
Dm:__ZL12TV3x_15_16_LPKv
Em:__ZL12TV3x_16_15_LPKv
Fm:__ZN6MEMORYC2EP7Section
Gm:__ZL12TV3x_32_15_RPKv
Hm:__ZL12TV3x_15_32_LPKv
Im:__ZL14DISNEY_analyzej
Jm:__ZL12RGB2x_9_16_RPKv
Km:__ZL12TV3x_32_32_RPKv
Lm:__ZL12RGB2x_9_15_RPKv
Mm:__Z11WildFileCmpPKcS0_
Nm:__ZL12TV3x_32_15_LPKv
Om:__ZN8Prop_int6SetValERK5Valuebb
Pm:__ZNK5Value8ToStringEv
Qm:__ZL12TV3x_32_32_LPKv
Rm:__ZL12RGB3x_8_16_LPKv
Sm:__ZL12RGB3x_8_15_LPKv
Tm:__ZN12CCHBindGroup14UpdateJoystickEv
Um:__ZNSt3__215basic_stringbufIcNS_11char_traitsIcEENS_9allocatorIcEEE7seekoffExNS_8ios_base7seekdirEj
Vm:__ZL12RGB2x_9_32_RPKv
Wm:__ZN15DOS_Drive_Cache11CreateEntryEPNS_9CFileInfoEPKcb
Xm:__zip_hash_add
Ym:__Z30INT10_SetSinglePaletteRegisterhh
Zm:__ZL12RGB3x_8_32_LPKv
_m:__ZL15Normal2x_9_32_RPKv
$m:__ZN15keyboard_layout7map_keyEjtbb
an:__ZL18VGA_DrawSingleLinej
bn:__ZL13Scan2x_9_32_RPKv
cn:__ZL15Normal2x_9_16_RPKv
dn:__ZL15Normal2x_9_15_RPKv
en:__Z19MEM_ReAllocatePagesRijb
fn:__ZL13Scan2x_9_16_RPKv
gn:__ZL13Scan2x_9_15_RPKv
hn:__ZN6RESCAN3RunEv
jn:__ZN12_GLOBAL__N_116itanium_demangle22AbstractManglingParserINS0_14ManglingParserINS_16DefaultAllocatorEEES3_E18parseClassEnumTypeEv
kn:__ZL13RGB3x_32_16_RPKv
ln:__ZL13RGB3x_32_15_RPKv
mn:__ZL15Normal3x_8_32_RPKv
nn:__ZL15Normal3x_8_16_RPKv
on:__ZL15Normal3x_8_15_RPKv
pn:__ZL11Cache_16_32PKv
qn:__ZL11Cache_15_32PKv
rn:__ZL12TV3x_16_16_RPKv
sn:__ZL21write_crtc_data_otherjjj
tn:__ZL12TV3x_16_16_LPKv
un:__ZL12TV3x_15_15_RPKv
vn:__ZN8isoDriveC2EcPKchRi
wn:__ZL12TV3x_15_15_LPKv
xn:__ZL13RGB3x_32_16_LPKv
yn:__ZL13RGB3x_32_15_LPKv
zn:__ZL13Scan3x_8_32_RPKv
An:__ZL11Cache_16_15PKv
Bn:__ZL11Cache_15_16PKv
Cn:__ZL13Scan3x_8_16_RPKv
Dn:__ZL13Scan3x_8_15_RPKv
En:__ZN13Prop_multival18make_default_valueEv
Fn:__ZL11Cache_32_32PKv
Gn:__ZN12_GLOBAL__N_116itanium_demangle22AbstractManglingParserINS0_14ManglingParserINS_16DefaultAllocatorEEES3_E18parseTemplateParamEv
Hn:__ZN10localDrive9FindFirstEPcR7DOS_DTAb
In:__ZL13RGB3x_16_15_RPKv
Jn:__ZL13RGB3x_15_16_RPKv
Kn:__ZNSt3__212basic_stringIcNS_11char_traitsIcEENS_9allocatorIcEEE23__append_forward_unsafeIPcEERS5_T_S9_
Ln:__ZL13RGB3x_16_15_LPKv
Mn:__ZL13RGB3x_15_16_LPKv
Nn:__ZL10Cache_9_16PKv
On:__ZL10Cache_9_15PKv
Pn:__ZL15NormalDh_9_16_RPKv
Qn:__ZL15NormalDh_9_15_RPKv
Rn:__ZL10Cache_9_32PKv
Sn:__ZL13RGB3x_16_32_RPKv
Tn:__ZL13RGB3x_15_32_RPKv
Un:__ZL10Cache_8_16PKv
Vn:__ZL10Cache_8_15PKv
Wn:__ZL10write_p3cfjjj
Xn:__ZL15NormalDh_9_32_RPKv
Yn:__ZN7CSerial13receiveByteExEhh
Zn:__ZL11Cache_32_16PKv
_n:__ZL11Cache_32_15PKv
$n:__ZL10Cache_8_32PKv
ao:__ZNSt3__212basic_stringIwNS_11char_traitsIwEENS_9allocatorIwEEE23__append_forward_unsafeIPwEERS5_T_S9_
bo:__ZNKSt3__27num_getIwNS_19istreambuf_iteratorIwNS_11char_traitsIwEEEEE6do_getES4_S4_RNS_8ios_baseERjRb
co:__ZNKSt3__27num_getIcNS_19istreambuf_iteratorIcNS_11char_traitsIcEEEEE6do_getES4_S4_RNS_8ios_baseERjRb
eo:__Z19VESA_ScanLineLengthhtRtS_S_
fo:__ZL13RGB3x_16_32_LPKv
go:__ZL13RGB3x_15_32_LPKv
ho:__ZL11Cache_16_16PKv
io:__ZL11Cache_15_15PKv
jo:__ZNSt3__227__insertion_sort_incompleteIRPFbRKPN15DOS_Drive_Cache9CFileInfoES5_EPS3_EEbT0_SA_T_
ko:__ZNSt3__212__hash_tableINS_17__hash_value_typeINS_12basic_stringIcNS_11char_traitsIcEENS_9allocatorIcEEEEPFvRKS7_PKcPFvS9_RK10jsonstreamEEEENS_22__unordered_map_hasherIS7_SJ_NS_4hashIS7_EELb1EEENS_21__unordered_map_equalIS7_SJ_NS_8equal_toIS7_EELb1EEENS5_ISJ_EEE4findIS7_EENS_15__hash_iteratorIPNS_11__hash_nodeISJ_PvEEEERKT_
lo:__ZL13RGB3x_32_32_RPKv
mo:__ZL15Normal3x_8_32_LPKv
no:__ZL14Normal3x_8_8_RPKv
oo:__ZL15Normal3x_8_16_LPKv
po:__ZL15Normal3x_8_15_LPKv
qo:__ZL12launcheditorv
ro:__ZL13Scan3x_8_32_LPKv
so:__ZL13RGB3x_32_32_LPKv
to:__ZL13Scan3x_8_16_LPKv
uo:__ZL13Scan3x_8_15_LPKv
vo:__ZN12MixerChannel10AddSamplesIhLb1ELb0ELb1EEEvjPKT_
wo:__ZN12MixerChannel10AddSamplesItLb1ELb0ELb1EEEvjPKT_
xo:__ZL9Cache_8_8PKv
yo:__ZNKSt3__27num_putIwNS_19ostreambuf_iteratorIwNS_11char_traitsIwEEEEE6do_putES4_RNS_8ios_baseEwb
zo:__ZL13RGB3x_16_16_RPKv
Ao:__ZL15NormalDw_9_32_RPKv
Bo:__ZL13RGB3x_15_15_RPKv
Co:__ZL13RGB3x_16_16_LPKv
Do:__ZL13RGB3x_15_15_LPKv
Eo:__ZL15NormalDw_9_16_RPKv
Fo:__ZL15NormalDw_9_15_RPKv
Go:__ZL11TV2x_8_16_RPKv
Ho:__ZNKSt3__27num_putIcNS_19ostreambuf_iteratorIcNS_11char_traitsIcEEEEE6do_putES4_RNS_8ios_baseEcb
Io:__ZL11TV2x_8_15_RPKv
Jo:__Z13vga_read_p3d5jj
Ko:__ZN12MixerChannel10AddSamplesIsLb1ELb1ELb1EEEvjPKT_
Lo:__ZN12MixerChannel10AddSamplesIiLb1ELb1ELb1EEEvjPKT_
Mo:__ZL16Normal3x_16_32_RPKv
No:__ZL16Normal3x_15_32_RPKv
Oo:__ZN8Prop_int10CheckValueERK5Valueb
Po:__ZN12MixerChannel10AddSamplesIaLb1ELb1ELb1EEEvjPKT_
Qo:__ZL24INT10_TeletypeOutputAttrhhbh
Ro:__ZL14Scan3x_16_32_RPKv
So:__ZL14Scan3x_15_32_RPKv
To:__ZL11TV2x_8_32_RPKv
Uo:__ZN10localDrive8FileOpenEPP8DOS_FilePcj
Vo:__ZL11TV2x_9_16_LPKv
Wo:__ZL16CreateBindGroupsv
Xo:__Z10GetEMSTypeP12Section_prop
Yo:__send
Zo:__ZL14Normal3x_8_8_LPKv
_o:__ZL11TV2x_9_15_LPKv
$o:__ZL16Normal3x_16_32_LPKv
ap:__ZL16Normal3x_15_32_LPKv
bp:__ZN9PIC_8259AC2EP7Section
cp:__ZN9Prop_path8SetValueERKNSt3__212basic_stringIcNS0_11char_traitsIcEENS0_9allocatorIcEEEE
dp:__ZL16Normal3x_32_16_RPKv
ep:__ZL15Normal1x_9_16_RPKv
fp:__ZL15Normal1x_9_15_RPKv
gp:__ZL16Normal3x_32_15_RPKv
hp:__ZL14Scan3x_16_32_LPKv
ip:__ZL14Scan3x_15_32_LPKv
jp:__ZL16Normal3x_32_32_RPKv
kp:__ZL16Normal3x_16_15_RPKv
lp:__ZL16Normal3x_15_16_RPKv
mp:__ZL14Scan3x_32_16_RPKv
np:__ZL14Scan3x_32_15_RPKv
op:__Z14DOS_CreateFilePKctPtb
pp:__ZN21InitPageUserROHandler17InitPageCheckOnlyEjj
qp:__ZL16Normal3x_32_16_LPKv
rp:__ZL16Normal3x_32_15_LPKv
sp:__ZL14Scan3x_32_32_RPKv
tp:__ZL11TV2x_9_32_LPKv
up:__ZL16Normal3x_16_15_LPKv
vp:__ZL15Normal1x_9_32_RPKv
wp:__ZL14Scan3x_16_15_RPKv
xp:__ZL16Normal3x_15_16_LPKv
yp:__ZL14Scan3x_15_16_RPKv
zp:__ZL16Normal3x_32_32_LPKv
Ap:__ZL14Scan3x_32_16_LPKv
Bp:__ZL14Scan3x_32_15_LPKv
Cp:__ZL14Scan3x_16_15_LPKv
Dp:__ZL14Scan3x_15_16_LPKv
Ep:__ZL23VGA_TEXT_Herc_Draw_Linejj
Fp:__ZL14Scan3x_32_32_LPKv
Gp:__ZL9SetupVCPIv
Hp:__Z12XGA_BlitRectj
Ip:__ZN9DOS_Shell11CheckConfigEPcS0_
Jp:__ZL19MSCDEX_IOCTL_Optputjh
Kp:__ZL12RGB2x_8_16_RPKv
Lp:__ZL12RGB2x_8_15_RPKv
Mp:__ZL12TV2x_15_16_RPKv
Np:__ZNSt3__27getlineIcNS_11char_traitsIcEENS_9allocatorIcEEEERNS_13basic_istreamIT_T0_EES9_RNS_12basic_stringIS6_S7_T1_EES6_
Op:__ZL12TV2x_16_15_RPKv
Pp:__ZL12TV2x_16_32_RPKv
Qp:__ZL10write_datajjj
Rp:__ZN5Cross14ResolveHomedirERNSt3__212basic_stringIcNS0_11char_traitsIcEENS0_9allocatorIcEEEE
Sp:__ZL12TV2x_32_16_RPKv
Tp:__Z23Mouse_AfterNewVideoModeb
Up:__zip_dirent_process_winzip_aes
Vp:__ZN15InitPageHandler17InitPageCheckOnlyEjb
Wp:__ZL12TV2x_15_32_RPKv
Xp:__ZL9write_p60jjj
Yp:__ZL12RGB2x_9_16_LPKv
Zp:__ZL12RGB2x_9_15_LPKv
_p:__ZL12RGB2x_8_32_RPKv
$p:__Z21DOS_FreeProcessMemoryt
aq:__ZN8fatDrive6RenameEPcS0_
bq:__ZL16Normal3x_16_16_RPKv
cq:__ZL16Normal3x_15_15_RPKv
dq:__ZL12TV2x_32_15_RPKv
eq:__tr_align
fq:__ZL12TV2x_32_32_RPKv
gq:__Z22DOS_LinkUMBsToMemChaint
hq:__ZL15DISNEY_CallBackj
iq:__ZL16Normal3x_16_16_LPKv
jq:__ZL16Normal3x_15_15_LPKv
kq:__ZL14Scan3x_16_16_RPKv
lq:__ZL14Scan3x_15_15_RPKv
mq:__ZL15Normal2x_8_32_RPKv
nq:__ZL14Scan3x_16_16_LPKv
oq:__ZL14Scan3x_15_15_LPKv
pq:__ZL12RGB2x_9_32_LPKv
qq:__ZL15Normal2x_8_16_RPKv
rq:__ZL15Normal2x_8_15_RPKv
sq:__ZNK12_GLOBAL__N_116itanium_demangle27ExpandedSpecialSubstitution9printLeftERNS_12OutputStreamE
tq:__ZL13Scan2x_8_32_RPKv
uq:__ZN9DOS_Shell8CMD_PATHEPc
vq:__ZN12_GLOBAL__N_116itanium_demangle22AbstractManglingParserINS0_14ManglingParserINS_16DefaultAllocatorEEES3_E17parseUnscopedNameEPNS5_9NameStateE
wq:__ZNSt3__2L11init_wweeksEv
xq:__ZNSt3__2L10init_weeksEv
yq:__ZL13Scan2x_8_16_RPKv
zq:__ZL13Scan2x_8_15_RPKv
Aq:__Z6get_AFv
Bq:__ZNK12_GLOBAL__N_116itanium_demangle19SpecialSubstitution9printLeftERNS_12OutputStreamE
Cq:__ZL27VGA_Draw_LIN16_Line_HWMousejj
Dq:__Z15XGA_DrawPatternj
Eq:__ZL27VGA_Draw_LIN32_Line_HWMousejj
Fq:__ZN9DOS_Shell10CMD_RENAMEEPc
Gq:__ZN9DOS_Shell8CMD_ECHOEPc
Hq:__ZL15Normal2x_9_32_LPKv
Iq:__ZL15Normal2x_9_16_LPKv
Jq:__ZL15Normal2x_9_15_LPKv
Kq:_memcpy
Lq:__ZNKSt3__27num_putIwNS_19ostreambuf_iteratorIwNS_11char_traitsIwEEEEE6do_putES4_RNS_8ios_baseEwl
Mq:__ZNKSt3__27num_putIcNS_19ostreambuf_iteratorIcNS_11char_traitsIcEEEEE6do_putES4_RNS_8ios_baseEcl
Nq:_mbrtowc
Oq:__ZL13Scan2x_9_32_LPKv
Pq:__ZL13Scan2x_9_16_LPKv
Qq:__ZL13Scan2x_9_15_LPKv
Rq:__ZNKSt3__27num_putIwNS_19ostreambuf_iteratorIwNS_11char_traitsIwEEEEE6do_putES4_RNS_8ios_baseEwm
Sq:__ZL13RGB2x_16_32_RPKv
Tq:__ZL13RGB2x_15_32_RPKv
Uq:__ZL9write_p43jjj
Vq:__ZL12TV2x_16_16_RPKv
Wq:__Z9updateDPTv
Xq:__ZL25VGA_Draw_VGA_Line_HWMousejj
Yq:__ZL12TV2x_15_15_RPKv
Zq:__ZNKSt3__27num_putIcNS_19ostreambuf_iteratorIcNS_11char_traitsIcEEEEE6do_putES4_RNS_8ios_baseEcm
_q:__zip_source_window_new
$q:__ZN11CBindButton5ClickEv
ar:__ZNK10__cxxabiv121__vmi_class_type_info16search_above_dstEPNS_19__dynamic_cast_infoEPKvS4_ib
br:__ZN10localDrive8FindNextER7DOS_DTA
cr:__Z19DOS_FCBIncreaseSizett
dr:__ZN5ValueeqERKS_
er:__ZL13RGB2x_32_16_RPKv
fr:__ZL15NormalDh_8_16_RPKv
gr:__ZL15NormalDh_8_15_RPKv
hr:__ZL14Normal2x_8_8_RPKv
ir:__zip_ef_parse
jr:__ZL13RGB2x_16_15_RPKv
kr:__ZL13RGB2x_32_32_RPKv
lr:__ZL15NormalDh_8_32_RPKv
mr:__ZL13RGB2x_32_15_RPKv
nr:__ZN7Program6SetEnvEPKcS1_
or:__ZL13RGB2x_15_16_RPKv
pr:__ZL16Normal2x_16_32_RPKv
qr:__ZL16Normal2x_15_32_RPKv
rr:__ZL16Normal2x_16_15_RPKv
sr:__ZL16Normal2x_15_16_RPKv
tr:__ZL14Scan2x_16_32_RPKv
ur:__ZL14Scan2x_15_32_RPKv
vr:__Z16INT10_SetCurModev
wr:__ZL14Scan2x_16_15_RPKv
xr:__ZN5Adlib7Capture7DoWriteEjh
yr:__ZL14Scan2x_15_16_RPKv
zr:__ZN12_GLOBAL__N_116itanium_demangle13ParameterPackC2ENS0_9NodeArrayE
Ar:__ZL15NormalDh_9_32_LPKv
Br:__ZL15NormalDh_9_16_LPKv
Cr:__ZL15NormalDh_9_15_LPKv
Dr:__ZL25wine_hash_short_file_namePcS_
Er:__ZL16Normal2x_32_16_RPKv
Fr:__ZL13INT1A_Handlerv
Gr:__ZL16Normal2x_32_15_RPKv
Hr:__ZL14Scan2x_32_16_RPKv
Ir:_pkware_decrypt
Jr:__ZL16Normal2x_32_32_RPKv
Kr:__ZL14Scan2x_32_15_RPKv
Lr:__ZL14NormalDh_8_8_RPKv
Mr:__ZL14Scan2x_32_32_RPKv
Nr:__ZL10read_latchjj
Or:__ZL13read_kcl_filePKcS0_b
Pr:__ZL7MakeEnvPcPt
Qr:__ZNK12_GLOBAL__N_116itanium_demangle13ReferenceType9printLeftERNS_12OutputStreamE
Rr:__ZL14EMM_MapSegmentjtt
Sr:__ZN8isoDrive12readDirEntryEP11isoDirEntryPh
Tr:__ZL13RGB2x_16_16_RPKv
Ur:__ZL13RGB2x_15_15_RPKv
Vr:_init_block
Wr:__ZN8isoDrive8FindNextER7DOS_DTA
Xr:__ZN12_GLOBAL__N_116itanium_demangle14PODSmallVectorIPNS0_4NodeELm8EEaSEOS4_
Yr:__ZN6MPU401C2EP7Section
Zr:__ZL16NormalDh_16_15_RPKv
_r:__ZN5DBOPL7Channel7WriteC0EPKNS_4ChipEh
$r:__ZL16NormalDh_15_16_RPKv
as:__ZL11TV2x_8_16_LPKv
bs:__ZL11TV2x_8_15_LPKv
cs:__Z9IO_WriteWjj
ds:__ZN4BOOT9getFSFileEPKcPjS2_b
es:__ZL16NormalDh_16_32_RPKv
fs:__ZL16NormalDh_15_32_RPKv
gs:__ZNKSt3__27num_putIwNS_19ostreambuf_iteratorIwNS_11char_traitsIwEEEEE6do_putES4_RNS_8ios_baseEwx
hs:__ZNKSt3__27num_putIcNS_19ostreambuf_iteratorIcNS_11char_traitsIcEEEEE6do_putES4_RNS_8ios_baseEcx
is:__ZL16NormalDh_32_16_RPKv
js:__Z9IO_WriteBjj
ks:__ZNKSt3__27num_putIwNS_19ostreambuf_iteratorIwNS_11char_traitsIwEEEEE6do_putES4_RNS_8ios_baseEwy
ls:__ZNKSt3__27num_putIcNS_19ostreambuf_iteratorIcNS_11char_traitsIcEEEEE6do_putES4_RNS_8ios_baseEcy
ms:__ZL16NormalDh_32_15_RPKv
ns:_mbsnrtowcs
os:__ZN8fatDrive15getFileDirEntryEPKcP8direntryPjS4_
ps:__ZL16Normal2x_16_16_RPKv
qs:__ZL16Normal2x_15_15_RPKv
rs:__ZN3DOSC2EP7Section
ss:__ZL15NormalDw_8_32_RPKv
ts:__ZL14Scan2x_16_16_RPKv
us:__ZL14Scan2x_15_15_RPKv
vs:__ZL11TV2x_8_32_LPKv
ws:__ZN21CDROM_Interface_Image15CDAudioCallBackEj
xs:__ZL16saa1099_envelopeii
ys:__ZL15NormalDw_8_16_RPKv
zs:__ZL15NormalDw_8_15_RPKv
As:__Z15DOS_SetupMemoryv
Bs:__ZN12_GLOBAL__N_116itanium_demangle22AbstractManglingParserINS0_14ManglingParserINS_16DefaultAllocatorEEES3_E15parseCallOffsetEv
Cs:__ZL16NormalDh_32_32_RPKv
Ds:__ZL12SN76496Writejjj
Es:__ZNSt3__216__pad_and_outputIwNS_11char_traitsIwEEEENS_19ostreambuf_iteratorIT_T0_EES6_PKS4_S8_S8_RNS_8ios_baseES4_
Fs:__Z18XGA_DrawLineVectorj
Gs:__ZN5DBOPL4Chip14GenerateBlock3EjPi
Hs:__Z9IO_WriteDjj
Is:__ZL13read_kcl_dataPhjPKcb
Js:___shgetc
Ks:__ZN5DBOPL4Chip14GenerateBlock2EjPi
Ls:__ZN5TIMERC2EP7Section
Ms:__ZNK12_GLOBAL__N_116itanium_demangle22ParameterPackExpansion9printLeftERNS_12OutputStreamE
Ns:__ZL15Normal1x_8_16_RPKv
Os:__ZL15Normal1x_8_15_RPKv
Ps:__Z8IO_ReadWj
Qs:__Z13DOS_FindFirstPctb
Rs:__Z8IO_ReadBj
Ss:_fgets
Ts:__ZNK12_GLOBAL__N_116itanium_demangle9ArrayType10printRightERNS_12OutputStreamE
Us:__ZN5INTRO3RunEv
Vs:__ZN12_GLOBAL__N_116itanium_demangle22AbstractManglingParserINS0_14ManglingParserINS_16DefaultAllocatorEEES3_E19parseUnresolvedTypeEv
Ws:__ZN9DOS_Shell9DoCommandEPc
Xs:__Z18FinishSetMode_ET4KjP17VGA_ModeExtraData
Ys:___vfprintf_internal
Zs:__ZL16NormalDh_16_16_RPKv
_s:__ZL16NormalDh_15_15_RPKv
$s:__ZL15Normal1x_8_32_RPKv
at:__ZL14NormalDw_8_8_RPKv
bt:__ZN9PCSPEAKERC2EP7Section
ct:__ZN7CMscdex9StopAudioEh
dt:__ZL12RGB2x_8_16_LPKv
et:__ZN5DBOPL4Chip7WriteBDEh
ft:__ZL12RGB2x_8_15_LPKv
gt:__ZL12TV2x_32_16_LPKv
ht:__ZN7CSerialC2EjP11CommandLine
it:__ZL12TV2x_16_32_LPKv
jt:__ZL12TV2x_15_16_LPKv
kt:__ZL12TV2x_16_15_LPKv
lt:__ZN9DOS_Shell8CMD_TIMEEPc
mt:__ZL12TV2x_15_32_LPKv
nt:__ZN13CFCSBindGroup14UpdateJoystickEv
ot:_zip_stat_index
pt:__ZL14Normal1x_8_8_RPKv
qt:__Z8IO_ReadDj
rt:__ZNSt3__216__pad_and_outputIcNS_11char_traitsIcEEEENS_19ostreambuf_iteratorIT_T0_EES6_PKS4_S8_S8_RNS_8ios_baseES4_
st:__ZL13INT74_Handlerv
tt:__ZL12TV2x_32_15_LPKv
ut:__Z20PCSPEAKER_SetCounterjj
vt:__ZN7CMscdex14ChannelControlEh5SCtrl
wt:__ZL12RGB2x_8_32_LPKv
xt:__ZL12TV2x_32_32_LPKv
yt:__ZNSt3__215basic_stringbufIcNS_11char_traitsIcEENS_9allocatorIcEEE3strERKNS_12basic_stringIcS2_S4_EE
zt:__ZNK10__cxxabiv120__si_class_type_info16search_below_dstEPNS_19__dynamic_cast_infoEPKvib
At:__ZN8fatDrive15getClusterValueEj
Bt:__Z8VGA_InitP7Section
Ct:__Z17CPU_CheckSegmentsv
Dt:__ZL15Normal2x_8_32_LPKv
Et:__ZL15Normal2x_8_16_LPKv
Ft:__ZL15Normal2x_8_15_LPKv
Gt:__ZNK6Config22GetSectionFromPropertyEPKc
Ht:__ZN15DOS_Drive_Cache11GetLongNameEPNS_9CFileInfoEPc
It:__ZL13Scan2x_8_32_LPKv
Jt:__ZL13Scan2x_8_16_LPKv
Kt:__ZL13Scan2x_8_15_LPKv
Lt:_deflateReset
Mt:__ZN12MixerChannel10AddSamplesIhLb0ELb0ELb1EEEvjPKT_
Nt:__ZN12MixerChannel10AddSamplesItLb0ELb0ELb1EEEvjPKT_
Ot:__ZN9DOS_Shell8CMD_TYPEEPc
Pt:__zip_file_get_end
Qt:__ZL16NormalDw_16_32_RPKv
Rt:__ZL16NormalDw_15_32_RPKv
St:__ZN8isoDrive6lookupEP11isoDirEntryPKc
Tt:_inflateReset2
Ut:__ZNSt3__224__put_character_sequenceIcNS_11char_traitsIcEEEERNS_13basic_ostreamIT_T0_EES7_PKS4_m
Vt:__ZN10localDrive10FileUnlinkEPc
Wt:___dynamic_cast
Xt:__ZNSt3__213basic_ostreamIcNS_11char_traitsIcEEElsEj
Yt:__ZNSt3__213basic_ostreamIcNS_11char_traitsIcEEElsEi
Zt:__ZNSt3__213basic_ostreamIcNS_11char_traitsIcEEElsEb
_t:__ZN8fatDrive17addDirectoryEntryEj8direntry
$t:__ZNSt3__26vectorIN21CDROM_Interface_Image5TrackENS_9allocatorIS2_EEE21__push_back_slow_pathIKS2_EEvRT_
au:__ZN5MIXER3RunEv
bu:__ZNSt3__213basic_ostreamIcNS_11char_traitsIcEEElsEd
cu:__ZN12MixerChannel10AddSamplesIsLb0ELb1ELb1EEEvjPKT_
du:__ZN12MixerChannel10AddSamplesIiLb0ELb1ELb1EEEvjPKT_
eu:__ZL13RGB2x_16_32_LPKv
fu:__ZL13RGB2x_15_32_LPKv
gu:__ZN12MixerChannel10AddSamplesIaLb0ELb1ELb1EEEvjPKT_
hu:__ZL19InitializeJoysticksv
iu:___stdio_write
ju:__ZL16NormalDw_16_15_RPKv
ku:__ZL16NormalDw_15_16_RPKv
lu:__ZL16NormalDw_32_16_RPKv
mu:__ZL16NormalDw_32_15_RPKv
nu:__ZL13RGB2x_32_16_LPKv
ou:__ZL16NormalDw_32_32_RPKv
pu:__ZNK12_GLOBAL__N_116itanium_demangle16FloatLiteralImplIdE9printLeftERNS_12OutputStreamE
qu:__ZL12TV2x_16_16_LPKv
ru:__ZNSt3__26vectorINS_12basic_stringIcNS_11char_traitsIcEENS_9allocatorIcEEEENS4_IS6_EEE21__push_back_slow_pathIS6_EEvOT_
su:__ZN3GUSD2Ev
tu:__ZL12TV2x_15_15_LPKv
uu:__ZNSt3__213basic_filebufIcNS_11char_traitsIcEEE5imbueERKNS_6localeE
vu:__ZN6ConfigC2EP11CommandLine
wu:__ZNSt3__24listIP5CBindNS_9allocatorIS2_EEE6removeERKS2_
xu:__ZL13RGB2x_32_32_LPKv
yu:__ZN15CStickBindGroup14UpdateJoystickEv
zu:__ZL13RGB2x_32_15_LPKv
Au:__ZNK12Section_prop7Get_hexERKNSt3__212basic_stringIcNS0_11char_traitsIcEENS0_9allocatorIcEEEE
Bu:__ZL15NormalDh_8_32_LPKv
Cu:__ZL15NormalDh_8_16_LPKv
Du:__ZL15NormalDh_8_15_LPKv
Eu:__ZL14Normal2x_8_8_LPKv
Fu:__ZL10write_p3c9jjj
Gu:__ZL16Normal1x_16_32_RPKv
Hu:__ZL16Normal1x_15_32_RPKv
Iu:__ZN7CSerial7GetcharEPhS0_bj
Ju:__ZL13RGB2x_16_15_LPKv
Ku:___mo_lookup
Lu:__ZL14NormalDh_8_8_LPKv
Mu:__ZL6Fetchdv
Nu:__Z25INT10_SetBackgroundBorderh
Ou:__ZL13RGB2x_15_16_LPKv
Pu:__ZL16Normal1x_32_16_RPKv
Qu:__Z10write_p3c5jjj
Ru:__ZL16Normal2x_16_32_LPKv
Su:__ZL16Normal2x_15_32_LPKv
Tu:__ZL16Normal1x_32_15_RPKv
Uu:__ZL16Normal1x_16_15_RPKv
Vu:_mbtowc
Wu:__ZL16Normal1x_15_16_RPKv
Xu:__ZL14Scan2x_16_32_LPKv
Yu:__ZL14Scan2x_15_32_LPKv
Zu:__ZL28demangling_terminate_handlerv
_u:__ZL16Normal1x_32_32_RPKv
$u:__ZN12_GLOBAL__N_116itanium_demangle22AbstractManglingParserINS0_14ManglingParserINS_16DefaultAllocatorEEES3_E15parseSourceNameEPNS5_9NameStateE
av:___fdopen
bv:__ZNSt3__212basic_stringIwNS_11char_traitsIwEENS_9allocatorIwEEE21__grow_by_and_replaceEmmmmmmPKw
cv:__ZL16Normal2x_32_16_LPKv
dv:__ZL16Normal2x_32_15_LPKv
ev:__ZN10DmaChannel5WriteEjPh
fv:__ZL16Normal2x_16_15_LPKv
gv:__ZL14Scan2x_32_16_LPKv
hv:__Z17XGA_DrawRectanglej
iv:__ZL16Normal2x_15_16_LPKv
jv:__ZL14Scan2x_32_15_LPKv
kv:__ZN6CONFIG9writeconfENSt3__212basic_stringIcNS0_11char_traitsIcEENS0_9allocatorIcEEEEb
lv:__ZL14Scan2x_16_15_LPKv
mv:__ZNK12_GLOBAL__N_116itanium_demangle16FloatLiteralImplIfE9printLeftERNS_12OutputStreamE
nv:__ZL16NormalDw_16_16_RPKv
ov:__ZL16NormalDw_15_15_RPKv
pv:__ZL14Scan2x_15_16_LPKv
qv:__ZL16Normal2x_32_32_LPKv
rv:__ZN5Value7set_hexERKNSt3__212basic_stringIcNS0_11char_traitsIcEENS0_9allocatorIcEEEE
sv:__ZL14Scan2x_32_32_LPKv
tv:__Z16PAGING_PageFaultjjj
uv:__zip_read_eocd
vv:__ZL15NormalDw_9_32_LPKv
wv:__ZL15NormalDw_9_16_LPKv
xv:__ZL15NormalDw_9_15_LPKv
yv:__Z32INT10_EGA_RIL_WriteRegisterRangehhtj
zv:__Z7CPU_JMPbjjj
Av:__ZN3CPUC2EP7Section
Bv:__ZN6Config8ParseEnvEPPc
Cv:__ZL13RGB2x_16_16_LPKv
Dv:__ZL13RGB2x_15_15_LPKv
Ev:__ZN9DOS_Shell8CMD_GOTOEPc
Fv:_zip_source_read
Gv:__ZL16Normal1x_16_16_RPKv
Hv:__ZL16Normal1x_15_15_RPKv
Iv:__ZNKSt3__27num_putIwNS_19ostreambuf_iteratorIwNS_11char_traitsIwEEEEE6do_putES4_RNS_8ios_baseEwPKv
Jv:__ZNK12_GLOBAL__N_116itanium_demangle16FloatLiteralImplIeE9printLeftERNS_12OutputStreamE
Kv:__ZN7CSerial11handleEventEt
Lv:__Z10DOS_RenamePKcS0_
Mv:__ZL16NormalDh_16_32_LPKv
Nv:__ZL16NormalDh_15_32_LPKv
Ov:__ZN8fatDrive15directoryChangeEjP8direntryi
Pv:__ZL15write_tandy_regh
Qv:__ZN14AutoexecObject7InstallERKNSt3__212basic_stringIcNS0_11char_traitsIcEENS0_9allocatorIcEEEE
Rv:__ZNKSt3__27num_putIcNS_19ostreambuf_iteratorIcNS_11char_traitsIcEEEEE6do_putES4_RNS_8ios_baseEcPKv
Sv:__ZNSt3__212__hash_tableINS_17__hash_value_typeINS_12basic_stringIcNS_11char_traitsIcEENS_9allocatorIcEEEEPFvRKS7_PKcPFvS9_RK10jsonstreamEEEENS_22__unordered_map_hasherIS7_SJ_NS_4hashIS7_EELb1EEENS_21__unordered_map_equalIS7_SJ_NS_8equal_toIS7_EELb1EEENS5_ISJ_EEE6rehashEm
Tv:__Z20SVGA_Setup_TsengET4Kv
Uv:_wcsnrtombs
Vv:__Z13DOS_Terminatetbh
Wv:__ZL15Normal1x_9_16_LPKv
Xv:__ZL15Normal1x_9_15_LPKv
Yv:__ZN9DOS_Shell7CMD_VEREPc
Zv:__ZN7isoFile4ReadEPhPt
_v:__ZL16NormalDh_32_16_LPKv
$v:__ZL13cmos_writeregjjj
aw:__ZL16NormalDh_32_15_LPKv
bw:__ZL15Normal1x_9_32_LPKv
cw:__ZNK12_GLOBAL__N_116itanium_demangle19PointerToMemberType9printLeftERNS_12OutputStreamE
dw:__ZL16NormalDh_16_15_LPKv
ew:__ZN12_GLOBAL__N_116itanium_demangle22AbstractManglingParserINS0_14ManglingParserINS_16DefaultAllocatorEEES3_E13parseDecltypeEv
fw:__ZL16NormalDh_15_16_LPKv
gw:__ZNKSt3__28messagesIcE6do_getEliiRKNS_12basic_stringIcNS_11char_traitsIcEENS_9allocatorIcEEEE
hw:__ZL15VCPI_PM_Handlerv
iw:__ZNSt3__26vectorIPNS_6locale5facetENS_15__sso_allocatorIS3_Lm28EEEE8__appendEm
jw:__ZN15DOS_Drive_Cache7ReadDirEtRPc
kw:__ZL16NormalDh_32_32_LPKv
lw:__ZN5CBind8AddFlagsEPc
mw:__ZL16Normal2x_16_16_LPKv
nw:__ZL16Normal2x_15_15_LPKv
ow:__ZN10DmaChannel4ReadEjPh
pw:__ZL6Fetchwv
qw:__ZN13DmaController17ReadControllerRegEjj
rw:__ZL14Scan2x_16_16_LPKv
sw:__ZL14Scan2x_15_15_LPKv
tw:__ZNK12_GLOBAL__N_116itanium_demangle8CastExpr9printLeftERNS_12OutputStreamE
uw:__ZL20read_crtc_data_otherjj
vw:__ZN5Adlib7Capture10MakeTablesEv
ww:__Z9CPU_ENTERbjj
xw:__ZN7CMscdex14GetAudioStatusEhRbS0_R4SMSFS2_
yw:__ZL19printconfiglocationv
zw:___cxa_demangle
Aw:__ZNK12_GLOBAL__N_116itanium_demangle15ConditionalExpr9printLeftERNS_12OutputStreamE
Bw:__ZN8fatDrive15directoryBrowseEjP8direntryii
Cw:__zip_guess_encoding
Dw:__Z15write_p3d5_et4kjjj
Ew:__ZN8fatDrive14getDirClustNumEPcPjb
Fw:__Z29VGA_ATTR_SetEGAMonitorPalette14EGAMonitorMode
Gw:__Z11XGA_DrawCmdjj
Hw:__ZNSt3__26vectorINS_12basic_stringIcNS_11char_traitsIcEENS_9allocatorIcEEEENS4_IS6_EEE21__push_back_slow_pathIKS6_EEvRT_
Iw:__Z23RestoreCursorBackgroundv
Jw:__ZN3DMAC2EP7Section
Kw:__ZN9imageDiskC2EP8_IO_FILEPhjb
Lw:__Z18FinishSetMode_ET3KjP17VGA_ModeExtraData
Mw:__ZL13Check_Palettev
Nw:__ZN21CDROM_Interface_Image12GetCueStringERNSt3__212basic_stringIcNS0_11char_traitsIcEENS0_9allocatorIcEEEERNS0_13basic_istreamIcS3_EE
Ow:_buffer_find_fragment
Pw:__ZNSt3__213basic_filebufIcNS_11char_traitsIcEEE7seekoffExNS_8ios_base7seekdirEj
Qw:__ZN15C4AxisBindGroup14UpdateJoystickEv
Rw:__Z16VideoModeMemSizej
Sw:__Z10XGA_CheckXv
Tw:__ZN15CStickBindGroupD2Ev
Uw:__ZL16NormalDh_16_16_LPKv
Vw:__ZL16NormalDh_15_15_LPKv
Ww:__ZN9DOS_Shell8CMD_HELPEPc
Xw:__ZL6Fetchbv
Yw:__ZNSt3__212basic_stringIcNS_11char_traitsIcEENS_9allocatorIcEEE21__grow_by_and_replaceEmmmmmmPKc
Zw:__ZNSt3__216__check_groupingERKNS_12basic_stringIcNS_11char_traitsIcEENS_9allocatorIcEEEEPjS8_Rj
_w:__ZL16HandleNameSearchv
$w:__ZNK12Section_prop12Get_multivalERKNSt3__212basic_stringIcNS0_11char_traitsIcEENS0_9allocatorIcEEEE
ax:__ZNK12Section_prop10Get_stringERKNSt3__212basic_stringIcNS0_11char_traitsIcEENS0_9allocatorIcEEEE
bx:__ZN5Value7set_intERKNSt3__212basic_stringIcNS0_11char_traitsIcEENS0_9allocatorIcEEEE
cx:__ZNK12Section_prop8Get_pathERKNSt3__212basic_stringIcNS0_11char_traitsIcEENS0_9allocatorIcEEEE
dx:__Z14XMS_MoveMemoryj
ex:_zip_discard
fx:__Z17DOS_FCBRenameFilett
gx:__ZL15LoadMessageFilePKc
hx:__ZN5Value10set_doubleERKNSt3__212basic_stringIcNS0_11char_traitsIcEENS0_9allocatorIcEEEE
ix:__Z20INT10_SetCursorShapehh
jx:__ZNSt3__212basic_stringIcNS_11char_traitsIcEENS_9allocatorIcEEE6insertEmPKcm
kx:__ZNK12Section_prop8Get_boolERKNSt3__212basic_stringIcNS0_11char_traitsIcEENS0_9allocatorIcEEEE
lx:__ZNK12Section_prop7Get_intERKNSt3__212basic_stringIcNS0_11char_traitsIcEENS0_9allocatorIcEEEE
mx:__ZN4BOOT17getFSFile_mountedEPKcPjS2_Ph
nx:__ZNK12_GLOBAL__N_116itanium_demangle10VectorType9printLeftERNS_12OutputStreamE
ox:__ZN8isoDrive15GetNextDirEntryEiP11isoDirEntry
px:__Z20INT10_SetColorSelecth
qx:__Z15FPU_ESC6_Normalj
rx:__ZN7CSerial9Write_FCREh
sx:__ZN5DBOPL7Channel7WriteB0EPKNS_4ChipEh
tx:_zip_error_strerror
ux:__ZNK12_GLOBAL__N_116itanium_demangle15ClosureTypeName9printLeftERNS_12OutputStreamE
vx:__ZNSt3__213basic_filebufIcNS_11char_traitsIcEEE6setbufEPcl
wx:__Z4trimRNSt3__212basic_stringIcNS_11char_traitsIcEENS_9allocatorIcEEEE
xx:__ZN5Value8SetValueERKNSt3__212basic_stringIcNS0_11char_traitsIcEENS0_9allocatorIcEEEENS_5EtypeE
yx:__ZN12MixerChannel12AddStretchedEjPs
zx:__Z20DOS_OpenFileExtendedPKctttPtS1_
Ax:__zip_headercomp
Bx:__Z7CPU_LARjRj
Cx:__ZN12_GLOBAL__N_116itanium_demangle22AbstractManglingParserINS0_14ManglingParserINS_16DefaultAllocatorEEES3_E20parseFloatingLiteralIeEEPNS0_4NodeEv
Dx:__ZN12_GLOBAL__N_116itanium_demangle22AbstractManglingParserINS0_14ManglingParserINS_16DefaultAllocatorEEES3_E20parseFloatingLiteralIdEEPNS0_4NodeEv
Ex:__ZL12IRQ_TandyDACv
Fx:__Z31INT10_EGA_RIL_ReadRegisterRangehhtj
Gx:__ZN12_GLOBAL__N_116itanium_demangle22AbstractManglingParserINS0_14ManglingParserINS_16DefaultAllocatorEEES3_E20parseFloatingLiteralIfEEPNS0_4NodeEv
Hx:__ZN15DOS_Drive_Cache8CacheOutEPKcb
Ix:__Z23INT10_ToggleBlinkingBith
Jx:__zip_ef_write
Kx:__ZN22CALLBACK_HandlerObject9UninstallEv
Lx:__ZL20tandy_update_palettev
Mx:__ZN8isoDrive8FileOpenEPP8DOS_FilePcj
Nx:__Z14DrawCursorTextv
Ox:_copy_source
Px:__ZL17DSP_DoDMATransfer9DMA_MODESjb
Qx:__zip_stat_merge
Rx:__Z11MAPPER_Initv
Sx:__ZNSt3__26vectorINS_12basic_stringIcNS_11char_traitsIcEENS_9allocatorIcEEEENS4_IS6_EEE26__swap_out_circular_bufferERNS_14__split_bufferIS6_RS7_EEPS6_
Tx:__Z15write_p3d5_et3kjjj
Ux:__ZN3EMSD2Ev
Vx:__ZL15eraseconfigfilev
Wx:__ZNKSt3__28time_getIwNS_19istreambuf_iteratorIwNS_11char_traitsIwEEEEE11__get_am_pmERiRS4_S4_RjRKNS_5ctypeIwEE
Xx:__ZNKSt3__28time_getIcNS_19istreambuf_iteratorIcNS_11char_traitsIcEEEEE11__get_am_pmERiRS4_S4_RjRKNS_5ctypeIcEE
Yx:__ZN12CCheckButton4DrawEv
Zx:__ZL18VGA_TEXT_Draw_Linejj
_x:_deflateEnd
$x:__ZNSt3__213basic_istreamIcNS_11char_traitsIcEEErsERi
ay:__Z8MSG_InitP12Section_prop
by:__Z14TIMER_SetGate2b
cy:__ZN4OPL322operator_advance_drumsEPNS_15operator_structEiS1_iS1_i
dy:__ZN4OPL222operator_advance_drumsEPNS_15operator_structEiS1_iS1_i
ey:__ZN4OPL317change_attackrateEjPNS_15operator_structE
fy:__ZN4OPL217change_attackrateEjPNS_15operator_structE
gy:__ZL19VGA_Draw_CGA16_Linejj
hy:__ZN8fatDrive9RemoveDirEPc
iy:__ZL10FPU_FPREM1v
jy:__Z18mem_unalignedreaddj
ky:__ZNSt3__26vectorIPN15DOS_Drive_Cache9CFileInfoENS_9allocatorIS3_EEE21__push_back_slow_pathIKS3_EEvRT_
ly:__ZL15NormalDw_8_32_LPKv
my:__ZL15NormalDw_8_16_LPKv
ny:__ZL15NormalDw_8_15_LPKv
oy:__Z7CPU_LSLjRj
py:_memchr
qy:__Z10MOUSE_InitP7Section
ry:__zip_changed
sy:__ZN22VGA_ChainedVGA_Handler6writedEjj
ty:__ZL13INT2E_Handlerv
uy:__Z18DOS_FCBRandomWritettPtb
vy:__ZN8Property10CheckValueERK5Valueb
wy:__Z17DOS_BuildUMBChainbb
xy:__ZNSt3__213basic_filebufIcNS_11char_traitsIcEEE4openEPKcj
yy:__ZL16TandyDAC_Handlerh
zy:__Z15BIOS_SetupDisksv
Ay:__ZNK12_GLOBAL__N_116itanium_demangle15BracedRangeExpr9printLeftERNS_12OutputStreamE
By:__ZN5Adlib4Chip5WriteEjh
Cy:__Z20INT10_ReloadRomFontsv
Dy:___stpncpy
Ey:__ZN9DOS_Shell12CMD_LOADHIGHEPc
Fy:__ZN12_GLOBAL__N_116itanium_demangle22AbstractManglingParserINS0_14ManglingParserINS_16DefaultAllocatorEEES3_E13parseSimpleIdEv
Gy:__ZL11useFreeInfoP8FreeInfom
Hy:__ZL16GUS_DMA_CallbackP10DmaChannel8DMAEvent
Iy:__ZL16extendLastRegionm
Jy:__ZNSt3__225__num_get_signed_integralIlEET_PKcS3_Rji
Ky:__ZL16DMA_Silent_Eventj
Ly:__ZL16CreateStringBindPc
My:__ZNKSt3__215basic_stringbufIcNS_11char_traitsIcEENS_9allocatorIcEEE3strEv
Ny:__ZN12_GLOBAL__N_116itanium_demangle22AbstractManglingParserINS0_14ManglingParserINS_16DefaultAllocatorEEES3_E24parsePointerToMemberTypeEv
Oy:__ZNSt3__215basic_stringbufIcNS_11char_traitsIcEENS_9allocatorIcEEE9pbackfailEi
Py:__ZL18DOS_CompressMemoryv
Qy:__ZL15Normal1x_8_16_LPKv
Ry:__ZL15Normal1x_8_15_LPKv
Sy:__Z22MSCDEX_HasMediaChangedh
Ty:__ZNSt3__227__num_get_unsigned_integralIyEET_PKcS3_Rji
Uy:__ZL15erasemapperfilev
Vy:__ZL15Normal1x_8_32_LPKv
Wy:__ZL14DMA_BlockWritejjPvjh
Xy:__ZL13DMA_BlockReadjjPvjh
Yy:__ZNKSt3__28time_putIwNS_19ostreambuf_iteratorIwNS_11char_traitsIwEEEEE6do_putES4_RNS_8ios_baseEwPK2tmcc
Zy:__zip_source_call
_y:__ZNKSt3__28time_putIcNS_19ostreambuf_iteratorIcNS_11char_traitsIcEEEEE6do_putES4_RNS_8ios_baseEcPK2tmcc
$y:__ZL11EMM_MapPagejtt
az:__Z19mem_unalignedwritedjj
bz:__ZNSt3__213basic_istreamIcNS_11char_traitsIcEEErsERd
cz:__ZL9FPU_FLD80j
dz:__ZL14NormalDw_8_8_LPKv
ez:___fwritex
fz:__ZL17CAPTURE_WaveEventb
gz:__ZNSt3__213basic_ostreamIcNS_11char_traitsIcEEE3putEc
hz:__ZN6DISNEYC2EP7Section
iz:__ZL16MAPPER_SaveBindsv
jz:__ZNSt3__26vectorIP13CHandlerEventNS_9allocatorIS2_EEE21__push_back_slow_pathIKS2_EEvRT_
kz:__ZN8fatDrive24getAbsoluteSectFromChainEjj
lz:_strspn
mz:__ZL14Normal1x_8_8_LPKv
nz:__ZL13MIXER_MixDataj
oz:__ZL17CAPTURE_MidiEventb
pz:__ZN11CommandLine15FindStringBeginEPKcRNSt3__212basic_stringIcNS2_11char_traitsIcEENS2_9allocatorIcEEEEb
qz:__Z11DOS_FCBOpentt
rz:__ZN13CKeyBindGroup10CheckEventEP9SDL_Event
sz:_buffer_free
tz:__zip_cdir_grow
uz:__ZNSt3__26vectorIPFvPP7ProgramENS_9allocatorIS5_EEE21__push_back_slow_pathIKS5_EEvRT_
vz:__ZN7DOS_PSP7MakeNewEt
wz:__zip_string_new
xz:__ZNSt3__26vectorIP10CBindGroupNS_9allocatorIS2_EEE21__push_back_slow_pathIKS2_EEvRT_
yz:__ZN11CommandLineC2EiPKPKc
zz:__Z12PIC_RunQueuev
Az:__ZNSt3__26vectorI10copysourceNS_9allocatorIS1_EEE21__push_back_slow_pathIKS1_EEvRT_
Bz:__ZL8read_gusjj
Cz:__ZN12_GLOBAL__N_116itanium_demangle22AbstractManglingParserINS0_14ManglingParserINS_16DefaultAllocatorEEES3_E26resolveForwardTemplateRefsERNS5_9NameStateE
Dz:__ZL16NormalDw_16_32_LPKv
Ez:__ZL16NormalDw_15_32_LPKv
Fz:__ZL15MPU401_ReadDatajj
Gz:__ZNK12_GLOBAL__N_116itanium_demangle11PointerType10printRightERNS_12OutputStreamE
Hz:__Z13DoPS2Callbacktss
Iz:__Z23DOS_ForceDuplicateEntrytt
Jz:__Z15INT10_WriteCharhhhtb
Kz:__ZNSt3__213basic_filebufIcNS_11char_traitsIcEEE7seekposENS_4fposI11__mbstate_tEEj
Lz:__ZNSt3__26vectorIP9DOS_DriveNS_9allocatorIS2_EEE21__push_back_slow_pathIKS2_EEvRT_
Mz:__ZN4BIOSD2Ev
Nz:__ZL21CTMIXER_UpdateVolumesv
Oz:__ZL10EA_32_04_nv
Pz:__ZZN6Events20registerPushSDLEventEvENK3__3clERKNSt3__212basic_stringIcNS1_11char_traitsIcEENS1_9allocatorIcEEEEPKcPFvS9_RK10jsonstreamE
Qz:__ZNK12_GLOBAL__N_116itanium_demangle13ReferenceType10printRightERNS_12OutputStreamE
Rz:__ZN3XMSD2Ev
Sz:__ZN13CFCSBindGroup10CheckEventEP9SDL_Event
Tz:__Z7CPU_LTRj
Uz:__Z18RENDER_StartUpdatev
Vz:__ZL16NormalDw_32_16_LPKv
Wz:__Z28INT10_SetAllPaletteRegistersj
Xz:__ZL16NormalDw_32_15_LPKv
Yz:__ZNSt3__26vectorIP7CButtonNS_9allocatorIS2_EEE21__push_back_slow_pathIKS2_EEvRT_
Zz:__Z13DOS_CloseFiletb
_z:__ZNSt3__213basic_filebufIcNS_11char_traitsIcEEEC2Ev
$z:__ZN12_GLOBAL__N_116DefaultAllocator8makeNodeINS_16itanium_demangle7NewExprEJRNS2_9NodeArrayERPNS2_4NodeES5_RbS9_EEEPT_DpOT0_
aA:__ZN12_GLOBAL__N_116DefaultAllocator8makeNodeINS_16itanium_demangle7NewExprEJRNS2_9NodeArrayERPNS2_4NodeES4_RbS9_EEEPT_DpOT0_
bA:__ZN11CommandLine5ShiftEj
cA:__ZL16NormalDw_16_15_LPKv
dA:__ZN13CFCSBindGroup17DecodeHatPositionEh
eA:__ZN12_GLOBAL__N_116itanium_demangle22AbstractManglingParserINS0_14ManglingParserINS_16DefaultAllocatorEEES3_E19parseDestructorNameEv
fA:__ZL16NormalDw_15_16_LPKv
gA:__ZNSt3__212basic_stringIwNS_11char_traitsIwEENS_9allocatorIwEEE9__grow_byEmmmmmm
hA:__ZL11SERIAL_Readjj
iA:__ZNSt3__26vectorIP6CEventNS_9allocatorIS2_EEE21__push_back_slow_pathIKS2_EEvRT_
jA:___stdio_read
kA:__ZL16NormalDw_32_32_LPKv
lA:_fread
mA:_decrypt
nA:__ZN15CStickBindGroup15CreateEventBindEP9SDL_Event
oA:__ZNSt3__26vectorI5ValueNS_9allocatorIS1_EEE21__push_back_slow_pathIKS1_EEvRT_
pA:__Z17DOS_FCBRandomReadttPtb
qA:__ZN7CSerial7PutcharEhbbj
rA:__ZN4CMOSC2EP7Section
sA:__ZN5CBind14DeActivateBindEb
tA:__ZNSt3__27__sort5IRPFbRKPN15DOS_Drive_Cache9CFileInfoES5_EPS3_EEjT0_SA_SA_SA_SA_T_
uA:__ZN8Property10Set_valuesEPKPKc
vA:__ZL16Normal1x_16_32_LPKv
wA:__ZL16Normal1x_15_32_LPKv
xA:__ZL13SetActiveBindP5CBind
yA:__Z17VGA_DetermineModev
zA:__ZNK12_GLOBAL__N_116itanium_demangle10BracedExpr9printLeftERNS_12OutputStreamE
AA:__ZNSt3__227__num_get_unsigned_integralItEET_PKcS3_Rji
BA:__ZN8isoDrive9FindFirstEPcR7DOS_DTAb
CA:__ZNK12_GLOBAL__N_116itanium_demangle18ArraySubscriptExpr9printLeftERNS_12OutputStreamE
DA:__ZNK12_GLOBAL__N_116itanium_demangle14ConversionExpr9printLeftERNS_12OutputStreamE
EA:_zip_source_seek_compute_offset
FA:__zip_ef_merge
GA:__ZL14SaveFindResultR7DOS_FCB
HA:__ZNK12_GLOBAL__N_116itanium_demangle10PrefixExpr9printLeftERNS_12OutputStreamE
IA:__ZN4OPL316change_frequencyEjjPNS_15operator_structE
JA:__ZN4OPL216change_frequencyEjjPNS_15operator_structE
KA:__ZNSt3__227__num_get_unsigned_integralImEET_PKcS3_Rji
LA:__ZNSt3__227__num_get_unsigned_integralIjEET_PKcS3_Rji
MA:__ZN7CMscdex15PlayAudioSectorEhjj
NA:__Z11MSG_ReplacePKcS0_
OA:__ZN11CommandLine10FindStringEPKcRNSt3__212basic_stringIcNS2_11char_traitsIcEENS2_9allocatorIcEEEEb
PA:__ZN9DOS_Shell9CMD_RMDIREPc
QA:_wcrtomb
RA:__ZN9DOS_Shell9CMD_MKDIREPc
SA:__ZL16Normal1x_32_32_LPKv
TA:__ZL16Normal1x_32_16_LPKv
UA:__ZL16Normal1x_32_15_LPKv
VA:__ZL14DMA_Write_Portjjj
WA:__ZL10EA_32_04_nv_425
XA:__ZN9BatchFileC2EP9DOS_ShellPKcS3_S3_
YA:__ZL16RestoreRegistersv
ZA:__ZL16Normal1x_16_15_LPKv
_A:__Z15PAGING_LinkPagejj
$A:__ZNK12_GLOBAL__N_116itanium_demangle12TemplateArgs9printLeftERNS_12OutputStreamE
aB:__ZL16Normal1x_15_16_LPKv
bB:__ZL14counter_outputj
cB:__ZL12MPU401_Eventj
dB:__Z6get_ZFv
eB:__Z6get_SFv
fB:__ZNK12_GLOBAL__N_116itanium_demangle10AbiTagAttr9printLeftERNS_12OutputStreamE
gB:__zip_dirent_finalize
hB:__ZNK12_GLOBAL__N_116itanium_demangle9NodeArray14printWithCommaERNS_12OutputStreamE
iB:__ZNSt3__212__hash_tableINS_17__hash_value_typeINS_12basic_stringIcNS_11char_traitsIcEENS_9allocatorIcEEEEPFvRKS7_PKcPFvS9_RK10jsonstreamEEEENS_22__unordered_map_hasherIS7_SJ_NS_4hashIS7_EELb1EEENS_21__unordered_map_equalIS7_SJ_NS_8equal_toIS7_EELb1EEENS5_ISJ_EEE16__construct_nodeIJNS_4pairISB_ZN6Events20registerPushSDLEventEvE3__3EEEEENS_10unique_ptrINS_11__hash_nodeISJ_PvEENS_22__hash_node_destructorINS5_IS12_EEEEEEDpOT_
jB:__Z17write_p3cf_pvga1ajjj
kB:__ZNK12_GLOBAL__N_116itanium_demangle13ObjCProtoName9printLeftERNS_12OutputStreamE
lB:__ZN4OPL315operator_attackEPNS_15operator_structE
mB:__ZN4OPL215operator_attackEPNS_15operator_structE
nB:__ZN13Prop_multivalC2ERKNSt3__212basic_stringIcNS0_11char_traitsIcEENS0_9allocatorIcEEEEN8Property10Changeable5ValueES8_
oB:__ZN12_GLOBAL__N_116itanium_demangle22AbstractManglingParserINS0_14ManglingParserINS_16DefaultAllocatorEEES3_E11parseNumberEb
pB:__ZNSt3__212__hash_tableINS_17__hash_value_typeINS_12basic_stringIcNS_11char_traitsIcEENS_9allocatorIcEEEEPFvRKS7_PKcPFvS9_RK10jsonstreamEEEENS_22__unordered_map_hasherIS7_SJ_NS_4hashIS7_EELb1EEENS_21__unordered_map_equalIS7_SJ_NS_8equal_toIS7_EELb1EEENS5_ISJ_EEE16__construct_nodeIJNS_4pairISB_ZN6Events18registerScreenshotEvE3__2EEEEENS_10unique_ptrINS_11__hash_nodeISJ_PvEENS_22__hash_node_destructorINS5_IS12_EEEEEEDpOT_
qB:__Z13XGA_DrawPointjjj
rB:__Z13DOS_WriteFiletPhPtb
sB:__ZL9read_p3cfjj
tB:__ZNK12_GLOBAL__N_116itanium_demangle9DotSuffix9printLeftERNS_12OutputStreamE
uB:__ZNK12_GLOBAL__N_116itanium_demangle8QualType10printQualsERNS_12OutputStreamE
vB:__ZNK12_GLOBAL__N_116itanium_demangle10DeleteExpr9printLeftERNS_12OutputStreamE
wB:__ZNK12_GLOBAL__N_116itanium_demangle15IntegerCastExpr9printLeftERNS_12OutputStreamE
xB:__ZNSt3__212__hash_tableINS_17__hash_value_typeINS_12basic_stringIcNS_11char_traitsIcEENS_9allocatorIcEEEEPFvRKS7_PKcPFvS9_RK10jsonstreamEEEENS_22__unordered_map_hasherIS7_SJ_NS_4hashIS7_EELb1EEENS_21__unordered_map_equalIS7_SJ_NS_8equal_toIS7_EELb1EEENS5_ISJ_EEE16__construct_nodeIJNS_4pairISB_ZN6Events12registerExitEvE3__1EEEEENS_10unique_ptrINS_11__hash_nodeISJ_PvEENS_22__hash_node_destructorINS5_IS12_EEEEEEDpOT_
yB:__ZN12_GLOBAL__N_116itanium_demangle22AbstractManglingParserINS0_14ManglingParserINS_16DefaultAllocatorEEES3_E15parseBinaryExprENS_10StringViewE
zB:__Z17SVGA_Setup_S3Triov
AB:__Z13PROGRAMS_InitP7Section
BB:__ZNSt3__212basic_stringIwNS_11char_traitsIwEENS_9allocatorIwEEE9push_backEw
CB:__ZN12_GLOBAL__N_116itanium_demangle14PODSmallVectorIPNS0_4NodeELm8EEC2EOS4_
DB:__ZL16NormalDw_16_16_LPKv
EB:__ZL16NormalDw_15_15_LPKv
FB:__ZNK13Prop_multival9GetValuesEv
GB:__ZNK12_GLOBAL__N_116itanium_demangle11PostfixExpr9printLeftERNS_12OutputStreamE
HB:__ZNK10__cxxabiv119__pointer_type_info16can_catch_nestedEPKNS_16__shim_type_infoE
IB:__ZL12SERIAL_Writejjj
JB:__ZN7ProgramC2Ev
KB:__Z15FPU_ESC7_Normalj
LB:__ZN21CDROM_Interface_Image11GetCueFrameERiRNSt3__213basic_istreamIcNS1_11char_traitsIcEEEE
MB:__ZN12_GLOBAL__N_116itanium_demangle22AbstractManglingParserINS0_14ManglingParserINS_16DefaultAllocatorEEES3_E19parseBareSourceNameEv
NB:__Z11CPU_SET_CRXjj
OB:__ZN7CSerial8Read_RHREv
PB:__ZN6MPU401D2Ev
QB:__ZN11CommandLine7FindIntEPKcRib
RB:__Z8CPU_VERRj
SB:__ZL23RENDER_StartLineHandlerPKv
TB:__Z11FPU_ESC5_EAjj
UB:__ZNSt3__212basic_stringIcNS_11char_traitsIcEENS_9allocatorIcEEE9push_backEc
VB:__Z9read_p3c1jj
WB:__ZNK10__cxxabiv117__class_type_info9can_catchEPKNS_16__shim_type_infoERPv
XB:__Z12VGA_SetClockjj
YB:__ZNSt3__212basic_stringIwNS_11char_traitsIwEENS_9allocatorIwEEE6appendEPKwm
ZB:__ZN12_GLOBAL__N_116DefaultAllocator8makeNodeINS_16itanium_demangle16FunctionEncodingEJRPNS2_4NodeES6_NS2_9NodeArrayES6_RNS2_10QualifiersERNS2_15FunctionRefQualEEEEPT_DpOT0_
_B:__ZL16Normal1x_16_16_LPKv
$B:__ZL16Normal1x_15_15_LPKv
aC:__ZL11Normal_Loopv
bC:__ZL10EA_32_84_nv
cC:__ZNSt3__26vectorI9SDL_EventNS_9allocatorIS1_EEE26__swap_out_circular_bufferERNS_14__split_bufferIS1_RS3_EEPS1_
dC:_memset
eC:__ZL14write_herculesjjj
fC:__ZNSt3__212basic_stringIwNS_11char_traitsIwEENS_9allocatorIwEEE6assignEPKwm
gC:__Z30INT10_EGA_RIL_WriteRegisterSettj
hC:_zip_source_open
iC:___stpcpy
jC:__ZNSt3__26vectorIPN15DOS_Drive_Cache9CFileInfoENS_9allocatorIS3_EEE26__swap_out_circular_bufferERNS_14__split_bufferIS3_RS5_EEPS3_
kC:__ZN7fatFile4SeekEPjj
lC:__ZNSt3__27__sort3IRPFbRKPN15DOS_Drive_Cache9CFileInfoES5_EPS3_EEjT0_SA_SA_T_
mC:__ZNSt3__212basic_stringIcNS_11char_traitsIcEENS_9allocatorIcEEE6appendEmc
nC:__Z19INT10_SetActivePageh
oC:__ZL17HandleMouseButtonP20SDL_MouseButtonEvent
pC:__ZL12CMS_CallBackj
qC:__ZNSt3__221__murmur2_or_cityhashImLm32EEclEPKvm
rC:__ZN7CSerial9Write_THREh
sC:__ZL13DMA_Read_Portjj
tC:__ZNKSt3__28time_getIwNS_19istreambuf_iteratorIwNS_11char_traitsIwEEEEE11do_get_dateES4_S4_RNS_8ios_baseERjP2tm
uC:__ZL13SaveRegistersv
vC:__Z18DOS_DuplicateEntrytPt
wC:_readdir
xC:__ZN12_GLOBAL__N_116itanium_demangle22AbstractManglingParserINS0_14ManglingParserINS_16DefaultAllocatorEEES3_E12parseAbiTagsEPNS0_4NodeE
yC:__ZL16GetSetHandleNamev
zC:__ZNKSt3__28time_getIcNS_19istreambuf_iteratorIcNS_11char_traitsIcEEEEE11do_get_dateES4_S4_RNS_8ios_baseERjP2tm
AC:__ZNSt3__212basic_stringIcNS_11char_traitsIcEENS_9allocatorIcEEE9__grow_byEmmmmmm
BC:__ZN7Program9GetEnvStrEPKcRNSt3__212basic_stringIcNS2_11char_traitsIcEENS2_9allocatorIcEEEE
CC:__ZNSt3__212basic_stringIcNS_11char_traitsIcEENS_9allocatorIcEEE6appendEPKcm
DC:__ZNSt3__213basic_filebufIcNS_11char_traitsIcEEE9pbackfailEi
EC:__ZNSt3__212basic_stringIcNS_11char_traitsIcEENS_9allocatorIcEEE6assignEPKcm
FC:__ZL7EGA_RILtRtS_
GC:__ZN8fatDrive11GetFileAttrEPcPt
HC:__Z15CAPTURE_AddWavejjPs
IC:__ZN8fatDrive8FileOpenEPP8DOS_FilePcj
JC:__ZN5MIXER10MakeVolumeEPcRfS1_
KC:__ZN15DOS_Drive_Cache7OpenDirEPNS_9CFileInfoEPKcRt
LC:__ZN15DOS_Drive_Cache17CreateShortNameIDEPNS_9CFileInfoEPKc
MC:__ZL7read_sbjj
NC:__ZL10EA_32_44_nv_433
OC:__Z18DOS_FCBGetFileSizett
PC:__Z14DOS_FindDevicePKc
QC:__ZN13CHandlerEvent15MakeDefaultBindEPc
RC:__ZL8FPU_FBSTj
SC:__zip_ef_utf8
TC:___newlocale
UC:__ZN16TaskStateSegment11SetSelectorEj
VC:__ZNSt3__212basic_stringIcNS_11char_traitsIcEENS_9allocatorIcEEE5eraseEmm
WC:__ZL8AddEntryP8PICEntry
XC:__Z17PROGRAMS_MakeFilePKcPFvPP7ProgramE
YC:_hash_resize
ZC:__ZL10EA_32_84_nv_441
_C:__Z18XMS_AllocateMemoryjRt
$C:__ZNK12_GLOBAL__N_116itanium_demangle15UnnamedTypeName9printLeftERNS_12OutputStreamE
aD:__ZN10cdromDriveC2EcPKcthtthRi
bD:__ZL12FormatNumberjPc
cD:__ZN5Adlib7Capture9CloseFileEv
dD:__ZN12_GLOBAL__N_116DefaultAllocator8makeNodeINS_16itanium_demangle15ClosureTypeNameEJRNS2_9NodeArrayERNS_10StringViewEEEEPT_DpOT0_
eD:__ZN12_GLOBAL__N_116DefaultAllocator8makeNodeINS_16itanium_demangle12FunctionTypeEJRPNS2_4NodeERNS2_9NodeArrayERNS2_10QualifiersERNS2_15FunctionRefQualES6_EEEPT_DpOT0_
fD:__Z13DOS_RemoveDirPKc
gD:__ZNSt3__24listIP5CBindNS_9allocatorIS2_EEE6spliceENS_21__list_const_iteratorIS2_PvEERS5_S8_S8_
hD:__Z20SVGA_Setup_TsengET3Kv
iD:__ZNSt3__212basic_stringIwNS_11char_traitsIwEENS_9allocatorIwEEE6__initIPKwEENS_9enable_ifIXsr21__is_forward_iteratorIT_EE5valueEvE4typeESA_SA_
jD:__ZNSt3__212basic_stringIwNS_11char_traitsIwEENS_9allocatorIwEEE6__initIPwEENS_9enable_ifIXsr21__is_forward_iteratorIT_EE5valueEvE4typeES9_S9_
kD:__ZN8Property8Set_helpERKNSt3__212basic_stringIcNS0_11char_traitsIcEENS0_9allocatorIcEEEE
lD:__ZN21CDROM_Interface_Image10BinaryFileC2EPKcRb
mD:_strcspn
nD:__ZN18GDTDescriptorTable4LLDTEj
oD:__Z11FPU_ESC7_EAjj
pD:__ZN12_GLOBAL__N_116itanium_demangle19parse_discriminatorEPKcS2_
qD:__ZN7CMscdex9GetCDInfoEhRhS0_R4SMSF
rD:_process
sD:__ZN15DOS_Drive_Cache8AddEntryEPKcb
tD:__zip_buffer_get_64
uD:__ZN4OPL314operator_decayEPNS_15operator_structE
vD:__ZN4OPL214operator_decayEPNS_15operator_structE
wD:__ZN8SBLASTERD2Ev
xD:__ZL8GUSResetv
yD:__ZL9DSP_Resetv
zD:__zip_ef_remove_internal
AD:__ZNK12Section_prop12GetPropValueERKNSt3__212basic_stringIcNS0_11char_traitsIcEENS0_9allocatorIcEEEE
BD:__ZN15CStickBindGroup16CreateConfigBindERPc
CD:__tr_flush_bits
DD:__ZL10EA_32_44_nv
ED:__ZNSt3__214__num_put_base14__format_floatEPcPKcj
FD:__ZN7DOS_FCB8FileOpenEh
GD:__ZN12_GLOBAL__N_116DefaultAllocator8makeNodeINS_16itanium_demangle14IntegerLiteralEJRNS_10StringViewES5_EEEPT_DpOT0_
HD:__ZNK12_GLOBAL__N_116itanium_demangle13EnclosingExpr9printLeftERNS_12OutputStreamE
ID:__ZN7CMscdex8ReadVTOCEttjRtS0_
JD:__ZN12DriveManager12UnmountDriveEi
KD:__Z15FPU_ESC5_Normalj
LD:__ZNSt3__213basic_istreamIcNS_11char_traitsIcEEE5seekgExNS_8ios_base7seekdirE
MD:__ZN14AutoexecObject14CreateAutoexecEv
ND:__ZNSt3__218__insertion_sort_3IRPFbRKPN15DOS_Drive_Cache9CFileInfoES5_EPS3_EEvT0_SA_T_
OD:__ZN12_GLOBAL__N_116itanium_demangle22AbstractManglingParserINS0_14ManglingParserINS_16DefaultAllocatorEEES3_E17parseCVQualifiersEv
PD:__ZNSt3__225__num_get_signed_integralIxEET_PKcS3_Rji
QD:__ZN7CButton4DrawEv
RD:__ZN7CMscdex15GetDeviceStatusEh
SD:__ZNSt3__26vectorINS_12basic_stringIcNS_11char_traitsIcEENS_9allocatorIcEEEENS4_IS6_EEE26__swap_out_circular_bufferERNS_14__split_bufferIS6_RS7_EE
TD:__ZN21CDROM_Interface_Image11GetAudioSubERhS0_S0_R4SMSFS2_
UD:__Z11FPU_ESC3_EAjj
VD:__ZN22VGA_ChainedEGA_Handler12writeHandlerEjh
WD:__ZNSt3__212basic_stringIcNS_11char_traitsIcEENS_9allocatorIcEEE6__initIPKcEENS_9enable_ifIXsr21__is_forward_iteratorIT_EE5valueEvE4typeESA_SA_
XD:__ZNSt3__212basic_stringIcNS_11char_traitsIcEENS_9allocatorIcEEE6__initIPcEENS_9enable_ifIXsr21__is_forward_iteratorIT_EE5valueEvE4typeES9_S9_
YD:__ZN12_GLOBAL__N_116itanium_demangle22AbstractManglingParserINS0_14ManglingParserINS_16DefaultAllocatorEEES3_E20parsePositiveIntegerEPm
ZD:__ZL9write_p64jjj
_D:__ZNSt3__215basic_streambufIcNS_11char_traitsIcEEE6xsputnEPKcl
$D:__ZNK12_GLOBAL__N_116itanium_demangle15PixelVectorType9printLeftERNS_12OutputStreamE
aE:__ZN5CBind12ActivateBindEibb
bE:__zip_string_get
cE:___fseeko_unlocked
dE:__ZN11CommandLine15GetStringRemainERNSt3__212basic_stringIcNS0_11char_traitsIcEENS0_9allocatorIcEEEE
eE:__Z26INT10_EGA_RIL_ReadRegisterRht
fE:__Z15DOS_GetFileDatetPtS_
gE:__ZNK10__cxxabiv117__class_type_info29process_static_type_above_dstEPNS_19__dynamic_cast_infoEPKvS4_i
hE:__ZNK10__cxxabiv117__class_type_info16search_below_dstEPNS_19__dynamic_cast_infoEPKvib
iE:__ZL27VGA_Draw_Xlat16_Linear_Linejj
jE:__ZL16DSP_DMA_CallBackP10DmaChannel8DMAEvent
kE:__ZN5Adlib6Module8PortReadEjj
lE:__ZL9read_p201jj
mE:__ZL10EA_32_04_nv_334
nE:__ZN8HARDWAREC2EP7Section
oE:__ZN12_GLOBAL__N_116itanium_demangle14PODSmallVectorIPNS0_24ForwardTemplateReferenceELm4EE7reserveEm
pE:___strchrnul
qE:__ZN12_GLOBAL__N_116DefaultAllocator8makeNodeINS_16itanium_demangle10VectorTypeEJRPNS2_4NodeERNS_10StringViewEEEEPT_DpOT0_
rE:_inflateInit2_
sE:__ZN7CSerial8Read_MSREv
tE:__ZN12_GLOBAL__N_116DefaultAllocator8makeNodeINS_16itanium_demangle10VectorTypeEJRPNS2_4NodeENS_10StringViewEEEEPT_DpOT0_
uE:__Z14MAPPER_StartUpP7Section
vE:__ZNK12_GLOBAL__N_116itanium_demangle19SizeofParamPackExpr9printLeftERNS_12OutputStreamE
wE:__ZL10write_p3c2jjj
xE:__ZN12DriveManager13CycleAllDisksEv
yE:__ZNK10__cxxabiv121__vmi_class_type_info27has_unambiguous_public_baseEPNS_19__dynamic_cast_infoEPvi
zE:__ZN8isoDrive8FileStatEPKcP14FileStat_Block
AE:__Z24PAGING_LinkPage_ReadOnlyjj
BE:__zip_dirent_size
CE:__Z17INT10_SetDACBlockttj
DE:__ZL14Reboot_Handlerv
EE:_decrypt_header
FE:_create_temp_output
GE:__ZNSt3__26removeINS_11__wrap_iterIPcEEcEET_S4_S4_RKT0_
HE:__Z9Set_LabelPKcPcb
IE:__Z14read_p3d5_et3kjj
JE:__ZL17CPU_CycleIncreaseb
KE:_fputc
LE:__ZN7DOS_DTA15GetSearchParamsERhPc
ME:__Z16VGA_SetCGA4Tablehhhh
NE:__ZZN12_GLOBAL__N_116itanium_demangle22AbstractManglingParserINS0_14ManglingParserINS_16DefaultAllocatorEEES3_E15parseNestedNameEPNS5_9NameStateEENKUlPNS0_4NodeEE_clES9_
OE:__ZN8isoDrive9loadImageEv
PE:__ZN15C4AxisBindGroup10CheckEventEP9SDL_Event
QE:__ZNSt3__215basic_streambufIcNS_11char_traitsIcEEE6xsgetnEPcl
RE:__ZN15CStickBindGroup10CheckEventEP9SDL_Event
SE:__ZN10localDrive8FileStatEPKcP14FileStat_Block
TE:__ZL14SetActiveEventP6CEvent
UE:_vsnprintf
VE:__ZN12_GLOBAL__N_116itanium_demangle22AbstractManglingParserINS0_14ManglingParserINS_16DefaultAllocatorEEES3_E10parseSeqIdEPm
WE:__Z17MAPPER_AddHandlerPFvbE7MapKeysjPKcS3_
XE:__ZN14DOS_ParamBlock8LoadDataEv
YE:__ZN5DBOPL7Channel11SetChanDataEPKNS_4ChipEj
ZE:__ZL18EMM_AllocateMemorytRtb
_E:__Z20FinishSetMode_PVGA1AjP17VGA_ModeExtraData
$E:__ZL21VGA_DrawEGASingleLinej
aF:__Z27INT10_EGA_RIL_WriteRegisterRhht
bF:__zip_read_data
cF:__ZNK12_GLOBAL__N_116itanium_demangle21CtorVtableSpecialName9printLeftERNS_12OutputStreamE
dF:__ZL11write_tandyjjj
eF:__ZN7CSerial14Init_RegistersEv
fF:__ZL8FPU_FBLDjj
gF:__Z15SVGA_S3_ReadSEQjj
hF:__ZNSt3__27__sort4IRPFbRKPN15DOS_Drive_Cache9CFileInfoES5_EPS3_EEjT0_SA_SA_SA_T_
iF:__ZN8isoDrive12UpdateMscdexEcPKcRh
jF:__ZL13EGA16_CopyRowhhhhj
kF:__ZN7CSerial17ComputeInterruptsEv
lF:__ZL12MPU401_Resetv
mF:__Z15FPU_ESC4_Normalj
nF:__Z15FPU_ESC0_Normalj
oF:__ZN12Virtual_File4SeekEPjj
pF:__ZL22write_cga_color_selectj
qF:__ZL17CPU_CycleDecreaseb
rF:__ZL10write_pcjrjjj
sF:__ZNSt3__2plIcNS_11char_traitsIcEENS_9allocatorIcEEEENS_12basic_stringIT_T0_T1_EERKS9_SB_
tF:__ZL15TANDY16_FillRowhhhjh
uF:__Z13DOS_ChangeDirPKc
vF:__ZNK12_GLOBAL__N_116itanium_demangle8CallExpr9printLeftERNS_12OutputStreamE
wF:__Z7MSG_AddPKcS0_
xF:__ZNK12_GLOBAL__N_116itanium_demangle19PointerToMemberType10printRightERNS_12OutputStreamE
yF:__ZN12_GLOBAL__N_116itanium_demangle22AbstractManglingParserINS0_14ManglingParserINS_16DefaultAllocatorEEES3_E19parseIntegerLiteralENS_10StringViewE
zF:__ZL13driveInactiveh
AF:__Z16read_p3cf_pvga1ajj
BF:_strncasecmp
CF:__ZN9DOS_Shell9CMD_PAUSEEPc
DF:__Z9CPU_CPUIDv
EF:__Z16XGA_GetMixResultjjj
FF:__ZNSt3__26vectorIN21CDROM_Interface_Image5TrackENS_9allocatorIS2_EEE26__swap_out_circular_bufferERNS_14__split_bufferIS2_RS4_EE
GF:__Z12DOS_ReadFiletPhPtb
HF:__Z11DOS_MakeDirPKc
IF:__ZNSt3__26vectorIPNS_6locale5facetENS_15__sso_allocatorIS3_Lm28EEEE26__swap_out_circular_bufferERNS_14__split_bufferIS3_RS5_EE
JF:__ZNSt3__26vectorIPN15DOS_Drive_Cache9CFileInfoENS_9allocatorIS3_EEE26__swap_out_circular_bufferERNS_14__split_bufferIS3_RS5_EE
KF:__ZL12VGA_DrawPartj
LF:__Z25SVGA_Setup_ParadisePVGA1Av
MF:__ZN21CDROM_Interface_Image14ChannelControlE5SCtrl
NF:__ZN21CDROM_Interface_Image10ReadSectorEPhbm
OF:__ZN12_GLOBAL__N_116itanium_demangle14PODSmallVectorIPNS0_4NodeELm32EE7reserveEm
PF:__Z17DOS_UpdatePSPNamev
QF:__zip_new
RF:__ZNKSt3__210__time_put8__do_putEPwRS1_PK2tmcc
SF:__ZNK12_GLOBAL__N_116itanium_demangle17VendorExtQualType9printLeftERNS_12OutputStreamE
TF:__ZN13Virtual_Drive8FindNextER7DOS_DTA
UF:__ZN12_GLOBAL__N_116itanium_demangle22AbstractManglingParserINS0_14ManglingParserINS_16DefaultAllocatorEEES3_E9consumeIfENS_10StringViewE
VF:__zip_cp437_to_utf8
WF:__ZN15MidiHandler_oss4OpenEPKc
XF:__ZN12_GLOBAL__N_116itanium_demangle14PODSmallVectorIPNS0_4NodeELm8EE7reserveEm
YF:__ZL13PageFaultCorev
ZF:__ZN12_GLOBAL__N_116DefaultAllocator8makeNodeINS_16itanium_demangle15PixelVectorTypeEJRNS_10StringViewEEEEPT_DpOT0_
_F:__ZN10localDrive10FileCreateEPP8DOS_FilePct
$F:__Z8CPU_VERWj
aG:__ZN7isoFile4SeekEPjj
bG:__ZN12_GLOBAL__N_116DefaultAllocator8makeNodeINS_16itanium_demangle13EnclosingExprEJRA12_KcRPNS2_4NodeERA2_S4_EEEPT_DpOT0_
cG:__ZN12_GLOBAL__N_116DefaultAllocator8makeNodeINS_16itanium_demangle13EnclosingExprEJRA11_KcRPNS2_4NodeERA2_S4_EEEPT_DpOT0_
dG:__ZN12_GLOBAL__N_116DefaultAllocator8makeNodeINS_16itanium_demangle13EnclosingExprEJRA10_KcRPNS2_4NodeERA2_S4_EEEPT_DpOT0_
eG:__ZN12_GLOBAL__N_116DefaultAllocator8makeNodeINS_16itanium_demangle13EnclosingExprEJRA9_KcRPNS2_4NodeERA2_S4_EEEPT_DpOT0_
fG:__Z20VESA_GetDisplayStartRtS_
gG:__ZL16PROGRAMS_Handlerv
hG:__ZNSt3__26vectorIP13CHandlerEventNS_9allocatorIS2_EEE26__swap_out_circular_bufferERNS_14__split_bufferIS2_RS4_EE
iG:__ZNSt3__26vectorI10copysourceNS_9allocatorIS1_EEE26__swap_out_circular_bufferERNS_14__split_bufferIS1_RS3_EE
jG:__ZNSt3__26vectorIPFvPP7ProgramENS_9allocatorIS5_EEE26__swap_out_circular_bufferERNS_14__split_bufferIS5_RS7_EE
kG:__ZNK12_GLOBAL__N_116itanium_demangle16FunctionEncoding9printLeftERNS_12OutputStreamE
lG:__ZL15TANDY16_CopyRowhhhhj
mG:__ZNSt3__26vectorIP10CBindGroupNS_9allocatorIS2_EEE26__swap_out_circular_bufferERNS_14__split_bufferIS2_RS4_EE
nG:__ZNSt3__24listINS_12basic_stringIcNS_11char_traitsIcEENS_9allocatorIcEEEENS4_IS6_EEE5eraseENS_21__list_const_iteratorIS6_PvEESB_
oG:__ZN4OPL316operator_releaseEPNS_15operator_structE
pG:__ZN4OPL216operator_releaseEPNS_15operator_structE
qG:_copy_data
rG:__ZNSt3__26vectorIP9DOS_DriveNS_9allocatorIS2_EEE26__swap_out_circular_bufferERNS_14__split_bufferIS2_RS4_EE
sG:__ZN22VGA_ChainedVGA_Handler6writewEjj
tG:__Z16SVGA_S3_WriteSEQjjj
uG:__Z11FPU_ESC1_EAjj
vG:__ZNSt3__26vectorIP7CButtonNS_9allocatorIS2_EEE26__swap_out_circular_bufferERNS_14__split_bufferIS2_RS4_EE
wG:__ZNSt3__212__hash_tableINS_17__hash_value_typeINS_12basic_stringIcNS_11char_traitsIcEENS_9allocatorIcEEEEPFvRKS7_PKcPFvS9_RK10jsonstreamEEEENS_22__unordered_map_hasherIS7_SJ_NS_4hashIS7_EELb1EEENS_21__unordered_map_equalIS7_SJ_NS_8equal_toIS7_EELb1EEENS5_ISJ_EEED2Ev
xG:__ZL10EA_32_44_nv_342
yG:__ZNSt3__26vectorIP6CEventNS_9allocatorIS2_EEE26__swap_out_circular_bufferERNS_14__split_bufferIS2_RS4_EE
zG:__zip_file_get_offset
AG:__ZN12_GLOBAL__N_116DefaultAllocator8makeNodeINS_16itanium_demangle8FoldExprEJRbRNS_10StringViewERPNS2_4NodeES9_EEEPT_DpOT0_
BG:__Z15IO_WriteDefaultjjj
CG:__ZNSt3__213basic_istreamIcNS_11char_traitsIcEEE4readEPcl
DG:__ZNSt3__26vectorI5ValueNS_9allocatorIS1_EEE26__swap_out_circular_bufferERNS_14__split_bufferIS1_RS3_EE
EG:__ZN8Property8Get_helpEv
FG:__ZN15DOS_Drive_Cache11DeleteEntryEPKcb
GG:__Z18INT10_SetCursorPoshhh
HG:__ZNSt3__212basic_stringIcNS_11char_traitsIcEENS_9allocatorIcEEE6resizeEmc
IG:__ZNSt3__212__hash_tableINS_17__hash_value_typeINS_12basic_stringIcNS_11char_traitsIcEENS_9allocatorIcEEEEPFvRKS7_PKcPFvS9_RK10jsonstreamEEEENS_22__unordered_map_hasherIS7_SJ_NS_4hashIS7_EELb1EEENS_21__unordered_map_equalIS7_SJ_NS_8equal_toIS7_EELb1EEENS5_ISJ_EEE21__construct_node_hashIRKNS_4pairIS8_SI_EEJEEENS_10unique_ptrINS_11__hash_nodeISJ_PvEENS_22__hash_node_destructorINS5_IS12_EEEEEEmOT_DpOT0_
JG:__ZL9write_cgajjj
KG:__ZL19EMM_ReallocatePagestRt
LG:__zip_dirent_process_ef_utf_8
MG:__Z15restart_programRNSt3__26vectorINS_12basic_stringIcNS_11char_traitsIcEENS_9allocatorIcEEEENS4_IS6_EEEE
NG:__ZNSt3__29__num_getIwE19__stage2_float_prepERNS_8ios_baseEPwRwS5_
OG:__ZNSt3__219__double_or_nothingIwEEvRNS_10unique_ptrIT_PFvPvEEERPS2_S9_
PG:__ZNSt3__219__double_or_nothingIjEEvRNS_10unique_ptrIT_PFvPvEEERPS2_S9_
QG:__ZL10EA_32_84_nv_350
RG:__Z24PIC_RemoveSpecificEventsPFvjEj
SG:__Z19read_directory_nextP10dir_structPcRb
TG:__Z19XGA_Write_Multifuncjj
UG:__ZNSt3__29__num_getIcE19__stage2_float_prepERNS_8ios_baseEPcRcS5_
VG:__ZNSt3__213basic_istreamIcNS_11char_traitsIcEEE5tellgEv
WG:__ZN8fatDrive14AllocationInfoEPtPhS0_S0_
XG:__Z20read_directory_firstP10dir_structPcRb
YG:__Z14ClipCursorAreaRsS_S_S_RtS0_S0_
ZG:__ZNKSt3__28time_getIwNS_19istreambuf_iteratorIwNS_11char_traitsIwEEEEE15__get_monthnameERiRS4_S4_RjRKNS_5ctypeIwEE
_G:__ZNKSt3__28time_getIcNS_19istreambuf_iteratorIcNS_11char_traitsIcEEEEE15__get_monthnameERiRS4_S4_RjRKNS_5ctypeIcEE
$G:__ZN12_GLOBAL__N_116itanium_demangle22AbstractManglingParserINS0_14ManglingParserINS_16DefaultAllocatorEEES3_E15parsePrefixExprENS_10StringViewE
aH:__ZL13EGA16_FillRowhhhjh
bH:__Z19MEM_GetNextFreePagev
cH:__zip_buffer_put_64
dH:__ZL8DrawTextjjPKch
eH:__ZL11CheckDMAEndv
fH:__ZNK12Section_prop9PrintDataEP8_IO_FILE
gH:__ZL14IO_ReadDefaultjj
hH:__ZL13TandyDACWritejjj
iH:__ZNKSt3__28time_getIwNS_19istreambuf_iteratorIwNS_11char_traitsIwEEEEE17__get_weekdaynameERiRS4_S4_RjRKNS_5ctypeIwEE
jH:__ZNKSt3__28time_getIcNS_19istreambuf_iteratorIcNS_11char_traitsIcEEEEE17__get_weekdaynameERiRS4_S4_RjRKNS_5ctypeIcEE
kH:__ZN5DBOPL8Operator7Write20EPKNS_4ChipEh
lH:__Z20VESA_SetDisplayStarttt
mH:__Z17PCSPEAKER_SetTypej
nH:__Z17DOS_FCBDeleteFilett
oH:__ZN6Config15AddSection_propEPKcPFvP7SectionEb
pH:__Z15FPU_ESC3_Normalj
qH:__ZNSt3__219__double_or_nothingIcEEvRNS_10unique_ptrIT_PFvPvEEERPS2_S9_
rH:_zip_error_to_str
sH:__ZN7CMscdex17GetSubChannelDataEhRhS0_S0_R4SMSFS2_
tH:__ZNSt3__212basic_stringIwNS_11char_traitsIwEENS_9allocatorIwEEE6__initEPKwm
uH:__ZNSt3__212basic_stringIwNS_11char_traitsIwEENS_9allocatorIwEEE6__initEmw
vH:__ZN7CSerial16getBituSubstringEPKcPjP11CommandLine
wH:__ZN11Prop_string8SetValueERKNSt3__212basic_stringIcNS0_11char_traitsIcEENS0_9allocatorIcEEEE
xH:__ZN13CKeyBindGroupC2Ej
yH:__Z12DOS_ChildPSPtt
zH:__ZN7CMscdex17GetChannelControlEhR5SCtrl
AH:__ZN7CMscdex13GetStatusWordEht
BH:__ZNSt3__26vectorINS_12basic_stringIcNS_11char_traitsIcEENS_9allocatorIcEEEENS4_IS6_EEE12__move_rangeEPS6_S9_S9_
CH:__ZL16write_p201_timedjjj
DH:__ZN7DOS_PSP11SetNumFilesEt
EH:__ZN6Config15AddSection_lineEPKcPFvP7SectionE
FH:__ZNSt3__2plIcNS_11char_traitsIcEENS_9allocatorIcEEEENS_12basic_stringIT_T0_T1_EEPKS6_RKS9_
GH:__Z19VGA_CheckScanLengthv
HH:__Z21DOS_GetAllocationInfohPtPhS_
IH:___fflush_unlocked
JH:__ZN21CDROM_Interface_ImageC2Eh
KH:__ZN12_GLOBAL__N_116DefaultAllocator8makeNodeINS_16itanium_demangle10BinaryExprEJRPNS2_4NodeERNS_10StringViewES6_EEEPT_DpOT0_
LH:__ZNKSt3__27codecvtIwc11__mbstate_tE10do_unshiftERS1_PcS4_RS4_
MH:__ZN7DOS_DTA11SetupSearchEhhPc
NH:__Z12DOS_SeekFiletPjjb
OH:__Z11swapInDisksv
PH:__ZL12CGA4_FillRowhhhjh
QH:___overflow
RH:__Z15CAPTURE_AddMidibjPh
SH:__Z14read_p3d5_et4kjj
TH:__ZN15DOS_Drive_Cache9CopyEntryEPNS_9CFileInfoES1_
UH:__ZNK12_GLOBAL__N_116itanium_demangle12NoexceptSpec9printLeftERNS_12OutputStreamE
VH:__ZNSt3__213basic_ostreamIcNS_11char_traitsIcEEE5flushEv
WH:__ZN8isoDrive16ReadCachedSectorEPPhj
XH:__Z7MSG_GetPKc
YH:__ZL18DSP_PrepareDMA_New9DMA_MODESjbb
ZH:__ZNK12_GLOBAL__N_116itanium_demangle12CtorDtorName9printLeftERNS_12OutputStreamE
_H:__ZN15DOS_Drive_Cache13GetExpandNameEPKc
$H:__ZN7Section14ExecuteDestroyEb
aI:__ZN12_GLOBAL__N_116itanium_demangle22AbstractManglingParserINS0_14ManglingParserINS_16DefaultAllocatorEEES3_EC2EPKcS7_
bI:__zip_register_source
cI:__zip_get_dirent
dI:__ZN21CDROM_Interface_Image10CanReadPVDEPNS_9TrackFileEib
eI:__ZL12OPL_CallBackj
fI:__ZL15read_p201_timedjj
gI:__ZN7Program8WriteOutEPKcz
hI:__ZN9localFile22UpdateDateTimeFromHostEv
iI:__ZN22VGA_ChainedVGA_Handler5readdEj
jI:__ZN15DOS_Drive_Cache8FindNextEtRPc
kI:_buffer_grow_fragments
lI:__ZNK12_GLOBAL__N_116itanium_demangle13FunctionParam9printLeftERNS_12OutputStreamE
mI:_fflush
nI:__ZN7fatFileC2EPKcjjP8fatDrive
oI:__ZL17MIXER_Mix_NoSoundv
pI:__ZN12_GLOBAL__N_116DefaultAllocator8makeNodeINS_16itanium_demangle22ElaboratedTypeSpefTypeEJRNS_10StringViewERPNS2_4NodeEEEEPT_DpOT0_
qI:_fclose
rI:__ZL13CheckVoiceIrqv
sI:__Z18DOS_CreateTempFilePcPt
tI:__ZNSt3__26locale5__impD2Ev
uI:__ZNSt3__218__search_substringIcNS_11char_traitsIcEEEEPKT_S5_S5_S5_S5_
vI:__ZNK12_GLOBAL__N_116itanium_demangle10MemberExpr9printLeftERNS_12OutputStreamE
wI:__ZN6CEventC2EPKc
xI:__ZN5Adlib7Capture10InitHeaderEv
yI:_zip_source_buffer_fragment_create
zI:_zip_fread
AI:__zip_dirent_init
BI:__ZN13Virtual_Drive9FindFirstEPcR7DOS_DTAb
CI:__ZL14slave_startIRQv
DI:__ZN9DOS_Shell11RunInternalEv
EI:__ZNKSt3__28time_getIwNS_19istreambuf_iteratorIwNS_11char_traitsIwEEEEE16do_get_monthnameES4_S4_RNS_8ios_baseERjP2tm
FI:__ZNKSt3__28time_getIwNS_19istreambuf_iteratorIwNS_11char_traitsIwEEEEE14do_get_weekdayES4_S4_RNS_8ios_baseERjP2tm
GI:__ZNKSt3__28time_getIcNS_19istreambuf_iteratorIcNS_11char_traitsIcEEEEE16do_get_monthnameES4_S4_RNS_8ios_baseERjP2tm
HI:__ZNKSt3__28time_getIcNS_19istreambuf_iteratorIcNS_11char_traitsIcEEEEE14do_get_weekdayES4_S4_RNS_8ios_baseERjP2tm
II:__ZN12_GLOBAL__N_116DefaultAllocator8makeNodeINS_16itanium_demangle17VendorExtQualTypeEJRPNS2_4NodeERNS_10StringViewEEEEPT_DpOT0_
JI:__ZN9Prop_pathC2ERKNSt3__212basic_stringIcNS0_11char_traitsIcEENS0_9allocatorIcEEEEN8Property10Changeable5ValueEPKc
KI:__ZL9QueueByteh
LI:__ZL12CGA2_FillRowhhhjh
MI:__ZNSt3__215__num_get_floatIeEET_PKcS3_Rj
NI:__ZN5DBOPL8Operator14TemplateVolumeILNS0_5StateE3EEEiv
OI:__ZN12_GLOBAL__N_120BumpPointerAllocator8allocateEm
PI:__ZNSt3__215__num_get_floatIfEET_PKcS3_Rj
QI:__ZNSt3__215__num_get_floatIdEET_PKcS3_Rj
RI:__ZN12_GLOBAL__N_116DefaultAllocator8makeNodeINS_16itanium_demangle15IntegerCastExprEJRPNS2_4NodeERNS_10StringViewEEEEPT_DpOT0_
SI:__Z16CPU_IO_Exceptionjj
TI:_strstr
UI:__ZL9read_p3c9jj
VI:__ZNKSt3__28time_getIwNS_19istreambuf_iteratorIwNS_11char_traitsIwEEEEE11do_get_timeES4_S4_RNS_8ios_baseERjP2tm
WI:__ZNKSt3__28time_getIcNS_19istreambuf_iteratorIcNS_11char_traitsIcEEEEE11do_get_timeES4_S4_RNS_8ios_baseERjP2tm
XI:__ZN9localFile5WriteEPhPt
YI:__ZN12_GLOBAL__N_116DefaultAllocator8makeNodeINS_16itanium_demangle14ConversionExprEJRPNS2_4NodeERNS2_9NodeArrayEEEEPT_DpOT0_
ZI:__ZN12_GLOBAL__N_116DefaultAllocator8makeNodeINS_16itanium_demangle13ObjCProtoNameEJRPNS2_4NodeERNS_10StringViewEEEEPT_DpOT0_
_I:__Z35INT10_SetupBasicVideoParameterTablev
$I:__ZN12_GLOBAL__N_116DefaultAllocator8makeNodeINS_16itanium_demangle14ConversionExprEJRPNS2_4NodeENS2_9NodeArrayEEEEPT_DpOT0_
aJ:__ZL15cmos_checktimerv
bJ:_strcasecmp
cJ:__ZNKSt3__28time_getIwNS_19istreambuf_iteratorIwNS_11char_traitsIwEEEEE11do_get_yearES4_S4_RNS_8ios_baseERjP2tm
dJ:__ZNKSt3__28time_getIcNS_19istreambuf_iteratorIcNS_11char_traitsIcEEEEE11do_get_yearES4_S4_RNS_8ios_baseERjP2tm
eJ:_zip_source_pkware
fJ:__ZNSt3__213basic_filebufIcNS_11char_traitsIcEEE12__write_modeEv
gJ:__ZN12_GLOBAL__N_116DefaultAllocator8makeNodeINS_16itanium_demangle9ArrayTypeEJRPNS2_4NodeERNS2_12NodeOrStringEEEEPT_DpOT0_
hJ:__Z16INT10_ReloadFontv
iJ:__ZN12_GLOBAL__N_116DefaultAllocator8makeNodeINS_16itanium_demangle12InitListExprEJRPNS2_4NodeENS2_9NodeArrayEEEEPT_DpOT0_
jJ:__ZL12GUS_CallBackj
kJ:__Z10mem_memcpyjjj
lJ:__ZNKSt3__27num_getIwNS_19istreambuf_iteratorIwNS_11char_traitsIwEEEEE6do_getES4_S4_RNS_8ios_baseERjRf
mJ:__ZNKSt3__27num_getIwNS_19istreambuf_iteratorIwNS_11char_traitsIwEEEEE6do_getES4_S4_RNS_8ios_baseERjRe
nJ:__ZNKSt3__27num_getIwNS_19istreambuf_iteratorIwNS_11char_traitsIwEEEEE6do_getES4_S4_RNS_8ios_baseERjRd
oJ:__ZNKSt3__27num_getIcNS_19istreambuf_iteratorIcNS_11char_traitsIcEEEEE6do_getES4_S4_RNS_8ios_baseERjRf
pJ:__ZNKSt3__27num_getIcNS_19istreambuf_iteratorIcNS_11char_traitsIcEEEEE6do_getES4_S4_RNS_8ios_baseERjRe
qJ:__ZNKSt3__27num_getIcNS_19istreambuf_iteratorIcNS_11char_traitsIcEEEEE6do_getES4_S4_RNS_8ios_baseERjRd
rJ:__ZN10CBindGroup16ActivateBindListEPNSt3__24listIP5CBindNS0_9allocatorIS3_EEEEib
sJ:__ZNSt3__213basic_ostreamIcNS_11char_traitsIcEEE6sentryD2Ev
tJ:__ZN7CMscdex20GetDocumentationNameEtj
uJ:__ZN12_GLOBAL__N_116DefaultAllocator8makeNodeINS_16itanium_demangle10PrefixExprEJRNS_10StringViewERPNS2_4NodeEEEEPT_DpOT0_
vJ:__ZN12_GLOBAL__N_116DefaultAllocator8makeNodeINS_16itanium_demangle10AbiTagAttrEJRPNS2_4NodeERNS_10StringViewEEEEPT_DpOT0_
wJ:__ZNKSt3__212basic_stringIcNS_11char_traitsIcEENS_9allocatorIcEEE7compareEmmPKcm
xJ:__zip_dirent_set_version_needed
yJ:_scalbn
zJ:__Z17INT10_WriteStringhhhhjth
AJ:__ZNKSt3__27num_getIwNS_19istreambuf_iteratorIwNS_11char_traitsIwEEEEE6do_getES4_S4_RNS_8ios_baseERjS8_
BJ:__ZNKSt3__27num_getIcNS_19istreambuf_iteratorIcNS_11char_traitsIcEEEEE6do_getES4_S4_RNS_8ios_baseERjS8_
CJ:__ZN7CMscdex16GetCopyrightNameEtj
DJ:__ZN12_GLOBAL__N_116DefaultAllocator8makeNodeINS_16itanium_demangle9DotSuffixEJRPNS2_4NodeENS_10StringViewEEEEPT_DpOT0_
EJ:__ZNKSt3__27num_getIwNS_19istreambuf_iteratorIwNS_11char_traitsIwEEEEE6do_getES4_S4_RNS_8ios_baseERjRy
FJ:__ZNKSt3__27num_getIwNS_19istreambuf_iteratorIwNS_11char_traitsIwEEEEE6do_getES4_S4_RNS_8ios_baseERjRt
GJ:__ZNKSt3__27num_getIwNS_19istreambuf_iteratorIwNS_11char_traitsIwEEEEE6do_getES4_S4_RNS_8ios_baseERjRm
HJ:__ZNKSt3__27num_getIcNS_19istreambuf_iteratorIcNS_11char_traitsIcEEEEE6do_getES4_S4_RNS_8ios_baseERjRy
IJ:__ZNKSt3__27num_getIcNS_19istreambuf_iteratorIcNS_11char_traitsIcEEEEE6do_getES4_S4_RNS_8ios_baseERjRt
JJ:__ZNKSt3__27num_getIcNS_19istreambuf_iteratorIcNS_11char_traitsIcEEEEE6do_getES4_S4_RNS_8ios_baseERjRm
KJ:__ZN7CMscdex15GetAbstractNameEtj
LJ:__ZL8FPU_ST80jj
MJ:_strtox_776
NJ:__ZL11VGA_CopyRowhhhhj
OJ:__ZNKSt3__28time_getIwNS_19istreambuf_iteratorIwNS_11char_traitsIwEEEEE10__get_yearERiRS4_S4_RjRKNS_5ctypeIwEE
PJ:__ZNKSt3__28time_getIcNS_19istreambuf_iteratorIcNS_11char_traitsIcEEEEE10__get_yearERiRS4_S4_RjRKNS_5ctypeIcEE
QJ:__ZNKSt3__27num_getIwNS_19istreambuf_iteratorIwNS_11char_traitsIwEEEEE6do_getES4_S4_RNS_8ios_baseERjRx
RJ:__ZNKSt3__27num_getIwNS_19istreambuf_iteratorIwNS_11char_traitsIwEEEEE6do_getES4_S4_RNS_8ios_baseERjRl
SJ:__ZNKSt3__27num_getIcNS_19istreambuf_iteratorIcNS_11char_traitsIcEEEEE6do_getES4_S4_RNS_8ios_baseERjRx
TJ:__ZNKSt3__27num_getIcNS_19istreambuf_iteratorIcNS_11char_traitsIcEEEEE6do_getES4_S4_RNS_8ios_baseERjRl
UJ:__ZNSt3__26locale5__imp7installEPNS0_5facetEl
VJ:__ZNSt3__214__num_put_base18__identify_paddingEPcS1_RKNS_8ios_baseE
WJ:__ZN13CHandlerEventC2EPKcPFvbE7MapKeysjS1_
XJ:__ZN12_GLOBAL__N_116DefaultAllocator8makeNodeINS_16itanium_demangle8CallExprEJRPNS2_4NodeENS2_9NodeArrayEEEEPT_DpOT0_
YJ:__ZNSt3__210__list_impINS_12basic_stringIcNS_11char_traitsIcEENS_9allocatorIcEEEENS4_IS6_EEE5clearEv
ZJ:__ZNSt3__212basic_stringIcNS_11char_traitsIcEENS_9allocatorIcEEE6__initEPKcmm
_J:__ZN14AutoexecObject13InstallBeforeERKNSt3__212basic_stringIcNS0_11char_traitsIcEENS0_9allocatorIcEEEE
$J:__ZN12_GLOBAL__N_116itanium_demangle22AbstractManglingParserINS0_14ManglingParserINS_16DefaultAllocatorEEES3_E20popTrailingNodeArrayEm
aK:__ZN16CContinuousEvent15DeActivateEventEb
bK:__ZL19TandyDACModeChangedv
cK:__ZL16DSP_ADC_CallBackP10DmaChannel8DMAEvent
dK:__Z13CPU_WRITE_DRXjj
eK:___ftello_unlocked
fK:__ZN8fatDrive15allocateClusterEjj
gK:__ZL17EMM_ReleaseMemoryt
hK:__zip_ef_get_by_id
iK:__ZN9DOS_Shell8CMD_CALLEPc
jK:__ZN7Program18WriteOut_NoParsingEPKc
kK:__Z8CPU_POPFj
lK:__ZNK12_GLOBAL__N_116itanium_demangle22ElaboratedTypeSpefType9printLeftERNS_12OutputStreamE
mK:_frexp
nK:__ZNSt3__212basic_stringIcNS_11char_traitsIcEENS_9allocatorIcEEE6__initEPKcm
oK:__ZN7Program9GetEnvNumEjRNSt3__212basic_stringIcNS0_11char_traitsIcEENS0_9allocatorIcEEEE
pK:__ZNSt3__26vectorI9SDL_EventNS_9allocatorIS1_EEE12__move_rangeEPS1_S5_S5_
qK:__ZNSt3__212basic_stringIcNS_11char_traitsIcEENS_9allocatorIcEEE6__initEmc
rK:__ZNKSt3__28time_getIwNS_19istreambuf_iteratorIwNS_11char_traitsIwEEEEE13__get_12_hourERiRS4_S4_RjRKNS_5ctypeIwEE
sK:__ZNKSt3__28time_getIcNS_19istreambuf_iteratorIcNS_11char_traitsIcEEEEE13__get_12_hourERiRS4_S4_RjRKNS_5ctypeIcEE
tK:__ZL12CGA4_CopyRowhhhhj
uK:__ZL24Tandy_TransferInProgressv
vK:__ZL17SBLASTER_CallBackj
wK:__ZNSt3__215basic_stringbufIcNS_11char_traitsIcEENS_9allocatorIcEEE9underflowEv
xK:__ZN11CommandLine9FindEntryEPKcRNSt3__215__list_iteratorINS2_12basic_stringIcNS2_11char_traitsIcEENS2_9allocatorIcEEEEPvEEb
yK:__ZNKSt3__28time_getIwNS_19istreambuf_iteratorIwNS_11char_traitsIwEEEEE9__get_dayERiRS4_S4_RjRKNS_5ctypeIwEE
zK:__ZNKSt3__28time_getIwNS_19istreambuf_iteratorIwNS_11char_traitsIwEEEEE18__get_day_year_numERiRS4_S4_RjRKNS_5ctypeIwEE
AK:__ZNKSt3__28time_getIcNS_19istreambuf_iteratorIcNS_11char_traitsIcEEEEE9__get_dayERiRS4_S4_RjRKNS_5ctypeIcEE
BK:__ZNKSt3__28time_getIcNS_19istreambuf_iteratorIcNS_11char_traitsIcEEEEE18__get_day_year_numERiRS4_S4_RjRKNS_5ctypeIcEE
CK:__ZL11IOFaultCorev
DK:__ZN10localDrive7TestDirEPc
EK:__ZNKSt3__28time_getIwNS_19istreambuf_iteratorIwNS_11char_traitsIwEEEEE11__get_monthERiRS4_S4_RjRKNS_5ctypeIwEE
FK:__ZNKSt3__28time_getIcNS_19istreambuf_iteratorIcNS_11char_traitsIcEEEEE11__get_monthERiRS4_S4_RjRKNS_5ctypeIcEE
GK:__Z15DOS_SetFileAttrPKct
HK:__ZNK12_GLOBAL__N_116itanium_demangle13ReferenceType8collapseERNS_12OutputStreamE
IK:__ZL21MPU401_IntelligentOuth
JK:__ZNSt3__2plIcNS_11char_traitsIcEENS_9allocatorIcEEEENS_12basic_stringIT_T0_T1_EERKS9_S6_
KK:__ZN12Section_prop7Add_hexERKNSt3__212basic_stringIcNS0_11char_traitsIcEENS0_9allocatorIcEEEEN8Property10Changeable5ValueE3Hex
LK:__zip_buffer_peek
MK:__ZNSt3__214__split_bufferI9SDL_EventRNS_9allocatorIS1_EEE18__construct_at_endINS_13move_iteratorIPS1_EEEENS_9enable_ifIXsr21__is_forward_iteratorIT_EE5valueEvE4typeESB_SB_
NK:__ZNKSt3__28time_getIwNS_19istreambuf_iteratorIwNS_11char_traitsIwEEEEE13__get_weekdayERiRS4_S4_RjRKNS_5ctypeIwEE
OK:__ZNKSt3__28time_getIwNS_19istreambuf_iteratorIwNS_11char_traitsIwEEEEE12__get_secondERiRS4_S4_RjRKNS_5ctypeIwEE
PK:__ZNKSt3__28time_getIwNS_19istreambuf_iteratorIwNS_11char_traitsIwEEEEE12__get_minuteERiRS4_S4_RjRKNS_5ctypeIwEE
QK:__ZNKSt3__28time_getIcNS_19istreambuf_iteratorIcNS_11char_traitsIcEEEEE13__get_weekdayERiRS4_S4_RjRKNS_5ctypeIcEE
RK:__ZNKSt3__28time_getIcNS_19istreambuf_iteratorIcNS_11char_traitsIcEEEEE12__get_secondERiRS4_S4_RjRKNS_5ctypeIcEE
SK:__ZNKSt3__28time_getIcNS_19istreambuf_iteratorIcNS_11char_traitsIcEEEEE12__get_minuteERiRS4_S4_RjRKNS_5ctypeIcEE
TK:__ZN12_GLOBAL__N_116DefaultAllocator8makeNodeINS_16itanium_demangle10MemberExprEJRPNS2_4NodeERA3_KcS6_EEEPT_DpOT0_
UK:__ZN12_GLOBAL__N_116DefaultAllocator8makeNodeINS_16itanium_demangle10MemberExprEJRPNS2_4NodeERA2_KcS6_EEEPT_DpOT0_
VK:__ZL14TANDY_FindModev
WK:__Z14DOS_FreeMemoryt
XK:__Z11PIC_runIRQsv
YK:__ZNKSt3__28time_getIwNS_19istreambuf_iteratorIwNS_11char_traitsIwEEEEE10__get_hourERiRS4_S4_RjRKNS_5ctypeIwEE
ZK:__ZNKSt3__28time_getIcNS_19istreambuf_iteratorIcNS_11char_traitsIcEEEEE10__get_hourERiRS4_S4_RjRKNS_5ctypeIcEE
_K:__ZL18EMM_RestorePageMapt
$K:__Z16PIC_RemoveEventsPFvjE
aL:__Z16BIOS_SetComPortsPt
bL:__ZN9PCSPEAKERD2Ev
cL:__ZN12_GLOBAL__N_116DefaultAllocator8makeNodeINS_16itanium_demangle8CastExprEJRA17_KcRPNS2_4NodeES9_EEEPT_DpOT0_
dL:__ZN12_GLOBAL__N_116DefaultAllocator8makeNodeINS_16itanium_demangle8CastExprEJRA13_KcRPNS2_4NodeES9_EEEPT_DpOT0_
eL:__ZN12_GLOBAL__N_116DefaultAllocator8makeNodeINS_16itanium_demangle8CastExprEJRA12_KcRPNS2_4NodeES9_EEEPT_DpOT0_
fL:__ZN12_GLOBAL__N_116DefaultAllocator8makeNodeINS_16itanium_demangle8CastExprEJRA11_KcRPNS2_4NodeES9_EEEPT_DpOT0_
gL:__ZN7CButtonC2Ejjjj
hL:__ZN12_GLOBAL__N_116itanium_demangle7NewExprC2ENS0_9NodeArrayEPNS0_4NodeES2_bb
iL:__ZN12_GLOBAL__N_116DefaultAllocator8makeNodeINS_16itanium_demangle12InitListExprEJDnNS2_9NodeArrayEEEEPT_DpOT0_
jL:_zip_source_free
kL:__ZL13INT70_Handlerv
lL:__Z9StripWordRPc
mL:_atoi
nL:__ZL9FPU_FPREMv
oL:__zip_unicode_to_utf8
pL:__ZN9DOS_Shell9CMD_SHIFTEPc
qL:__ZN7DOS_PSP13CopyFileTableEPS_b
rL:__ZL17MPU401_EOIHandlerj
sL:__ZN12_GLOBAL__N_116DefaultAllocator8makeNodeINS_16itanium_demangle10VectorTypeEJRPNS2_4NodeES6_EEEPT_DpOT0_
tL:__ZN11CommandLine9FindExistEPKcb
uL:__ZL6EATREEj
vL:__ZN21CDROM_Interface_Image13GetCueKeywordERNSt3__212basic_stringIcNS0_11char_traitsIcEENS0_9allocatorIcEEEERNS0_13basic_istreamIcS3_EE
wL:__ZL12CGA2_CopyRowhhhhj
xL:__zip_buffer_new
yL:__ZN8fatDrive13appendClusterEj
zL:_fmt_u
AL:__ZNK12_GLOBAL__N_116itanium_demangle27ExpandedSpecialSubstitution11getBaseNameEv
BL:__ZN12_GLOBAL__N_116DefaultAllocator8makeNodeINS_16itanium_demangle21StructuredBindingNameEJNS2_9NodeArrayEEEEPT_DpOT0_
CL:__ZN12_GLOBAL__N_116DefaultAllocator8makeNodeINS_16itanium_demangle20TemplateArgumentPackEJRNS2_9NodeArrayEEEEPT_DpOT0_
DL:__ZN12_GLOBAL__N_116DefaultAllocator8makeNodeINS_16itanium_demangle16FloatLiteralImplIfEEJRNS_10StringViewEEEEPT_DpOT0_
EL:__ZN12_GLOBAL__N_116DefaultAllocator8makeNodeINS_16itanium_demangle16FloatLiteralImplIeEEJRNS_10StringViewEEEEPT_DpOT0_
FL:__ZN12_GLOBAL__N_116DefaultAllocator8makeNodeINS_16itanium_demangle16FloatLiteralImplIdEEJRNS_10StringViewEEEEPT_DpOT0_
GL:__Z16SaveVgaRegistersv
HL:__Z15VGA_SetBlinkingj
IL:_fourbyte_strstr
JL:___divdi3
KL:__ZNSt3__214__split_bufferINS_12basic_stringIcNS_11char_traitsIcEENS_9allocatorIcEEEERNS4_IS6_EEEC2EmmS8_
LL:__ZN12_GLOBAL__N_116DefaultAllocator8makeNodeINS_16itanium_demangle20DynamicExceptionSpecEJNS2_9NodeArrayEEEEPT_DpOT0_
ML:__ZL10FPU_FLDENVj
NL:__Z13DOS_FlushFilet
OL:__ZN8isoDrive14GetDirIteratorEPK11isoDirEntry
PL:__ZN14DOS_ParamBlock8SaveDataEv
QL:__Z12PIC_AddEventPFvjEfj
RL:_dirname
SL:__ZNK12_GLOBAL__N_110StringView10startsWithES0_
TL:__ZN8DOS_FileC2ERKS_
UL:__ZN15DOS_Drive_Cache9CFileInfoD2Ev
VL:__ZNSt3__212basic_stringIcNS_11char_traitsIcEENS_9allocatorIcEEEC2ERKS5_mmRKS4_
WL:__ZNSt3__212__hash_tableINS_17__hash_value_typeINS_12basic_stringIcNS_11char_traitsIcEENS_9allocatorIcEEEEPFvRKS7_PKcPFvS9_RK10jsonstreamEEEENS_22__unordered_map_hasherIS7_SJ_NS_4hashIS7_EELb1EEENS_21__unordered_map_equalIS7_SJ_NS_8equal_toIS7_EELb1EEENS5_ISJ_EEE17__deallocate_nodeEPNS_16__hash_node_baseIPNS_11__hash_nodeISJ_PvEEEE
XL:__ZNKSt3__210__time_put8__do_putEPcRS1_PK2tmcc
YL:__ZN5DBOPL8OperatorC2Ev
ZL:__ZNK12_GLOBAL__N_116itanium_demangle19SpecialSubstitution11getBaseNameEv
_L:__ZN12_GLOBAL__N_116DefaultAllocator8makeNodeINS_16itanium_demangle15UnnamedTypeNameEJRNS_10StringViewEEEEPT_DpOT0_
$L:__ZL11DOS_AddDaysj
aM:__ZL8FPU_FCOMjj
bM:__ZN6Events12pollSDLEventEP9SDL_Event
cM:__ZN10localDriveC2EPKcthtth
dM:__ZN12_GLOBAL__N_116DefaultAllocator8makeNodeINS_16itanium_demangle13FunctionParamEJRNS_10StringViewEEEEPT_DpOT0_
eM:__ZN9DOS_Shell7CMD_CLSEPc
fM:__ZN6ConfigD2Ev
gM:__ZN5Adlib6ModuleD2Ev
hM:__ZL17AddKeyButtonEventjjjjPKcS0_8KBD_KEYS
iM:__ZL14write_lightpenjjj
jM:_strtox
kM:__ZN12_GLOBAL__N_1eqERKNS_10StringViewES2_
lM:__ZN12_GLOBAL__N_116DefaultAllocator8makeNodeINS_16itanium_demangle13ParameterPackEJNS2_9NodeArrayEEEEPT_DpOT0_
mM:__ZN12_GLOBAL__N_116DefaultAllocator8makeNodeINS_16itanium_demangle13NodeArrayNodeEJNS2_9NodeArrayEEEEPT_DpOT0_
nM:__ZN12_GLOBAL__N_116itanium_demangle16FunctionEncodingC2EPKNS0_4NodeES4_NS0_9NodeArrayES4_NS0_10QualifiersENS0_15FunctionRefQualE
oM:__ZNK12_GLOBAL__N_116itanium_demangle20PostfixQualifiedType9printLeftERNS_12OutputStreamE
pM:__ZN9CJHatBindC2EPNSt3__24listIP5CBindNS0_9allocatorIS3_EEEEP10CBindGroupjh
qM:__ZN12_GLOBAL__N_116DefaultAllocator8makeNodeINS_16itanium_demangle12TemplateArgsEJNS2_9NodeArrayEEEEPT_DpOT0_
rM:__ZN12_GLOBAL__N_116DefaultAllocator8makeNodeINS_16itanium_demangle12EnableIfAttrEJNS2_9NodeArrayEEEEPT_DpOT0_
sM:__ZNK12_GLOBAL__N_116itanium_demangle13QualifiedName9printLeftERNS_12OutputStreamE
tM:__ZL10INT14_WaitthhPh
uM:__ZNSt3__214__split_bufferI9SDL_EventRNS_9allocatorIS1_EEEC2EmmS4_
vM:__ZN12_GLOBAL__N_116DefaultAllocator8makeNodeINS_16itanium_demangle20PostfixQualifiedTypeEJRPNS2_4NodeERA11_KcEEEPT_DpOT0_
wM:__ZL15EMM_SavePageMapt
xM:__ZN9imageDisk20Write_AbsoluteSectorEjPv
yM:__ZN12_GLOBAL__N_116DefaultAllocator8makeNodeINS_16itanium_demangle20PostfixQualifiedTypeEJRPNS2_4NodeERA9_KcEEEPT_DpOT0_
zM:__ZL13modify_cyclesi
AM:__Z9MSG_WritePKc
BM:__Z18mem_unalignedreadwj
CM:__ZNKSt3__27codecvtIwc11__mbstate_tE9do_lengthERS1_PKcS5_m
DM:__ZNK12_GLOBAL__N_116itanium_demangle10NestedName9printLeftERNS_12OutputStreamE
EM:__Z21SDL_SetVideoMode_Wrapiiij
FM:__Z18XGA_Read_Multifuncv
GM:__ZNSt3__2L11init_wam_pmEv
HM:__ZNSt3__2L10init_am_pmEv
IM:__ZNK12_GLOBAL__N_116itanium_demangle9LocalName9printLeftERNS_12OutputStreamE
JM:__ZN9CJHatBind8BindNameEPc
KM:__ZN12_GLOBAL__N_116DefaultAllocator8makeNodeINS_16itanium_demangle8NameTypeEJRNS_10StringViewEEEEPT_DpOT0_
LM:__Z12VGA_SetupDACv
MM:__ZNK12_GLOBAL__N_116itanium_demangle11SpecialName9printLeftERNS_12OutputStreamE
NM:__ZN13DmaControllerC2Eh
OM:_zip_source_crc
PM:__ZNSt3__214__split_bufferIPNS_6locale5facetERNS_15__sso_allocatorIS3_Lm28EEEED2Ev
QM:__Z15VGA_SetupMemoryP7Section
RM:_context_new
SM:__zip_d2u_time
TM:__ZL11disney_readjj
UM:__ZN8fatDrive10FileUnlinkEPc
VM:__Z18BIOS_SetupKeyboardv
WM:__Z12DOS_FindNextv
XM:__ZNSt3__214__split_bufferIPN15DOS_Drive_Cache9CFileInfoERNS_9allocatorIS3_EEEC2EmmS6_
YM:__ZNSt3__214__split_bufferIN21CDROM_Interface_Image5TrackERNS_9allocatorIS2_EEEC2EmmS5_
ZM:__ZL23VGA_Draw_2BPPHiRes_Linejj
_M:__Z19mem_unalignedwritewjt
$M:__ZN7CSerial9Write_IEREh
aN:__ZN20VGA_TEXT_PageHandler5readbEj
bN:__ZN15DOS_Drive_Cache9GetFreeIDEPNS_9CFileInfoE
cN:__ZN10device_COM5WriteEPhPt
dN:_buffer_seek
eN:__ZN21CDROM_Interface_Image17GetAudioTrackInfoEiR4SMSFRh
fN:__ZN14PIC_Controller13check_for_irqEv
gN:___toread
hN:__ZN20VGA_TEXT_PageHandler6writebEjj
iN:__ZN12_GLOBAL__N_116DefaultAllocator8makeNodeINS_16itanium_demangle11SpecialNameEJRA41_KcRPNS2_4NodeEEEEPT_DpOT0_
jN:__ZN12_GLOBAL__N_116DefaultAllocator8makeNodeINS_16itanium_demangle11SpecialNameEJRA34_KcRPNS2_4NodeEEEEPT_DpOT0_
kN:__ZN12_GLOBAL__N_116DefaultAllocator8makeNodeINS_16itanium_demangle11SpecialNameEJRA27_KcRPNS2_4NodeEEEEPT_DpOT0_
lN:__ZN12_GLOBAL__N_116DefaultAllocator8makeNodeINS_16itanium_demangle11SpecialNameEJRA25_KcRPNS2_4NodeEEEEPT_DpOT0_
mN:__ZN12_GLOBAL__N_116DefaultAllocator8makeNodeINS_16itanium_demangle11SpecialNameEJRA22_KcRPNS2_4NodeEEEEPT_DpOT0_
nN:__ZN12_GLOBAL__N_116DefaultAllocator8makeNodeINS_16itanium_demangle11SpecialNameEJRA20_KcRPNS2_4NodeEEEEPT_DpOT0_
oN:__ZN12_GLOBAL__N_116DefaultAllocator8makeNodeINS_16itanium_demangle11SpecialNameEJRA19_KcRPNS2_4NodeEEEEPT_DpOT0_
pN:__ZN12_GLOBAL__N_116DefaultAllocator8makeNodeINS_16itanium_demangle11SpecialNameEJRA18_KcRPNS2_4NodeEEEEPT_DpOT0_
qN:__ZN12_GLOBAL__N_116DefaultAllocator8makeNodeINS_16itanium_demangle11SpecialNameEJRA14_KcRPNS2_4NodeEEEEPT_DpOT0_
rN:__ZN12_GLOBAL__N_116DefaultAllocator8makeNodeINS_16itanium_demangle11SpecialNameEJRA12_KcRPNS2_4NodeEEEEPT_DpOT0_
sN:__Z15GFX_GetBestModej
tN:__ZNSt3__214__split_bufferINS_12basic_stringIcNS_11char_traitsIcEENS_9allocatorIcEEEERNS4_IS6_EEE18__construct_at_endINS_13move_iteratorIPS6_EEEENS_9enable_ifIXsr21__is_forward_iteratorIT_EE5valueEvE4typeESF_SF_
uN:__ZN12_GLOBAL__N_116DefaultAllocator8makeNodeINS_16itanium_demangle11SpecialNameEJRA9_KcRPNS2_4NodeEEEEPT_DpOT0_
vN:__ZN12_GLOBAL__N_116DefaultAllocator8makeNodeINS_16itanium_demangle11PostfixExprEJRPNS2_4NodeERA3_KcEEEPT_DpOT0_
wN:__ZN5CBind8SetFlagsEPc
xN:_zip_source_seek
yN:__Z12XGA_GetPointjj
zN:___procfdname
AN:__Z15FPU_ESC2_Normalj
BN:__ZN10localDrive6RenameEPcS0_
CN:__zip_dirent_needs_zip64
DN:__ZL16OPL_SaveRawEventb
EN:__ZL10Pause_Loopv
FN:__ZNSt3__214__split_bufferIP13CHandlerEventRNS_9allocatorIS2_EEEC2EmmS5_
GN:__ZN7CMscdex12GetTrackInfoEhhRhR4SMSF
HN:__ZL8SetupPSPttt
IN:__ZL16DSP_ChangeStereob
JN:__ZL11VGA_FillRowhhhjh
KN:__ZNSt3__26locale2id5__getEv
LN:__ZNKSt3__28time_getIwNS_19istreambuf_iteratorIwNS_11char_traitsIwEEEEE11__get_year4ERiRS4_S4_RjRKNS_5ctypeIwEE
MN:__ZNKSt3__28time_getIcNS_19istreambuf_iteratorIcNS_11char_traitsIcEEEEE11__get_year4ERiRS4_S4_RjRKNS_5ctypeIcEE
NN:__ZN7CMscdex13GetVolumeNameEhPc
ON:__Z19CALLBACK_RunRealFartt
PN:__Z13KEYBOARD_InitP7Section
QN:__ZNSt3__214__split_bufferIPFvPP7ProgramERNS_9allocatorIS5_EEEC2EmmS8_
RN:__ZL13IsEnhancedKeyRt
SN:__ZNSt3__214__split_bufferIP10CBindGroupRNS_9allocatorIS2_EEEC2EmmS5_
TN:__ZN8Prop_hexC2ERKNSt3__212basic_stringIcNS0_11char_traitsIcEENS0_9allocatorIcEEEEN8Property10Changeable5ValueE3Hex
UN:__ZN5DBOPL8Operator14TemplateVolumeILNS0_5StateE4EEEiv
VN:__ZN9DOS_Shell8CMD_EXITEPc
WN:__Z14XGA_SetDualRegRjj
XN:__ZNSt3__214__split_bufferIP9DOS_DriveRNS_9allocatorIS2_EEEC2EmmS5_
YN:__ZNSt3__214__split_bufferI10copysourceRNS_9allocatorIS1_EEEC2EmmS4_
ZN:__ZL13DOS_25Handlerv
_N:__ZL17BIOS_HostTimeSyncv
$N:_threebyte_strstr
aO:__ZNSt3__214__split_bufferIP7CButtonRNS_9allocatorIS2_EEEC2EmmS5_
bO:__ZNSt3__214__split_bufferIP6CEventRNS_9allocatorIS2_EEEC2EmmS5_
cO:__Z24XMS_GetHandleInformationjRhS_Rt
dO:__ZNK6Config10GetSectionERKNSt3__212basic_stringIcNS0_11char_traitsIcEENS0_9allocatorIcEEEE
eO:__ZL14OpenDosboxFilePKc
fO:__ZNSt3__214__split_bufferI5ValueRNS_9allocatorIS1_EEEC2EmmS4_
gO:__ZNKSt3__212basic_stringIcNS_11char_traitsIcEENS_9allocatorIcEEE4findEcm
hO:__ZN9imageDisk19Read_AbsoluteSectorEjPv
iO:__ZN7isoFileC2EP8isoDrivePKcP14FileStat_Blockj
jO:__ZN12_GLOBAL__N_116itanium_demangle12FunctionTypeC2EPKNS0_4NodeENS0_9NodeArrayENS0_10QualifiersENS0_15FunctionRefQualES4_
kO:__ZL25VGA_Draw_4BPP_Line_Doublejj
lO:__ZN21InitPageUserROHandler14writed_checkedEjj
mO:__ZN21CDROM_Interface_Image15PlayAudioSectorEmm
nO:__Z13DOS_FCBCreatett
oO:__Z12CPU_READ_DRXjRj
pO:__ZN15MidiHandler_oss7PlayMsgEPh
qO:__ZNSt3__210__list_impIN7Section16Function_wrapperENS_9allocatorIS2_EEE5clearEv
rO:__ZNK10__cxxabiv117__class_type_info24process_found_base_classEPNS_19__dynamic_cast_infoEPvi
sO:__ZN12Section_prop15Add_multiremainERKNSt3__212basic_stringIcNS0_11char_traitsIcEENS0_9allocatorIcEEEEN8Property10Changeable5ValueES8_
tO:__Z29INT10_PerformGrayScaleSummingtt
uO:__ZNSt3__214__split_bufferIPNS_6locale5facetERNS_15__sso_allocatorIS3_Lm28EEEEC2EmmS6_
vO:__ZNKSt3__27collateIcE10do_compareEPKcS3_S3_S3_
wO:__ZNK12_GLOBAL__N_116itanium_demangle20DynamicExceptionSpec9printLeftERNS_12OutputStreamE
xO:__ZN5Adlib6Module9DualWriteEhhh
yO:_zip_source_commit_write
zO:__ZL10PathExistsPKc
AO:__ZN7Program15ChangeToLongCmdEv
BO:__ZN24VGA_UnchainedEGA_Handler6writedEjj
CO:__ZN12_GLOBAL__N_116itanium_demangle14PODSmallVectorIPNS0_24ForwardTemplateReferenceELm4EE9push_backERKS3_
DO:__ZN11GUSChannelsC2Eh
EO:__ZL14AddJAxisButtonjjjjPKcjjbP11CJAxisEvent
FO:__Z23DOS_DelMultiplexHandlerPFbvE
GO:__Z19BIOS_AddKeyToBuffert
HO:__ZN7CMscdex13GetCurrentPosEhR4SMSF
IO:__ZN7CMscdex11ReadSectorsEhbjtj
JO:__ZNKSt3__212basic_stringIcNS_11char_traitsIcEENS_9allocatorIcEEE5rfindEcm
KO:_fopen
LO:__ZNSt3__24listINS_12basic_stringIcNS_11char_traitsIcEENS_9allocatorIcEEEENS4_IS6_EEE5eraseENS_21__list_const_iteratorIS6_PvEE
MO:__ZNSt3__214__num_put_base12__format_intEPcPKcbj
NO:__ZNK12_GLOBAL__N_116itanium_demangle12EnableIfAttr9printLeftERNS_12OutputStreamE
OO:__Z16DOS_FCBFindFirsttt
PO:__Z14swapInNextDiskb
QO:__ZNSt3__26vectorI5ValueNS_9allocatorIS1_EEE11__vallocateEm
RO:__ZN15DOS_Drive_Cache13ClearFileInfoEPNS_9CFileInfoE
SO:__ZN12Section_prop9Add_multiERKNSt3__212basic_stringIcNS0_11char_traitsIcEENS0_9allocatorIcEEEEN8Property10Changeable5ValueES8_
TO:__ZN12Section_prop10Add_stringERKNSt3__212basic_stringIcNS0_11char_traitsIcEENS0_9allocatorIcEEEEN8Property10Changeable5ValueEPKc
UO:__ZZN12_GLOBAL__N_116itanium_demangle22AbstractManglingParserINS0_14ManglingParserINS_16DefaultAllocatorEEES3_E13parseEncodingEvENKUlvE_clEv
VO:__ZN9DOS_Shell10CMD_ATTRIBEPc
WO:__ZN5DBOPL8Operator13UpdateReleaseEPKNS_4ChipE
XO:_zip_open
YO:__ZNSt3__26vectorIPN15DOS_Drive_Cache9CFileInfoENS_9allocatorIS3_EEE12__move_rangeEPS3_S7_S7_
ZO:__ZNSt3__212basic_stringIcNS_11char_traitsIcEENS_9allocatorIcEEE6assignERKS5_mm
_O:__ZN4OPL318change_releaserateEjPNS_15operator_structE
$O:__ZN4OPL218change_releaserateEjPNS_15operator_structE
aP:__ZL12SetTextLinesv
bP:__ZZNK12_GLOBAL__N_116itanium_demangle8FoldExpr9printLeftERNS_12OutputStreamEENKUlvE_clEv
cP:__ZNSt3__210__list_impIP8PropertyNS_9allocatorIS2_EEE5clearEv
dP:__ZNSt3__210__list_impIP7SectionNS_9allocatorIS2_EEE5clearEv
eP:__ZN9DOS_Shell7CMD_REMEPc
fP:__ZN12_GLOBAL__N_116itanium_demangle22AbstractManglingParserINS0_14ManglingParserINS_16DefaultAllocatorEEES3_ED2Ev
gP:__Z15GFX_StartUpdateRPhRj
hP:__ZNSt3__213__vector_baseINS_12basic_stringIcNS_11char_traitsIcEENS_9allocatorIcEEEENS4_IS6_EEED2Ev
iP:__ZN21InitPageUserROHandler14writew_checkedEjj
jP:__ZN12Section_prop8Add_pathERKNSt3__212basic_stringIcNS0_11char_traitsIcEENS0_9allocatorIcEEEEN8Property10Changeable5ValueEPKc
kP:__ZL18KEYBOARD_AddBufferh
lP:__zip_file_exists
mP:__ZNSt3__210__list_impIP5CBindNS_9allocatorIS2_EEE5clearEv
nP:__ZN4OPL316change_decayrateEjPNS_15operator_structE
oP:__ZN4OPL216change_decayrateEjPNS_15operator_structE
pP:__ZN12_GLOBAL__N_116itanium_demangle22AbstractManglingParserINS0_14ManglingParserINS_16DefaultAllocatorEEES3_E4makeINS0_16FunctionEncodingEJRPNS0_4NodeESA_NS0_9NodeArrayESA_RNS0_10QualifiersERNS0_15FunctionRefQualEEEES9_DpOT0_
qP:_inflateEnd
rP:__ZNK12_GLOBAL__N_116itanium_demangle13ParameterPack19hasRHSComponentSlowERNS_12OutputStreamE
sP:__ZN5DBOPL8Operator14TemplateVolumeILNS0_5StateE2EEEiv
tP:__Z13VGA_SetupMiscv
uP:_twobyte_strstr
vP:_strlen
wP:__ZNKSt3__27collateIwE10do_compareEPKwS3_S3_S3_
xP:__ZN16VGA_LIN4_Handler6writedEjj
yP:__ZN12Section_prop8Add_boolERKNSt3__212basic_stringIcNS0_11char_traitsIcEENS0_9allocatorIcEEEEN8Property10Changeable5ValueEb
zP:__ZL11FPU_FXTRACTv
AP:__ZL13PCJr_FindModev
BP:_zip_get_num_entries
CP:__ZN12Section_prop7Add_intERKNSt3__212basic_stringIcNS0_11char_traitsIcEENS0_9allocatorIcEEEEN8Property10Changeable5ValueEi
DP:__ZN12CCheckButton5ClickEv
EP:__ZNSt3__26vectorI5ValueNS_9allocatorIS1_EEEC2ERKS4_
FP:__ZN10cdromDrive8FileOpenEPP8DOS_FilePcj
GP:__Z13CALLBACK_Idlev
HP:_zip_source_get_compression_flags
IP:__ZN9localFile4ReadEPhPt
JP:__ZNK12_GLOBAL__N_116itanium_demangle13ParameterPack13getSyntaxNodeERNS_12OutputStreamE
KP:__ZL9write_cmsjjj
LP:__ZL14LoadMoveRegionjR10MoveRegion
MP:__ZNK12_GLOBAL__N_116itanium_demangle13ParameterPack15hasFunctionSlowERNS_12OutputStreamE
NP:__ZN25VGA_UnchainedRead_Handler5readdEj
OP:__ZN12_GLOBAL__N_116itanium_demangle13EnclosingExprC2ENS_10StringViewEPNS0_4NodeES2_
PP:__ZL12status_latchj
QP:__ZN24VGA_UnchainedVGA_Handler6writedEjj
RP:_fstat
SP:__ZL8write_sbjjj
TP:__ZNKSt3__27codecvtIDsc11__mbstate_tE6do_outERS1_PKDsS5_RS5_PcS7_RS7_
UP:__ZN10device_CON14GetInformationEv
VP:__Z10mem_writedjj
WP:__ZNKSt3__27codecvtIDsc11__mbstate_tE5do_inERS1_PKcS5_RS5_PDsS7_RS7_
XP:__ZNKSt3__27codecvtIDic11__mbstate_tE6do_outERS1_PKDiS5_RS5_PcS7_RS7_
YP:__ZN15CStickBindGroup14CreateAxisBindEjb
ZP:__ZN10cdromDrive9FindFirstEPcR7DOS_DTAb
_P:__ZNKSt3__27codecvtIDic11__mbstate_tE5do_inERS1_PKcS5_RS5_PDiS7_RS7_
$P:__ZNSt3__213basic_filebufIcNS_11char_traitsIcEEE11__read_modeEv
aQ:__ZNK12_GLOBAL__N_116itanium_demangle13ParameterPack12hasArraySlowERNS_12OutputStreamE
bQ:__Z9mem_readdj
cQ:__ZN15MidiHandler_oss9PlaySysexEPhj
dQ:__Z28INT10_GetAllPaletteRegistersj
eQ:__ZNSt3__26vectorIPNS_6locale5facetENS_15__sso_allocatorIS3_Lm28EEEE11__vallocateEm
fQ:__ZN15CStickBindGroup13CreateHatBindEjh
gQ:_strtok
hQ:__ZL15MakeAspectTablejjdj
iQ:__ZN21CDROM_Interface_Image11ReadSectorsEjbmm
jQ:_compression_source_new
kQ:_zip_source_seek_write
lQ:__zip_cdir_free
mQ:__ZNK12_GLOBAL__N_116itanium_demangle24ForwardTemplateReference19hasRHSComponentSlowERNS_12OutputStreamE
nQ:_zip_source_stat
oQ:_zip_source_make_command_bitmap
pQ:__ZNSt3__214__split_bufferINS_12basic_stringIcNS_11char_traitsIcEENS_9allocatorIcEEEERNS4_IS6_EEED2Ev
qQ:__ZN8Prop_intC2ERKNSt3__212basic_stringIcNS0_11char_traitsIcEENS0_9allocatorIcEEEEN8Property10Changeable5ValueEi
rQ:__ZNSt3__214__split_bufferIPN15DOS_Drive_Cache9CFileInfoERNS_9allocatorIS3_EEE18__construct_at_endINS_13move_iteratorIPS3_EEEENS_9enable_ifIXsr21__is_forward_iteratorIT_EE5valueEvE4typeESD_SD_
sQ:___strerror_l
tQ:__ZNK12_GLOBAL__N_116itanium_demangle22ConversionOperatorType9printLeftERNS_12OutputStreamE
uQ:__ZN25VGA_UnchainedRead_Handler11readHandlerEj
vQ:__Z11ScanCMDBoolPcPKc
wQ:__ZN6Events15fixEventKeyCodeEP9SDL_Event
xQ:__ZN22VGA_ChainedEGA_Handler6writedEjj
yQ:__ZN5Adlib7Capture8AddWriteEjh
zQ:__Z14DOS_UnlinkFilePKc
AQ:__ZNK12_GLOBAL__N_116itanium_demangle19GlobalQualifiedName9printLeftERNS_12OutputStreamE
BQ:__ZNK12_GLOBAL__N_116itanium_demangle12FunctionType9printLeftERNS_12OutputStreamE
CQ:__ZN16VGA_LIN4_Handler5readdEj
DQ:__ZN15CTriggeredEvent13ActivateEventEbb
EQ:__ZN10localDrive11GetFileAttrEPcPt
FQ:__zip_u2d_time
GQ:___shlim
HQ:__ZNSt3__212basic_stringIcNS_11char_traitsIcEENS_9allocatorIcEEEaSEc
IQ:__ZNK12_GLOBAL__N_116itanium_demangle24ForwardTemplateReference15hasFunctionSlowERNS_12OutputStreamE
JQ:__ZNK10__cxxabiv120__si_class_type_info16search_above_dstEPNS_19__dynamic_cast_infoEPKvS4_ib
KQ:__ZN7CSerialD2Ev
LQ:__ZN22VGA_ChainedEGA_Handler5readdEj
MQ:__ZN15keyboard_layout5resetEv
NQ:__Z15VESA_GetPalettejjj
OQ:_getcwd
PQ:__ZNK12_GLOBAL__N_116itanium_demangle16StdQualifiedName9printLeftERNS_12OutputStreamE
QQ:__ZN12_GLOBAL__N_116itanium_demangle22AbstractManglingParserINS0_14ManglingParserINS_16DefaultAllocatorEEES3_E4makeINS0_12FunctionTypeEJRPNS0_4NodeERNS0_9NodeArrayERNS0_10QualifiersERNS0_15FunctionRefQualESA_EEES9_DpOT0_
RQ:__ZNK12_GLOBAL__N_116itanium_demangle15LiteralOperator9printLeftERNS_12OutputStreamE
SQ:__ZNK12_GLOBAL__N_116itanium_demangle13ParameterPack10printRightERNS_12OutputStreamE
TQ:__ZN12_GLOBAL__N_116DefaultAllocator8makeNodeINS_16itanium_demangle8NameTypeEJRA22_KcEEEPT_DpOT0_
UQ:__ZN12_GLOBAL__N_116DefaultAllocator8makeNodeINS_16itanium_demangle8NameTypeEJRA19_KcEEEPT_DpOT0_
VQ:__ZN12_GLOBAL__N_116DefaultAllocator8makeNodeINS_16itanium_demangle8NameTypeEJRA18_KcEEEPT_DpOT0_
WQ:__ZN12_GLOBAL__N_116DefaultAllocator8makeNodeINS_16itanium_demangle8NameTypeEJRA16_KcEEEPT_DpOT0_
XQ:__ZN12_GLOBAL__N_116DefaultAllocator8makeNodeINS_16itanium_demangle8NameTypeEJRA15_KcEEEPT_DpOT0_
YQ:__ZN12_GLOBAL__N_116DefaultAllocator8makeNodeINS_16itanium_demangle8NameTypeEJRA14_KcEEEPT_DpOT0_
ZQ:__ZN12_GLOBAL__N_116DefaultAllocator8makeNodeINS_16itanium_demangle8NameTypeEJRA13_KcEEEPT_DpOT0_
_Q:__ZN12_GLOBAL__N_116DefaultAllocator8makeNodeINS_16itanium_demangle8NameTypeEJRA12_KcEEEPT_DpOT0_
$Q:__ZN12_GLOBAL__N_116DefaultAllocator8makeNodeINS_16itanium_demangle8NameTypeEJRA11_KcEEEPT_DpOT0_
aR:__ZN12_GLOBAL__N_116DefaultAllocator8makeNodeINS_16itanium_demangle8NameTypeEJRA10_KcEEEPT_DpOT0_
bR:_strncmp
cR:__ZNK12_GLOBAL__N_116itanium_demangle8DtorName9printLeftERNS_12OutputStreamE
dR:__ZN13Virtual_Drive8FileOpenEPP8DOS_FilePcj
eR:__ZN12_GLOBAL__N_116DefaultAllocator8makeNodeINS_16itanium_demangle8NameTypeEJRA9_KcEEEPT_DpOT0_
fR:__ZN12_GLOBAL__N_116DefaultAllocator8makeNodeINS_16itanium_demangle8NameTypeEJRA8_KcEEEPT_DpOT0_
gR:__ZN12_GLOBAL__N_116DefaultAllocator8makeNodeINS_16itanium_demangle8NameTypeEJRA7_KcEEEPT_DpOT0_
hR:__ZN12_GLOBAL__N_116DefaultAllocator8makeNodeINS_16itanium_demangle8NameTypeEJRA6_KcEEEPT_DpOT0_
iR:__ZN12_GLOBAL__N_116DefaultAllocator8makeNodeINS_16itanium_demangle8NameTypeEJRA5_KcEEEPT_DpOT0_
jR:__ZN12_GLOBAL__N_116DefaultAllocator8makeNodeINS_16itanium_demangle8NameTypeEJRA4_KcEEEPT_DpOT0_
kR:__ZL18DOSBOX_UnlockSpeedb
lR:__Z9read_p3c5jj
mR:__Z16MIXER_AddChannelPFvjEjPKc
nR:__ZNK12_GLOBAL__N_116itanium_demangle13ParameterPack9printLeftERNS_12OutputStreamE
oR:__ZNK12_GLOBAL__N_116itanium_demangle13ObjCProtoName12isObjCObjectEv
pR:__ZN5Value10set_stringERKNSt3__212basic_stringIcNS0_11char_traitsIcEENS0_9allocatorIcEEEE
qR:__ZL10write_p201jjj
rR:__ZL10HLT_Decodev
sR:__ZN7CSerial15ByteTransmittedEv
tR:_puts
uR:__Z11MEM_StrCopyjPcj
vR:__ZNK12_GLOBAL__N_116itanium_demangle24ForwardTemplateReference12hasArraySlowERNS_12OutputStreamE
wR:__ZN21CDROM_Interface_Image10BinaryFile9getLengthEv
xR:__ZN12Virtual_File4ReadEPhPt
yR:__ZN11GUSChannels11WritePanPotEh
zR:__ZN10device_COM4ReadEPhPt
AR:__Z15VESA_SetPalettejjj
BR:__ZN21CDROM_Interface_ImageD2Ev
CR:__ZN21CDROM_Interface_Image9SetDeviceEPci
DR:__ZN12DriveManager10AppendDiskEiP9DOS_Drive
ER:__ZL12TandyDACReadjj
FR:__ZNK12_GLOBAL__N_116itanium_demangle9ThrowExpr9printLeftERNS_12OutputStreamE
GR:__ZN21CDROM_Interface_Image11ClearTracksEv
HR:__ZL17HandleMouseMotionP20SDL_MouseMotionEvent
IR:__ZL13DTAExtendNamePcS_S_
JR:__Z28INT10_SetOverscanBorderColorh
KR:__ZN7CMscdex13GetVolumeSizeEh
LR:__ZN12_GLOBAL__N_116itanium_demangle14PODSmallVectorIPNS0_4NodeELm32EE9push_backERKS3_
MR:__ZN8fatDrive16deleteClustChainEj
NR:__ZN8isoDrive11GetFileAttrEPcPt
OR:__ZN8fatDrive9FindFirstEPcR7DOS_DTAb
PR:__ZN13CKeyBindGroup15CreateEventBindEP9SDL_Event
QR:__ZN12_GLOBAL__N_116itanium_demangle14PODSmallVectorIPNS0_4NodeELm8EE9push_backERKS3_
RR:__ZNK12_GLOBAL__N_116itanium_demangle24ForwardTemplateReference13getSyntaxNodeERNS_12OutputStreamE
SR:__ZL10SetCurModeP14VideoModeBlockt
TR:__Z20DOS_GetFreeDiskSpacehPtPhS_S_
UR:__ZL23KEYBOARD_TransferBufferj
VR:__Z26INT10_SetSingleDACRegisterhhhh
WR:__ZNSt3__24listINS_12basic_stringIcNS_11char_traitsIcEENS_9allocatorIcEEEENS4_IS6_EEE9pop_frontEv
XR:__ZL13INT17_Handlerv
YR:_zip_fopen_index_encrypted
ZR:_open
_R:__ZN12MessageBlockC2EPKcS1_
$R:__Z30INT10_SetupVideoParameterTablej
aS:__ZN5DBOPL7Handler8GenerateEP12MixerChannelj
bS:__ZN12_GLOBAL__N_116itanium_demangle15ClosureTypeNameC2ENS0_9NodeArrayENS_10StringViewE
cS:__ZL16MAPPER_LoadBindsv
dS:__ZN5Adlib7Capture10WriteCacheEv
eS:__Z11CPU_GET_CRXj
fS:__ZN6MyFifo4getbEv
gS:__ZL11UpdateTrackh
hS:__ZNK12_GLOBAL__N_116itanium_demangle8NameType9printLeftERNS_12OutputStreamE
iS:__ZN8fatDrive14zeroOutClusterEj
jS:__ZN12_GLOBAL__N_116itanium_demangle14IntegerLiteralC2ENS_10StringViewES2_
kS:__ZL24TandyDACGenerateDMASoundj
lS:_pad
mS:__ZNK12_GLOBAL__N_116itanium_demangle8BoolExpr9printLeftERNS_12OutputStreamE
nS:__ZN13CFCSBindGroupC2Ejj
oS:__Z17SVGA_Setup_Driverv
pS:__zip_deregister_source
qS:__ZNSt3__29__num_getIwE17__stage2_int_prepERNS_8ios_baseERw
rS:__ZNSt3__29__num_getIcE17__stage2_int_prepERNS_8ios_baseERc
sS:__ZNK10__cxxabiv129__pointer_to_member_type_info16can_catch_nestedEPKNS_16__shim_type_infoE
tS:__ZN21InitPageUserROHandler14writeb_checkedEjj
uS:__ZN15DOS_Drive_CacheC2Ev
vS:__ZL14TandyDACUpdatej
wS:__ZL20Mouse_SetSensitivityttt
xS:__ZN16TaskStateSegment12Get_SSx_ESPxEjRjS0_
yS:__ZN15InitPageHandler5readwEj
zS:__ZL18VGA_Draw_4BPP_Linejj
AS:__Z14RENDER_SetSizejjjfdbb
BS:__ZN5MIXER10ShowVolumeEPKcff
CS:__Z9mem_readwj
DS:__Z20DetermineMode_PVGA1Av
ES:__ZNK12_GLOBAL__N_116itanium_demangle24ForwardTemplateReference10printRightERNS_12OutputStreamE
FS:__ZN15InitPageHandler5readbEj
GS:__ZN12_GLOBAL__N_116itanium_demangle22AbstractManglingParserINS0_14ManglingParserINS_16DefaultAllocatorEEES3_E13makeNodeArrayIPPNS0_4NodeEEENS0_9NodeArrayET_SB_
HS:__ZL10FPU_FSTENVj
IS:__Z10mem_writewjt
JS:__ZN14PIC_Controller9start_irqEh
KS:__Z18DetermineMode_ET4Kv
LS:__Z18DetermineMode_ET3Kv
MS:__zip_read
NS:__ZNSt3__24listINS_12basic_stringIcNS_11char_traitsIcEENS_9allocatorIcEEEENS4_IS6_EEE10push_frontERKS6_
OS:__ZNSt3__24listI12MessageBlockNS_9allocatorIS1_EEE5eraseENS_21__list_const_iteratorIS1_PvEE
PS:__ZNK12_GLOBAL__N_116itanium_demangle24ForwardTemplateReference9printLeftERNS_12OutputStreamE
QS:__ZN15InitPageHandler6writewEjj
RS:__ZL14GUS_TimerEventj
SS:__Z13DOS_AddDeviceP10DOS_Device
TS:___stdio_seek
US:__ZN6MyFifo4addbEh
VS:__ZN15InitPageHandler6writebEjj
WS:__ZN12_GLOBAL__N_116itanium_demangle8FoldExprC2EbNS_10StringViewEPKNS0_4NodeES5_
XS:__Z9CPU_PUSHFj
YS:__Z13CPU_WRITE_CRXjj
ZS:__ZNSt3__24listIN7Section16Function_wrapperENS_9allocatorIS2_EEE10push_frontERKS2_
_S:__ZN15InitPageHandler5readdEj
$S:__ZN13Virtual_Drive8FileStatEPKcP14FileStat_Block
aT:__ZN20IO_WriteHandleObject7InstallEjPFvjjjEjj
bT:__ZN5Value9plaincopyERKS_
cT:__ZL20VGA_Draw_Linear_Linejj
dT:__ZN15InitPageHandler6writedEjj
eT:__ZL18VGA_Draw_1BPP_Linejj
fT:__ZN8Prop_int8SetValueERKNSt3__212basic_stringIcNS0_11char_traitsIcEENS0_9allocatorIcEEEE
gT:__ZN15DOS_Drive_Cache17RemoveTrailingDotEPc
hT:__ZN12Section_line15HandleInputlineERKNSt3__212basic_stringIcNS0_11char_traitsIcEENS0_9allocatorIcEEEE
iT:__ZL7get_keyRt
jT:__ZL13INT2F_Handlerv
kT:__Z14XGA_GetDualRegj
lT:__ZN19IO_ReadHandleObject7InstallEjPFjjjEjj
mT:__ZN11CommandLine11FindCommandEjRNSt3__212basic_stringIcNS0_11char_traitsIcEENS0_9allocatorIcEEEE
nT:__ZN21CDROM_Interface_Image10BinaryFile4readEPhii
oT:__ZNK10__cxxabiv122__base_class_type_info16search_above_dstEPNS_19__dynamic_cast_infoEPKvS4_ib
pT:__ZN5DBOPL7ChannelC2Ev
qT:__ZN12Section_propD2Ev
rT:__Z13vga_read_p3dajj
sT:_zip_source_layered_create
tT:__ZN15C4AxisBindGroupC2Ejj
uT:__Z16VGA_SetCGA2Tablehh
vT:_zip_source_close
wT:_zip_source_buffer_create
xT:__zip_cdir_new
yT:__ZNSt3__213__vector_baseI10copysourceNS_9allocatorIS1_EEED2Ev
zT:__ZN5DBOPL8Operator7WriteE0EPKNS_4ChipEh
AT:__ZL9ExpandDotPcS_
BT:__ZNSt3__212basic_stringIcNS_11char_traitsIcEENS_9allocatorIcEEEC2ERKS5_
CT:__ZN10CJAxisBind8BindNameEPc
DT:__Z19INT10_SelectDACPagehh
ET:__ZNK10__cxxabiv120__si_class_type_info27has_unambiguous_public_baseEPNS_19__dynamic_cast_infoEPvi
FT:__Z18DOS_GetSTDINStatusv
GT:__Z10mem_strlenj
HT:__ZNSt3__24listIN7Section16Function_wrapperENS_9allocatorIS2_EEE9push_backERKS2_
IT:__ZN22CALLBACK_HandlerObject8AllocateEPFjvEPKc
JT:__ZN13DmaControllerD2Ev
KT:__ZN12CCHBindGroupC2Ejj
LT:_store_int_273
MT:__Z13MEM_BlockReadjPvj
NT:__Z13DOS_DelDeviceP10DOS_Device
OT:__ZNSt3__24listIN7Section16Function_wrapperENS_9allocatorIS2_EEE5eraseENS_21__list_const_iteratorIS2_PvEE
PT:__ZNK10__cxxabiv122__base_class_type_info27has_unambiguous_public_baseEPNS_19__dynamic_cast_infoEPvi
QT:__ZN11MixerObject7InstallEPFvjEjPKc
RT:__ZN10cdromDrive6SetDirEPKc
ST:__ZL19Default_IRQ_Handlerv
TT:__ZNSt3__24listINS_12basic_stringIcNS_11char_traitsIcEENS_9allocatorIcEEEENS4_IS6_EEE9push_backERKS6_
UT:__ZN5Cross23CreatePlatformConfigDirERNSt3__212basic_stringIcNS0_11char_traitsIcEENS0_9allocatorIcEEEE
VT:__ZL13AddJHatButtonjjjjPKcjjj
WT:__Z16INT10_GetDACPagePhS_
XT:_zip_source_remove
YT:__ZN8Prop_hex8SetValueERKNSt3__212basic_stringIcNS0_11char_traitsIcEENS0_9allocatorIcEEEE
ZT:__ZN5DBOPL8Operator14TemplateVolumeILNS0_5StateE1EEEiv
_T:__ZN5DBOPL7Channel15UpdateFrequencyEPKNS_4ChipEh
$T:__ZN11CommandLine13Get_arglengthEv
aU:__ZN10DmaChannelC2Ehb
bU:__Z14MEM_BlockWritejPKvj
cU:__Z14GFX_SetPalettejjP12GFX_PalEntry
dU:__ZNSt3__213__vector_baseI5ValueNS_9allocatorIS1_EEED2Ev
eU:__ZNSt3__213unordered_mapINS_12basic_stringIcNS_11char_traitsIcEENS_9allocatorIcEEEEPFvRKS6_PKcPFvS8_RK10jsonstreamEENS_4hashIS6_EENS_8equal_toIS6_EENS4_INS_4pairIS7_SH_EEEEED2Ev
fU:__ZN11PageHandler5readdEj
gU:__zip_unchange_data
hU:__ZN12_GLOBAL__N_116itanium_demangle8CastExprC2ENS_10StringViewEPKNS0_4NodeES5_
iU:__ZL23EMM_RestoreMappingTablev
jU:__ZN15DOS_Drive_Cache7OpenDirEPKcRt
kU:__ZN11PageHandler6writedEjj
lU:__ZNSt3__214__split_bufferIN21CDROM_Interface_Image5TrackERNS_9allocatorIS2_EEED2Ev
mU:__ZN22CALLBACK_HandlerObject11Set_RealVecEh
nU:__ZL13DOS_26Handlerv
oU:__ZNSt3__214__split_bufferIPN15DOS_Drive_Cache9CFileInfoERNS_9allocatorIS3_EEED2Ev
pU:__ZN5ValueC2ERKNSt3__212basic_stringIcNS0_11char_traitsIcEENS0_9allocatorIcEEEENS_5EtypeE
qU:__ZN12_GLOBAL__N_116itanium_demangle10MemberExprC2EPKNS0_4NodeENS_10StringViewES4_
rU:__ZN12_GLOBAL__N_116itanium_demangle10BinaryExprC2EPKNS0_4NodeENS_10StringViewES4_
sU:__Z15DOS_GetFileAttrPKcPt
tU:__zip_ef_new
uU:__ZN22CALLBACK_HandlerObject7InstallEPFjvEjjPKc
vU:__ZN12_GLOBAL__N_116itanium_demangle10AbiTagAttrC2EPNS0_4NodeENS_10StringViewE
wU:__Z7CPU_HLTj
xU:__ZN5CBindC2EPNSt3__24listIPS_NS0_9allocatorIS2_EEEE
yU:__ZN5Adlib6Module9CtrlWriteEh
zU:__ZN21CDROM_Interface_Image14GetAudioTracksERiS0_R4SMSF
AU:__ZN10TANDYSOUNDD2Ev
BU:__ZN10CJAxisBind10ConfigNameEPc
CU:__ZL9Compositeb
DU:__ZL11DSP_DoWriteh
EU:__Z13DOS_SetupMiscv
FU:__ZNK10__cxxabiv122__base_class_type_info16search_below_dstEPNS_19__dynamic_cast_infoEPKvib
GU:__ZL8FPU_FXCHjj
HU:__ZL13convToDirFilePcS_
IU:__Z12VFILE_RemovePKc
JU:__ZNK10__cxxabiv117__pbase_type_info9can_catchEPKNS_16__shim_type_infoERPv
KU:__ZN9CJHatBind10ConfigNameEPc
LU:__ZN12MixerChannel6FillUpEv
MU:__Z29INT10_EGA_RIL_ReadRegisterSettj
NU:__ZNSt3__214__split_bufferI10copysourceRNS_9allocatorIS1_EEED2Ev
OU:__ZN21CDROM_Interface_Image8GetTrackEi
PU:__ZL8FPU_FXAMv
QU:__ZNSt3__24listIP5CBindNS_9allocatorIS2_EEE5eraseENS_21__list_const_iteratorIS2_PvEE
RU:__Z16read_herc_statusjj
SU:__ZNSt3__24listIPFbvENS_9allocatorIS2_EEE5eraseENS_21__list_const_iteratorIS2_PvEE
TU:__ZNSt3__212__hash_tableINS_17__hash_value_typeINS_12basic_stringIcNS_11char_traitsIcEENS_9allocatorIcEEEEPFvRKS7_PKcPFvS9_RK10jsonstreamEEEENS_22__unordered_map_hasherIS7_SJ_NS_4hashIS7_EELb1EEENS_21__unordered_map_equalIS7_SJ_NS_8equal_toIS7_EELb1EEENS5_ISJ_EEEC2ERKST_
UU:__zip_fseek
VU:__ZN5DBOPL8Operator11UpdateRatesEPKNS_4ChipE
WU:__ZN14PIC_Controller17update_active_irqEv
XU:__ZL16AddJButtonButtonjjjjPKcjj
YU:__ZN9DOS_ShellC2Ev
ZU:__ZNK12_GLOBAL__N_116itanium_demangle12InitListExpr9printLeftERNS_12OutputStreamE
_U:__Z17CALLBACK_Allocatev
$U:__ZNSt3__214__split_bufferIP13CHandlerEventRNS_9allocatorIS2_EEED2Ev
aV:__ZNSt3__213basic_filebufIcNS_11char_traitsIcEEE5closeEv
bV:__ZN22VGA_ChainedVGA_Handler5readwEj
cV:__ZN12_GLOBAL__N_116itanium_demangle22AbstractManglingParserINS0_14ManglingParserINS_16DefaultAllocatorEEES3_E4makeINS0_7NewExprEJRNS0_9NodeArrayERPNS0_4NodeES9_RbSD_EEESB_DpOT0_
dV:__ZN12_GLOBAL__N_116itanium_demangle22AbstractManglingParserINS0_14ManglingParserINS_16DefaultAllocatorEEES3_E4makeINS0_7NewExprEJRNS0_9NodeArrayERPNS0_4NodeES8_RbSD_EEESB_DpOT0_
eV:__Z18MEM_GetPageHandlerj
fV:__ZL10write_p3c6jjj
gV:__ZNSt3__214__split_bufferIPFvPP7ProgramERNS_9allocatorIS5_EEED2Ev
hV:__ZN7CSerial20changeLinePropertiesEv
iV:__ZL21AddJAxisButton_hiddenjjbP11CJAxisEvent
jV:__ZZN6Events12registerExitEvENK3__1clERKNSt3__212basic_stringIcNS1_11char_traitsIcEENS1_9allocatorIcEEEEPKcPFvS9_RK10jsonstreamE
kV:__ZNSt3__214__split_bufferIP10CBindGroupRNS_9allocatorIS2_EEED2Ev
lV:__ZN18GDTDescriptorTable13SetDescriptorEjR10Descriptor
mV:__ZN18GDTDescriptorTable13GetDescriptorEjR10Descriptor
nV:__ZL12TEXT_FillRowhhhjh
oV:__Z23IO_RegisterWriteHandlerjPFvjjjEjj
pV:__ZNSt3__218__find_first_of_ceIPKcS2_PFbccEEET_S5_S5_T0_S6_T1_
qV:__Z7lowcaseRNSt3__212basic_stringIcNS_11char_traitsIcEENS_9allocatorIcEEEE
rV:_perror
sV:___towrite
tV:__ZNSt3__214__split_bufferIP9DOS_DriveRNS_9allocatorIS2_EEED2Ev
uV:__ZNSt3__214__split_bufferI9SDL_EventRNS_9allocatorIS1_EEED2Ev
vV:__ZNSt3__214__split_bufferI5ValueRNS_9allocatorIS1_EEED2Ev
wV:__ZNKSt3__27codecvtIwc11__mbstate_tE11do_encodingEv
xV:__ZN8PropertyC2ERKNSt3__212basic_stringIcNS0_11char_traitsIcEENS0_9allocatorIcEEEENS_10Changeable5ValueE
yV:__ZN7DOS_DTA9SetResultEPKcjtth
zV:__ZN3DOSD2Ev
AV:__Z6upcaseRNSt3__212basic_stringIcNS_11char_traitsIcEENS_9allocatorIcEEEE
BV:__Z22IO_RegisterReadHandlerjPFjjjEjj
CV:__ZN5DBOPL8Operator15UpdateFrequencyEv
DV:__zip_source_new
EV:__ZNSt3__214__split_bufferIP7CButtonRNS_9allocatorIS2_EEED2Ev
FV:__ZNSt3__214__split_bufferIP6CEventRNS_9allocatorIS2_EEED2Ev
GV:__ZN7DOS_DTA9GetResultEPcRjRtS2_Rh
HV:__ZN12Section_lineC2ERKNSt3__212basic_stringIcNS0_11char_traitsIcEENS0_9allocatorIcEEEE
IV:__ZN7SectionC2ERKNSt3__212basic_stringIcNS0_11char_traitsIcEENS0_9allocatorIcEEEE
JV:__ZNSt3__215basic_streambufIcNS_11char_traitsIcEEE5uflowEv
KV:__ZNKSt3__29__num_getIwE12__do_widen_pIwEEPKT_RNS_8ios_baseEPS3_
LV:__ZN10CBindGroupC2Ev
MV:__Z7CPU_CLIv
NV:__Z16SVGA_S3_GetClockv
OV:__ZN7DOS_PSP17FindEntryByHandleEh
PV:__ZN7DOS_FCB6CreateEb
QV:__ZN22CALLBACK_HandlerObject7InstallEPFjvEjPKc
RV:__ZN14PIC_Controller9lower_irqEh
SV:__ZL15RENDER_CallBack23GFX_CallBackFunctions_t
TV:__Z7CPU_STIv
UV:__ZN18IllegalPageHandler6writebEjj
VV:__ZN12_GLOBAL__N_112OutputStreampLENS_10StringViewE
WV:__ZN15DOS_Drive_Cache8SetLabelEPKcbb
XV:__ZN22VGA_ChainedVGA_Handler6writebEjj
YV:__Z13TIMER_AddTickv
ZV:_strncat
_V:__Z16XMS_ResizeMemoryjj
$V:__ZN7CMscdex14GetMediaStatusEhRbS0_S0_
aW:__ZN7CButton5OnTopEjj
bW:__ZN5DBOPL8Operator12UpdateAttackEPKNS_4ChipE
cW:__ZN12_GLOBAL__N_116itanium_demangle22ElaboratedTypeSpefTypeC2ENS_10StringViewEPNS0_4NodeE
dW:__ZN10localDrive10FileExistsEPKc
eW:__ZL18VGA_Draw_2BPP_Linejj
fW:__ZN18IllegalPageHandler5readbEj
gW:__ZL16VGA_Text_Memwrapj
hW:__ZL11DSP_AddDatah
iW:__ZL24EMM_AllocateSystemHandlet
jW:_zip_stat_init
kW:__ZNKSt3__25ctypeIwE5do_isEPKwS3_Pt
lW:__ZN12_GLOBAL__N_116itanium_demangle22AbstractManglingParserINS0_14ManglingParserINS_16DefaultAllocatorEEES3_E4makeINS0_8FoldExprEJRbRNS_10StringViewERPNS0_4NodeESD_EEESC_DpOT0_
mW:__ZL6FROUNDd
nW:__Z19DOS_GetDefaultDrivev
oW:__ZL12GetResult_16tttt
pW:__Z15PAGING_ClearTLBv
qW:___string_read
rW:__ZNSt3__26vectorIPNS_6locale5facetENS_15__sso_allocatorIS3_Lm28EEEEC2Em
sW:__ZN9localFileC2EPKcP8_IO_FILE
tW:_zip_source_function_create
uW:__zip_progress_update
vW:__ZN14PIC_Controller9raise_irqEh
wW:__ZN12_GLOBAL__N_116itanium_demangle11SpecialNameC2ENS_10StringViewEPKNS0_4NodeE
xW:__ZL10FPU_FSCALEv
yW:___fmodeflags
zW:__ZNSt3__213__vector_baseIPNS_6locale5facetENS_15__sso_allocatorIS3_Lm28EEEED2Ev
AW:__ZNSt3__28ios_base4initEPv
BW:__ZN12_GLOBAL__N_116itanium_demangle10PrefixExprC2ENS_10StringViewEPNS0_4NodeE
CW:__ZL25EMM_GetPagesForAllHandlesjRt
DW:__ZN5DBOPL8Operator11UpdateDecayEPKNS_4ChipE
EW:__ZL10MakeTablesv
FW:__Z18IO_FreeReadHandlerjjj
GW:_write_cdir
HW:__ZN5DBOPL7Channel7WriteA0EPKNS_4ChipEh
IW:__ZN16CContinuousEvent13ActivateEventEbb
JW:__ZN13CKeyBindGroupD2Ev
KW:__Z19IO_FreeWriteHandlerjjj
LW:__Z12Herc_Palettev
MW:__ZN10localDrive9RemoveDirEPc
NW:__ZN10localDrive7MakeDirEPc
OW:__ZN14TSS_Descriptor7SetBusyEb
PW:_wmemmove
QW:_start
RW:_memcmp
SW:__ZNSt3__26vectorIPNS_6locale5facetENS_15__sso_allocatorIS3_Lm28EEEE6resizeEm
TW:__ZN4OPL315operator_outputEPNS_15operator_structEii
UW:__ZN4OPL215operator_outputEPNS_15operator_structEii
VW:__ZN5TIMERD2Ev
WW:_vasprintf
XW:__zip_buffer_skip
YW:__ZN11Prop_stringC2ERKNSt3__212basic_stringIcNS0_11char_traitsIcEENS0_9allocatorIcEEEEN8Property10Changeable5ValueEPKc
ZW:__ZL18TandyCheckLineMaskv
_W:__Z14read_p3c1_et4kjj
$W:__Z14read_p3c1_et3kjj
aX:__Z10INT10_InitP7Section
bX:__ZN15DOS_Drive_Cache16CompareShortnameEPKcS1_
cX:__ZL17VGA_DAC_SendColorjj
dX:__Z14XMS_LockMemoryjRj
eX:__Z10DOS_NewPSPtt
fX:__ZNSt3__213__lower_boundIRNS_6__lessIjmEEPKjmEET0_S6_S6_RKT1_T_
gX:__ZN12_GLOBAL__N_116DefaultAllocator8makeNodeINS_16itanium_demangle15ConditionalExprEJRPNS2_4NodeES6_S6_EEEPT_DpOT0_
hX:__ZN12_GLOBAL__N_116DefaultAllocator8makeNodeINS_16itanium_demangle15BracedRangeExprEJRPNS2_4NodeES6_S6_EEEPT_DpOT0_
iX:__Z14read_p3c5_et4kjj
jX:__Z14read_p3c5_et3kjj
kX:__zip_write
lX:__ZNKSt3__25ctypeIwE11do_scan_notEtPKwS3_
mX:__ZN7CMscdex12PlayAudioMSFEhjj
nX:__Z17DOS_GetCurrentDirhPc
oX:_fwrite
pX:__ZN7DOS_PSP17FindFreeFileEntryEv
qX:__ZL14DSP_ChangeRatej
rX:__ZN7Section11ExecuteInitEb
sX:__ZN12_GLOBAL__N_116itanium_demangle22AbstractManglingParserINS0_14ManglingParserINS_16DefaultAllocatorEEES3_E4makeINS0_10BinaryExprEJRPNS0_4NodeERNS_10StringViewESA_EEES9_DpOT0_
tX:__Z15write_p3c0_et4kjjj
uX:__Z15write_p3c0_et3kjjj
vX:__zip_hash_free
wX:__ZNSt3__2lsIcNS_11char_traitsIcEENS_9allocatorIcEEEERNS_13basic_ostreamIT_T0_EES9_RKNS_12basic_stringIS6_S7_T1_EE
xX:__ZN9Prop_boolC2ERKNSt3__212basic_stringIcNS0_11char_traitsIcEENS0_9allocatorIcEEEEN8Property10Changeable5ValueEb
yX:__ZN9MemStruct5GetItEjj
zX:__ZN24VGA_UnchainedEGA_Handler6writewEjj
AX:__ZNKSt3__24hashINS_12basic_stringIcNS_11char_traitsIcEENS_9allocatorIcEEEEEclERKS6_
BX:__ZN7CSerial8Read_LSREv
CX:__ZN7CMscdex10GetSubUnitEt
DX:__ZN4OPL318change_keepsustainEjPNS_15operator_structE
EX:__ZN4OPL218change_keepsustainEjPNS_15operator_structE
FX:__ZN12_GLOBAL__N_116itanium_demangle22AbstractManglingParserINS0_14ManglingParserINS_16DefaultAllocatorEEES3_E4makeINS0_15ClosureTypeNameEJRNS0_9NodeArrayERNS_10StringViewEEEEPNS0_4NodeEDpOT0_
GX:__ZN12_GLOBAL__N_116itanium_demangle10VectorTypeC2EPKNS0_4NodeENS0_12NodeOrStringE
HX:__ZN12_GLOBAL__N_116DefaultAllocator8makeNodeINS_16itanium_demangle10DeleteExprEJRPNS2_4NodeERbbEEEPT_DpOT0_
IX:__ZL15UpdateConductorv
JX:__ZL11DrawButtonsv
KX:__Z15write_p3c5_et4kjjj
LX:__Z15write_p3c5_et3kjjj
MX:__Z15DOS_FCBFindNexttt
NX:__ZN9MemStruct6SaveItEjjj
OX:__ZN15DOS_Drive_Cache9CFileInfoC2Ev
PX:__ZN12_GLOBAL__N_116DefaultAllocator8makeNodeINS_16itanium_demangle12CtorDtorNameEJRPNS2_4NodeEbRiEEEPT_DpOT0_
QX:__ZL24RENDER_FinishLineHandlerPKv
RX:__zip_buffer_set_offset
SX:__ZNSt3__219basic_ostringstreamIcNS_11char_traitsIcEENS_9allocatorIcEEED2Ev
TX:__ZNSt3__219basic_istringstreamIcNS_11char_traitsIcEENS_9allocatorIcEEED2Ev
UX:__ZN12_GLOBAL__N_116itanium_demangle9ArrayTypeC2EPKNS0_4NodeENS0_12NodeOrStringE
VX:__ZN12_GLOBAL__N_116itanium_demangle22AbstractManglingParserINS0_14ManglingParserINS_16DefaultAllocatorEEES3_E9NameStateC2EPS5_
WX:__ZN12_GLOBAL__N_116itanium_demangle22AbstractManglingParserINS0_14ManglingParserINS_16DefaultAllocatorEEES3_E4makeINS0_22ElaboratedTypeSpefTypeEJRNS_10StringViewERPNS0_4NodeEEEESB_DpOT0_
XX:__ZN12_GLOBAL__N_116itanium_demangle11PostfixExprC2EPKNS0_4NodeENS_10StringViewE
YX:__ZN12_GLOBAL__N_116DefaultAllocator8makeNodeINS_16itanium_demangle10BracedExprEJRPNS2_4NodeES6_bEEEPT_DpOT0_
ZX:_input
_X:__ZN12_GLOBAL__N_116itanium_demangle20PostfixQualifiedTypeC2EPNS0_4NodeENS_10StringViewE
$X:__ZL18Tandy_InitializeTSv
aY:__ZL18Tandy_InitializeSBv
bY:__ZN12_GLOBAL__N_116itanium_demangle9DotSuffixC2EPKNS0_4NodeENS_10StringViewE
cY:__ZN8Property6SetValERK5Valuebb
dY:__ZN7CMscdex6GetUPCEhRhPc
eY:__ZN12_GLOBAL__N_116itanium_demangle17VendorExtQualTypeC2EPKNS0_4NodeENS_10StringViewE
fY:__Z16DOS_CanonicalizePKcPc
gY:__ZN5Cross20GetPlatformConfigDirERNSt3__212basic_stringIcNS0_11char_traitsIcEENS0_9allocatorIcEEEE
hY:__ZN12_GLOBAL__N_116itanium_demangle15IntegerCastExprC2EPKNS0_4NodeENS_10StringViewE
iY:__ZN12CJButtonBind10ConfigNameEPc
jY:__ZN12_GLOBAL__N_116DefaultAllocator8makeNodeINS_16itanium_demangle13ReferenceTypeEJRPNS2_4NodeENS2_13ReferenceKindEEEEPT_DpOT0_
kY:__Z19VGA_ATTR_SetPalettehh
lY:__ZNSt3__28ios_base16__call_callbacksENS0_5eventE
mY:__ZNSt3__24listI12MessageBlockNS_9allocatorIS1_EEE9push_backERKS1_
nY:__ZNK10__cxxabiv117__class_type_info16search_above_dstEPNS_19__dynamic_cast_infoEPKvS4_ib
oY:__ZN5Cross14IsPathAbsoluteERKNSt3__212basic_stringIcNS0_11char_traitsIcEENS0_9allocatorIcEEEE
pY:__ZN12_GLOBAL__N_116itanium_demangle14ConversionExprC2EPKNS0_4NodeENS0_9NodeArrayE
qY:__ZN12_GLOBAL__N_116itanium_demangle13ObjCProtoNameC2EPKNS0_4NodeENS_10StringViewE
rY:__ZN12_GLOBAL__N_112OutputStream4growEm
sY:__Z17INT10_GetDACBlockttj
tY:__ZNSt3__26vectorI5ValueNS_9allocatorIS1_EEE18__construct_at_endIPS1_EENS_9enable_ifIXsr21__is_forward_iteratorIT_EE5valueEvE4typeES8_S8_m
uY:__ZN12CJButtonBind8BindNameEPc
vY:__ZL18DSP_PrepareDMA_Old9DMA_MODESbb
wY:__ZL12AddModButtonjjjjPKcj
xY:__Z14XMS_FreeMemoryj
yY:__ZNKSt3__220__time_get_c_storageIwE3__xEv
zY:__ZNKSt3__220__time_get_c_storageIwE3__rEv
AY:__ZNKSt3__220__time_get_c_storageIwE3__cEv
BY:__ZNKSt3__220__time_get_c_storageIwE3__XEv
CY:__ZNKSt3__220__time_get_c_storageIcE3__xEv
DY:__ZNKSt3__220__time_get_c_storageIcE3__rEv
EY:__ZNKSt3__220__time_get_c_storageIcE3__cEv
FY:__ZNKSt3__220__time_get_c_storageIcE3__XEv
GY:__ZN12_GLOBAL__N_116itanium_demangle22AbstractManglingParserINS0_14ManglingParserINS_16DefaultAllocatorEEES3_E4makeINS0_17VendorExtQualTypeEJRPNS0_4NodeERNS_10StringViewEEEES9_DpOT0_
HY:__ZN12_GLOBAL__N_116itanium_demangle12InitListExprC2EPKNS0_4NodeENS0_9NodeArrayE
IY:__ZN24VGA_UnchainedVGA_Handler6writewEjj
JY:__ZN4OPL37Handler8GenerateEP12MixerChannelj
KY:__ZN4OPL27Handler8GenerateEP12MixerChannelj
LY:__ZN12_GLOBAL__N_116itanium_demangle22AbstractManglingParserINS0_14ManglingParserINS_16DefaultAllocatorEEES3_E4makeINS0_13ReferenceTypeEJRPNS0_4NodeENS0_13ReferenceKindEEEES9_DpOT0_
MY:__ZL19DSP_E2_DMA_CallBackP10DmaChannel8DMAEvent
NY:___muldsi3
OY:__ZN12_GLOBAL__N_116itanium_demangle22AbstractManglingParserINS0_14ManglingParserINS_16DefaultAllocatorEEES3_E4makeINS0_15IntegerCastExprEJRPNS0_4NodeERNS_10StringViewEEEES9_DpOT0_
PY:__ZN12_GLOBAL__N_116itanium_demangle22AbstractManglingParserINS0_14ManglingParserINS_16DefaultAllocatorEEES3_E4makeINS0_15ConditionalExprEJRPNS0_4NodeESA_SA_EEES9_DpOT0_
QY:__ZN12_GLOBAL__N_116itanium_demangle22AbstractManglingParserINS0_14ManglingParserINS_16DefaultAllocatorEEES3_E4makeINS0_15BracedRangeExprEJRPNS0_4NodeESA_SA_EEES9_DpOT0_
RY:__Z15MEM_FreeLargestv
SY:__ZNSt3__212basic_stringIcNS_11char_traitsIcEENS_9allocatorIcEEEaSERKS5_
TY:__ZNKSt3__25ctypeIwE10do_scan_isEtPKwS3_
UY:__ZN15keyboard_layoutD2Ev
VY:__ZN12_GLOBAL__N_122initializeOutputStreamEPcPmRNS_12OutputStreamEm
WY:__ZN12_GLOBAL__N_116itanium_demangle8CallExprC2EPKNS0_4NodeENS0_9NodeArrayE
XY:__Z11GFX_ShowMsgPKcz
YY:__ZNSt3__214basic_ifstreamIcNS_11char_traitsIcEEE4openEPKcj
ZY:__ZN6MyFifo6getTopEv
_Y:__ZN12_GLOBAL__N_116itanium_demangle22AbstractManglingParserINS0_14ManglingParserINS_16DefaultAllocatorEEES3_E4makeINS0_13EnclosingExprEJRA10_KcRPNS0_4NodeERA2_S8_EEESC_DpOT0_
$Y:__ZNSt3__24listIP5CBindNS_9allocatorIS2_EEE10push_frontERKS2_
aZ:__ZN16VGA_LIN4_Handler6writewEjj
bZ:__ZN12Section_prop8Get_propEi
cZ:_copysign
dZ:__ZN25VGA_UnchainedRead_Handler5readwEj
eZ:__ZN18DOS_KeyboardLayoutD2Ev
fZ:__ZN12_GLOBAL__N_116itanium_demangle22AbstractManglingParserINS0_14ManglingParserINS_16DefaultAllocatorEEES3_E4makeINS0_27ExpandedSpecialSubstitutionEJRNS0_14SpecialSubKindEEEEPNS0_4NodeEDpOT0_
gZ:__ZN12_GLOBAL__N_116itanium_demangle22AbstractManglingParserINS0_14ManglingParserINS_16DefaultAllocatorEEES3_E4makeINS0_14ConversionExprEJRPNS0_4NodeERNS0_9NodeArrayEEEES9_DpOT0_
hZ:__ZN12_GLOBAL__N_116itanium_demangle22AbstractManglingParserINS0_14ManglingParserINS_16DefaultAllocatorEEES3_E4makeINS0_13ObjCProtoNameEJRPNS0_4NodeERNS_10StringViewEEEES9_DpOT0_
iZ:__ZN12_GLOBAL__N_116itanium_demangle22AbstractManglingParserINS0_14ManglingParserINS_16DefaultAllocatorEEES3_E4makeINS0_13EnclosingExprEJRA9_KcRPNS0_4NodeERA2_S8_EEESC_DpOT0_
jZ:__ZN12_GLOBAL__N_116itanium_demangle22AbstractManglingParserINS0_14ManglingParserINS_16DefaultAllocatorEEES3_E4makeINS0_10MemberExprEJRPNS0_4NodeERA3_KcSA_EEES9_DpOT0_
kZ:_strcmp
lZ:__ZNSt3__24listIPFbvENS_9allocatorIS2_EEE10push_frontERKS2_
mZ:__ZNSt3__213basic_ostreamIcNS_11char_traitsIcEEE6sentryC2ERS3_
nZ:__ZN9PIC_8259AD2Ev
oZ:__ZN12MixerChannel6EnableEb
pZ:__ZL12INT8_Handlerv
qZ:_size_for_capacity
rZ:__ZN7CSerial9Write_LCREh
sZ:__ZN7CMscdexD2Ev
tZ:__ZN15DOS_Drive_Cache10SetBaseDirEPKc
uZ:__ZN12_GLOBAL__N_116itanium_demangle22AbstractManglingParserINS0_14ManglingParserINS_16DefaultAllocatorEEES3_E4makeINS0_14ConversionExprEJRPNS0_4NodeENS0_9NodeArrayEEEES9_DpOT0_
vZ:__Z14DOS_FileExistsPKc
wZ:__ZN7CMscdex15LoadUnloadMediaEhb
xZ:__ZN15DOS_Drive_Cache9SetResultEPNS_9CFileInfoERPcj
yZ:__Z22DOS_FCBSetRandomRecordtt
zZ:_hash_string
AZ:__ZN9DOS_Shell10ShowPromptEv
BZ:__ZN9BatchFileD2Ev
CZ:__ZN12_GLOBAL__N_116itanium_demangle22AbstractManglingParserINS0_14ManglingParserINS_16DefaultAllocatorEEES3_E4makeINS0_9ArrayTypeEJRPNS0_4NodeERNS0_12NodeOrStringEEEES9_DpOT0_
DZ:__ZL9read_p3c2jj
EZ:__ZN6Config10GetSectionEi
FZ:__ZN11CJAxisEventC2EPKcjjbPS_
GZ:__ZN13Virtual_Drive11GetFileAttrEPcPt
HZ:__ZN12_GLOBAL__N_116itanium_demangle22AbstractManglingParserINS0_14ManglingParserINS_16DefaultAllocatorEEES3_E4makeINS0_12InitListExprEJRPNS0_4NodeENS0_9NodeArrayEEEES9_DpOT0_
IZ:__ZN12_GLOBAL__N_116itanium_demangle22AbstractManglingParserINS0_14ManglingParserINS_16DefaultAllocatorEEES3_E4makeINS0_10VectorTypeEJRPNS0_4NodeERNS_10StringViewEEEES9_DpOT0_
JZ:__ZN12_GLOBAL__N_116itanium_demangle22AbstractManglingParserINS0_14ManglingParserINS_16DefaultAllocatorEEES3_E4makeINS0_10PrefixExprEJRNS_10StringViewERPNS0_4NodeEEEESB_DpOT0_
KZ:__ZN12_GLOBAL__N_116itanium_demangle22AbstractManglingParserINS0_14ManglingParserINS_16DefaultAllocatorEEES3_E4makeINS0_10AbiTagAttrEJRPNS0_4NodeERNS_10StringViewEEEES9_DpOT0_
LZ:__ZN12_GLOBAL__N_116DefaultAllocator8makeNodeINS_16itanium_demangle8QualTypeEJRPNS2_4NodeERNS2_10QualifiersEEEEPT_DpOT0_
MZ:__ZN12MixerChannel3MixEj
NZ:__Z19IO_USEC_write_delayv
OZ:__ZNSt3__218__libcpp_refstringC2EPKc
PZ:__ZNKSt3__25ctypeIcE10do_toupperEPcPKc
QZ:__ZNKSt3__25ctypeIcE10do_tolowerEPcPKc
RZ:__ZN5Adlib4Chip4ReadEv
SZ:__ZN4CMOSD2Ev
TZ:__ZN22VGA_ChainedEGA_Handler6writewEjj
UZ:__ZN19VGA_Changes_Handler6writedEjj
VZ:__ZN12_GLOBAL__N_116DefaultAllocator8makeNodeINS_16itanium_demangle21CtorVtableSpecialNameEJRPNS2_4NodeES6_EEEPT_DpOT0_
WZ:__Z16VGA_DAC_SetEntryjhhh
XZ:__ZNSt3__28numpunctIwEC2Em
YZ:__ZN12_GLOBAL__N_116itanium_demangle22AbstractManglingParserINS0_14ManglingParserINS_16DefaultAllocatorEEES3_E4makeINS0_14IntegerLiteralEJRNS_10StringViewES9_EEEPNS0_4NodeEDpOT0_
ZZ:__ZN12_GLOBAL__N_116itanium_demangle22AbstractManglingParserINS0_14ManglingParserINS_16DefaultAllocatorEEES3_E4makeINS0_12CtorDtorNameEJRPNS0_4NodeEbRiEEES9_DpOT0_
_Z:__ZN12_GLOBAL__N_116itanium_demangle22AbstractManglingParserINS0_14ManglingParserINS_16DefaultAllocatorEEES3_E4makeINS0_10VectorTypeEJRPNS0_4NodeENS_10StringViewEEEES9_DpOT0_
$Z:__Z12CPU_READ_CRXjRj
a_:__ZNKSt3__25ctypeIwE9do_narrowEPKwS3_cPc
b_:__ZN4OPL316operator_advanceEPNS_15operator_structEi
c_:__ZN4OPL216operator_advanceEPNS_15operator_structEi
d_:__ZN5Adlib7Capture6AddBufEhh
e_:__ZN12_GLOBAL__N_116itanium_demangle22AbstractManglingParserINS0_14ManglingParserINS_16DefaultAllocatorEEES3_E4makeINS0_8QualTypeEJRPNS0_4NodeERNS0_10QualifiersEEEES9_DpOT0_
f_:__ZN12_GLOBAL__N_116itanium_demangle22AbstractManglingParserINS0_14ManglingParserINS_16DefaultAllocatorEEES3_E4makeINS0_10BracedExprEJRPNS0_4NodeESA_bEEES9_DpOT0_
g_:__ZN12_GLOBAL__N_116DefaultAllocator8makeNodeINS_16itanium_demangle20NameWithTemplateArgsEJRPNS2_4NodeES6_EEEPT_DpOT0_
h_:__Z12CPU_READ_TRXjRj
i_:__zip_dirent_clone
j_:__ZNSt3__28numpunctIcEC2Em
k_:__ZNKSt3__25ctypeIwE10do_toupperEPwPKw
l_:__ZNKSt3__25ctypeIwE10do_tolowerEPwPKw
m_:__ZN12_GLOBAL__N_116DefaultAllocator8makeNodeINS_16itanium_demangle19PointerToMemberTypeEJRPNS2_4NodeES6_EEEPT_DpOT0_
n_:__ZL11InitLUTs_32v
o_:__ZL11InitLUTs_16v
p_:__ZNSt3__219__libcpp_snprintf_lEPcmP15__locale_structPKcz
q_:__ZN20CDROM_Interface_Fake11GetAudioSubERhS0_S0_R4SMSFS2_
r_:__ZN12_GLOBAL__N_116itanium_demangle22AbstractManglingParserINS0_14ManglingParserINS_16DefaultAllocatorEEES3_E4makeINS0_9DotSuffixEJRPNS0_4NodeENS_10StringViewEEEES9_DpOT0_
s_:__ZN12_GLOBAL__N_116itanium_demangle22AbstractManglingParserINS0_14ManglingParserINS_16DefaultAllocatorEEES3_E4makeINS0_21CtorVtableSpecialNameEJRPNS0_4NodeESA_EEES9_DpOT0_
t_:__ZN12_GLOBAL__N_116itanium_demangle22AbstractManglingParserINS0_14ManglingParserINS_16DefaultAllocatorEEES3_E4makeINS0_13EnclosingExprEJRA12_KcRPNS0_4NodeERA2_S8_EEESC_DpOT0_
u_:__ZN12_GLOBAL__N_116itanium_demangle22AbstractManglingParserINS0_14ManglingParserINS_16DefaultAllocatorEEES3_E4makeINS0_13EnclosingExprEJRA11_KcRPNS0_4NodeERA2_S8_EEESC_DpOT0_
v_:__ZN12_GLOBAL__N_116itanium_demangle22AbstractManglingParserINS0_14ManglingParserINS_16DefaultAllocatorEEES3_E4makeINS0_10DeleteExprEJRPNS0_4NodeERbbEEES9_DpOT0_
w_:__ZN11SERIALPORTSD2Ev
x_:__ZN12_GLOBAL__N_116DefaultAllocator8makeNodeINS_16itanium_demangle18ArraySubscriptExprEJRPNS2_4NodeES6_EEEPT_DpOT0_
y_:__Z13PAGING_Enableb
z_:__Z12DOS_FCBClosett
A_:__ZNK12Section_line12GetPropValueERKNSt3__212basic_stringIcNS0_11char_traitsIcEENS0_9allocatorIcEEEE
B_:__ZN12_GLOBAL__N_116itanium_demangle22AbstractManglingParserINS0_14ManglingParserINS_16DefaultAllocatorEEES3_E4makeINS0_20NameWithTemplateArgsEJRPNS0_4NodeESA_EEES9_DpOT0_
C_:__ZN12_GLOBAL__N_116itanium_demangle22AbstractManglingParserINS0_14ManglingParserINS_16DefaultAllocatorEEES3_E4makeINS0_10MemberExprEJRPNS0_4NodeERA2_KcSA_EEES9_DpOT0_
D_:__ZN10localDrive16GetSystemFilePtrEPKcS1_
E_:__ZN5ValueaSE3Hex
F_:__ZN5ValueC2EPKc
G_:__ZN12_GLOBAL__N_116itanium_demangle22AbstractManglingParserINS0_14ManglingParserINS_16DefaultAllocatorEEES3_E4makeINS0_8CallExprEJRPNS0_4NodeENS0_9NodeArrayEEEES9_DpOT0_
H_:__ZN12_GLOBAL__N_116itanium_demangle22AbstractManglingParserINS0_14ManglingParserINS_16DefaultAllocatorEEES3_E4makeINS0_19PointerToMemberTypeEJRPNS0_4NodeESA_EEES9_DpOT0_
I_:__Z19DOS_SetDefaultDriveh
J_:__ZN22VGA_ChainedEGA_Handler5readwEj
K_:__ZN12_GLOBAL__N_116itanium_demangle8QualTypeC2EPKNS0_4NodeENS0_10QualifiersE
L_:__ZN12_GLOBAL__N_116itanium_demangle22AbstractManglingParserINS0_14ManglingParserINS_16DefaultAllocatorEEES3_E4makeINS0_8CastExprEJRA17_KcRPNS0_4NodeESD_EEESC_DpOT0_
M_:__ZN12_GLOBAL__N_116itanium_demangle22AbstractManglingParserINS0_14ManglingParserINS_16DefaultAllocatorEEES3_E4makeINS0_8CastExprEJRA13_KcRPNS0_4NodeESD_EEESC_DpOT0_
N_:__ZN12_GLOBAL__N_116itanium_demangle22AbstractManglingParserINS0_14ManglingParserINS_16DefaultAllocatorEEES3_E4makeINS0_8CastExprEJRA12_KcRPNS0_4NodeESD_EEESC_DpOT0_
O_:__ZN12_GLOBAL__N_116itanium_demangle22AbstractManglingParserINS0_14ManglingParserINS_16DefaultAllocatorEEES3_E4makeINS0_8CastExprEJRA11_KcRPNS0_4NodeESD_EEESC_DpOT0_
P_:__ZN12_GLOBAL__N_116itanium_demangle22AbstractManglingParserINS0_14ManglingParserINS_16DefaultAllocatorEEES3_E4makeINS0_19SpecialSubstitutionEJNS0_14SpecialSubKindEEEEPNS0_4NodeEDpOT0_
Q_:__ZN12_GLOBAL__N_116itanium_demangle22AbstractManglingParserINS0_14ManglingParserINS_16DefaultAllocatorEEES3_E4makeINS0_18ArraySubscriptExprEJRPNS0_4NodeESA_EEES9_DpOT0_
R_:__ZN12_GLOBAL__N_116itanium_demangle22AbstractManglingParserINS0_14ManglingParserINS_16DefaultAllocatorEEES3_E4makeINS0_12InitListExprEJDnNS0_9NodeArrayEEEEPNS0_4NodeEDpOT0_
S_:__ZN12_GLOBAL__N_116itanium_demangle21StructuredBindingNameC2ENS0_9NodeArrayE
T_:__Z26VGA_ActivateHardwareCursorv
U_:__Z20VGA_DAC_CombineColorhh
V_:__ZN20Prop_multival_remainC2ERKNSt3__212basic_stringIcNS0_11char_traitsIcEENS0_9allocatorIcEEEEN8Property10Changeable5ValueES8_
W_:__ZN12_GLOBAL__N_116itanium_demangle20TemplateArgumentPackC2ENS0_9NodeArrayE
X_:__ZN12_GLOBAL__N_116itanium_demangle20DynamicExceptionSpecC2ENS0_9NodeArrayE
Y_:__ZN12_GLOBAL__N_116itanium_demangle16FloatLiteralImplIfEC2ENS_10StringViewE
Z_:__ZN12_GLOBAL__N_116itanium_demangle16FloatLiteralImplIeEC2ENS_10StringViewE
__:__ZN12_GLOBAL__N_116itanium_demangle16FloatLiteralImplIdEC2ENS_10StringViewE
$_:__Z18IO_USEC_read_delayv
a$:_arg_n_272
b$:__ZNSt3__24listIP8PropertyNS_9allocatorIS2_EEE9push_backERKS2_
c$:__ZN7CMscdex14ReadSectorsMSFEhbjtj
d$:__ZN5DBOPL8Operator7Write80EPKNS_4ChipEh
e$:__ZN19VGA_Changes_Handler5readdEj
f$:__ZN14PIC_Controller7set_imrEh
g$:__ZN12_GLOBAL__N_116itanium_demangle22AbstractManglingParserINS0_14ManglingParserINS_16DefaultAllocatorEEES3_E4makeINS0_20PostfixQualifiedTypeEJRPNS0_4NodeERA11_KcEEES9_DpOT0_
h$:__ZN12_GLOBAL__N_116itanium_demangle15PixelVectorTypeC2ENS0_12NodeOrStringE
i$:__ZL11Mouse_Resetv
j$:__Z16SortByDirNameRevRKPN15DOS_Drive_Cache9CFileInfoES3_
k$:__ZNSt3__24listIP7SectionNS_9allocatorIS2_EEE9push_backERKS2_
l$:__ZN16VGA_LIN4_Handler5readwEj
m$:__ZN13CKeyBindGroup16CreateConfigBindERPc
n$:__ZN12_GLOBAL__N_116DefaultAllocator8makeNodeINS_16itanium_demangle27ExpandedSpecialSubstitutionEJRNS2_14SpecialSubKindEEEEPT_DpOT0_
o$:__ZL11FPU_FST_I64j
p$:__ZN12_GLOBAL__N_116itanium_demangle22AbstractManglingParserINS0_14ManglingParserINS_16DefaultAllocatorEEES3_E9consumeIfEc
q$:__ZN12_GLOBAL__N_116itanium_demangle22AbstractManglingParserINS0_14ManglingParserINS_16DefaultAllocatorEEES3_E4makeINS0_20PostfixQualifiedTypeEJRPNS0_4NodeERA9_KcEEES9_DpOT0_
r$:_memmove
s$:__ZNSt3__24listIP5CBindNS_9allocatorIS2_EEE9push_backERKS2_
t$:__ZNSt3__214basic_ifstreamIcNS_11char_traitsIcEEED2Ev
u$:__ZN8fatDrive12getEntryNameEPcS0_
v$:__ZN12_GLOBAL__N_116itanium_demangle15UnnamedTypeNameC2ENS_10StringViewE
w$:__ZN12_GLOBAL__N_116DefaultAllocator8makeNodeINS_16itanium_demangle13QualifiedNameEJRPNS2_4NodeES6_EEEPT_DpOT0_
x$:__ZN12DriveManager15InitializeDriveEi
y$:__ZL13INT10_InitVGAv
z$:__Z13SortByDirNameRKPN15DOS_Drive_Cache9CFileInfoES3_
A$:__Z13CPU_WRITE_TRXjj
B$:__ZN22VGA_LFBChanges_Handler6writedEjj
C$:__ZN12_GLOBAL__N_116itanium_demangle22AbstractManglingParserINS0_14ManglingParserINS_16DefaultAllocatorEEES3_E4makeINS0_11SpecialNameEJRA34_KcRPNS0_4NodeEEEESC_DpOT0_
D$:__ZN12_GLOBAL__N_116itanium_demangle13ReferenceTypeC2EPKNS0_4NodeENS0_13ReferenceKindE
E$:__ZL17DISNEY_PlayStereojPhS_
F$:__ZN12_GLOBAL__N_116itanium_demangle13FunctionParamC2ENS_10StringViewE
G$:__Z28INT10_SetupRomMemoryChecksumv
H$:__Z19RestoreVgaRegistersv
I$:_rand
J$:__ZN5Adlib7Capture8ClearBufEv
K$:__ZN15keyboard_layoutC2Ev
L$:__ZN12_GLOBAL__N_116itanium_demangle22AbstractManglingParserINS0_14ManglingParserINS_16DefaultAllocatorEEES3_E4makeINS0_21StructuredBindingNameEJNS0_9NodeArrayEEEEPNS0_4NodeEDpOT0_
M$:__ZN12_GLOBAL__N_116itanium_demangle22AbstractManglingParserINS0_14ManglingParserINS_16DefaultAllocatorEEES3_E4makeINS0_20TemplateArgumentPackEJRNS0_9NodeArrayEEEEPNS0_4NodeEDpOT0_
N$:__ZN12_GLOBAL__N_116itanium_demangle22AbstractManglingParserINS0_14ManglingParserINS_16DefaultAllocatorEEES3_E4makeINS0_16FloatLiteralImplIfEEJRNS_10StringViewEEEEPNS0_4NodeEDpOT0_
O$:__ZN12_GLOBAL__N_116itanium_demangle22AbstractManglingParserINS0_14ManglingParserINS_16DefaultAllocatorEEES3_E4makeINS0_16FloatLiteralImplIeEEJRNS_10StringViewEEEEPNS0_4NodeEDpOT0_
P$:__ZN12_GLOBAL__N_116itanium_demangle22AbstractManglingParserINS0_14ManglingParserINS_16DefaultAllocatorEEES3_E4makeINS0_16FloatLiteralImplIdEEJRNS_10StringViewEEEEPNS0_4NodeEDpOT0_
Q$:__ZN12_GLOBAL__N_116itanium_demangle22AbstractManglingParserINS0_14ManglingParserINS_16DefaultAllocatorEEES3_E4makeINS0_11PostfixExprEJRPNS0_4NodeERA3_KcEEES9_DpOT0_
R$:__Z27RestoreCursorBackgroundTextv
S$:__Z13RENDER_SetPalhhhh
T$:__ZN12_GLOBAL__N_116itanium_demangle13NodeArrayNodeC2ENS0_9NodeArrayE
U$:__ZN12_GLOBAL__N_116itanium_demangle12TemplateArgsC2ENS0_9NodeArrayE
V$:__ZN7CMscdex12IsValidDriveEt
W$:__ZN12_GLOBAL__N_116itanium_demangle22AbstractManglingParserINS0_14ManglingParserINS_16DefaultAllocatorEEES3_E4makeINS0_20DynamicExceptionSpecEJNS0_9NodeArrayEEEEPNS0_4NodeEDpOT0_
X$:__ZN12_GLOBAL__N_116itanium_demangle22AbstractManglingParserINS0_14ManglingParserINS_16DefaultAllocatorEEES3_E4makeINS0_13QualifiedNameEJRPNS0_4NodeESA_EEES9_DpOT0_
Y$:__ZN12_GLOBAL__N_116itanium_demangle12EnableIfAttrC2ENS0_9NodeArrayE
Z$:__Z16MIXER_DelChannelP12MixerChannel
_$:__ZNSt3__213basic_filebufIcNS_11char_traitsIcEEED2Ev
$$:_allocate
a0:__ZN7CMscdex13GetDriverInfoEj
b0:__ZN12_GLOBAL__N_116DefaultAllocator8makeNodeINS_16itanium_demangle10NestedNameEJRPNS2_4NodeES6_EEEPT_DpOT0_
c0:_zip_source_tell
d0:__ZL10PIT0_Eventj
e0:__ZN4OPL315enable_operatorEjPNS_15operator_structEj
f0:__ZN4OPL215enable_operatorEjPNS_15operator_structEj
g0:__ZN12_GLOBAL__N_116itanium_demangle8NameTypeC2ENS_10StringViewE
h0:_zip_source_begin_write_cloning
i0:__ZN13CKeyBindGroup13CreateKeyBindEi
j0:__ZL11DSP_DoReseth
k0:__Z15doHeapOperationv
l0:__ZNSt3__219__libcpp_asprintf_lEPPcP15__locale_structPKcz
m0:__ZNK10__cxxabiv117__class_type_info27has_unambiguous_public_baseEPNS_19__dynamic_cast_infoEPvi
n0:__ZN7Program11GetEnvCountEv
o0:__ZN12_GLOBAL__N_116itanium_demangle22AbstractManglingParserINS0_14ManglingParserINS_16DefaultAllocatorEEES3_E4makeINS0_15UnnamedTypeNameEJRNS_10StringViewEEEEPNS0_4NodeEDpOT0_
p0:__ZN12_GLOBAL__N_116itanium_demangle22AbstractManglingParserINS0_14ManglingParserINS_16DefaultAllocatorEEES3_E4makeINS0_15PixelVectorTypeEJRNS_10StringViewEEEEPNS0_4NodeEDpOT0_
q0:__ZN12_GLOBAL__N_116itanium_demangle22AbstractManglingParserINS0_14ManglingParserINS_16DefaultAllocatorEEES3_E4makeINS0_10VectorTypeEJRPNS0_4NodeESA_EEES9_DpOT0_
r0:__ZN12_GLOBAL__N_116itanium_demangle22AbstractManglingParserINS0_14ManglingParserINS_16DefaultAllocatorEEES3_E4makeINS0_10NestedNameEJRPNS0_4NodeESA_EEES9_DpOT0_
s0:__ZN12_GLOBAL__N_116DefaultAllocator8makeNodeINS_16itanium_demangle9LocalNameEJRPNS2_4NodeES6_EEEPT_DpOT0_
t0:__Z14CALLBACK_SetupjPFjvEjjPKc
u0:_sbrk
v0:__ZNSt3__214__split_bufferIPNS_6locale5facetERNS_15__sso_allocatorIS3_Lm28EEEE18__construct_at_endEm
w0:__ZN10device_CONC2Ev
x0:__zip_buffer_get
y0:__ZN9localFile4SeekEPjj
z0:__ZL11FPU_FRNDINTv
A0:__Z13GetDMAChannelh
B0:_remove
C0:_opendir
D0:__ZZN6Events20registerPushSDLEventEvEN3__38__invokeERKNSt3__212basic_stringIcNS1_11char_traitsIcEENS1_9allocatorIcEEEEPKcPFvS9_RK10jsonstreamE
E0:__ZNKSt3__27collateIwE12do_transformEPKwS3_
F0:__ZNKSt3__27collateIcE12do_transformEPKcS3_
G0:__ZN8isoDrive10FileExistsEPKc
H0:__ZN7Section18AddDestroyFunctionEPFvPS_Eb
I0:__ZN7DOS_FCB7GetNameEPc
J0:__ZN22VGA_LFBChanges_Handler5readdEj
K0:__ZN12_GLOBAL__N_116itanium_demangle15ConditionalExprC2EPKNS0_4NodeES4_S4_
L0:__ZN12_GLOBAL__N_116itanium_demangle15BracedRangeExprC2EPKNS0_4NodeES4_S4_
M0:__ZN10device_NUL4ReadEPhPt
N0:__ZL13multiplex_xmsv
O0:__ZNSt3__218__libcpp_refstringD2Ev
P0:__ZNSt3__217__libcpp_sscanf_lEPKcP15__locale_structS1_z
Q0:__ZN4OPL316operator_sustainEPNS_15operator_structE
R0:__ZN4OPL216operator_sustainEPNS_15operator_structE
S0:__ZN12_GLOBAL__N_116itanium_demangle22AbstractManglingParserINS0_14ManglingParserINS_16DefaultAllocatorEEES3_E4makeINS0_9LocalNameEJRPNS0_4NodeESA_EEES9_DpOT0_
T0:__ZN12_GLOBAL__N_116itanium_demangle22AbstractManglingParserINS0_14ManglingParserINS_16DefaultAllocatorEEES3_E4makeINS0_22ParameterPackExpansionEJRPNS0_4NodeEEEES9_DpOT0_
U0:__ZN12_GLOBAL__N_116itanium_demangle22AbstractManglingParserINS0_14ManglingParserINS_16DefaultAllocatorEEES3_E4makeINS0_22ConversionOperatorTypeEJRPNS0_4NodeEEEES9_DpOT0_
V0:__ZN12_GLOBAL__N_116itanium_demangle22AbstractManglingParserINS0_14ManglingParserINS_16DefaultAllocatorEEES3_E4makeINS0_13FunctionParamEJRNS_10StringViewEEEEPNS0_4NodeEDpOT0_
W0:__ZN12_GLOBAL__N_116itanium_demangle22AbstractManglingParserINS0_14ManglingParserINS_16DefaultAllocatorEEES3_E4makeINS0_11SpecialNameEJRA41_KcRPNS0_4NodeEEEESC_DpOT0_
X0:__ZN12_GLOBAL__N_116itanium_demangle22AbstractManglingParserINS0_14ManglingParserINS_16DefaultAllocatorEEES3_E4makeINS0_11SpecialNameEJRA27_KcRPNS0_4NodeEEEESC_DpOT0_
Y0:__ZN12_GLOBAL__N_116itanium_demangle22AbstractManglingParserINS0_14ManglingParserINS_16DefaultAllocatorEEES3_E4makeINS0_11SpecialNameEJRA25_KcRPNS0_4NodeEEEESC_DpOT0_
Z0:__ZN12_GLOBAL__N_116itanium_demangle22AbstractManglingParserINS0_14ManglingParserINS_16DefaultAllocatorEEES3_E4makeINS0_11SpecialNameEJRA22_KcRPNS0_4NodeEEEESC_DpOT0_
_0:__ZN12_GLOBAL__N_116itanium_demangle22AbstractManglingParserINS0_14ManglingParserINS_16DefaultAllocatorEEES3_E4makeINS0_11SpecialNameEJRA20_KcRPNS0_4NodeEEEESC_DpOT0_
$0:__ZN12_GLOBAL__N_116itanium_demangle22AbstractManglingParserINS0_14ManglingParserINS_16DefaultAllocatorEEES3_E4makeINS0_11SpecialNameEJRA19_KcRPNS0_4NodeEEEESC_DpOT0_
a1:__ZN12_GLOBAL__N_116itanium_demangle22AbstractManglingParserINS0_14ManglingParserINS_16DefaultAllocatorEEES3_E4makeINS0_11SpecialNameEJRA18_KcRPNS0_4NodeEEEESC_DpOT0_
b1:__ZN12_GLOBAL__N_116itanium_demangle22AbstractManglingParserINS0_14ManglingParserINS_16DefaultAllocatorEEES3_E4makeINS0_11SpecialNameEJRA14_KcRPNS0_4NodeEEEESC_DpOT0_
c1:__ZN12_GLOBAL__N_116itanium_demangle22AbstractManglingParserINS0_14ManglingParserINS_16DefaultAllocatorEEES3_E4makeINS0_11SpecialNameEJRA12_KcRPNS0_4NodeEEEESC_DpOT0_
d1:__ZN12_GLOBAL__N_116DefaultAllocator8makeNodeINS_16itanium_demangle19SpecialSubstitutionEJNS2_14SpecialSubKindEEEEPT_DpOT0_
e1:__ZN12CSerialDummyC2EjP11CommandLine
f1:__Z10CPU_PopSeg8SegNamesb
g1:___cxa_can_catch
h1:__ZN5DBOPL8Operator7Write60EPKNS_4ChipEh
i1:__ZN12_GLOBAL__N_116itanium_demangle22AbstractManglingParserINS0_14ManglingParserINS_16DefaultAllocatorEEES3_E4makeINS0_11SpecialNameEJRA9_KcRPNS0_4NodeEEEESC_DpOT0_
j1:__ZN10CJAxisBindC2EPNSt3__24listIP5CBindNS0_9allocatorIS3_EEEEP10CBindGroupjb
k1:__ZN12_GLOBAL__N_116itanium_demangle12CtorDtorNameC2EPKNS0_4NodeEbi
l1:__ZN12_GLOBAL__N_116itanium_demangle10DeleteExprC2EPNS0_4NodeEbb
m1:__ZN12_GLOBAL__N_116itanium_demangle10BracedExprC2EPKNS0_4NodeES4_b
n1:__ZL12TEXT_CopyRowhhhhj
o1:__ZN8isoDrive7TestDirEPc
p1:__ZN7DOS_FCBC2Ettb
q1:__ZN7CMscdex11ResumeAudioEh
r1:__ZN12_GLOBAL__N_116itanium_demangle22AbstractManglingParserINS0_14ManglingParserINS_16DefaultAllocatorEEES3_E4makeINS0_13ParameterPackEJNS0_9NodeArrayEEEEPNS0_4NodeEDpOT0_
s1:__ZN12_GLOBAL__N_116itanium_demangle22AbstractManglingParserINS0_14ManglingParserINS_16DefaultAllocatorEEES3_E4makeINS0_13NodeArrayNodeEJNS0_9NodeArrayEEEEPNS0_4NodeEDpOT0_
t1:__ZN7Section15AddInitFunctionEPFvPS_Eb
u1:__ZN7DOS_FCB9SetResultEjtth
v1:__ZN7CMscdex17SendDriverRequestEtj
w1:__ZN15DOS_Drive_Cache12RemoveSpacesEPc
x1:__ZN15CStickBindGroup16CreateButtonBindEj
y1:__ZN12_GLOBAL__N_116itanium_demangle12NodeOrStringC2ENS_10StringViewE
z1:__ZL16SN76496_set_gaini
A1:__Z16XMS_UnlockMemoryj
B1:__ZN12_GLOBAL__N_116itanium_demangle22AbstractManglingParserINS0_14ManglingParserINS_16DefaultAllocatorEEES3_E4makeINS0_19SizeofParamPackExprEJRPNS0_4NodeEEEES9_DpOT0_
C1:__ZN12_GLOBAL__N_116itanium_demangle22AbstractManglingParserINS0_14ManglingParserINS_16DefaultAllocatorEEES3_E4makeINS0_19GlobalQualifiedNameEJRPNS0_4NodeEEEES9_DpOT0_
D1:__ZN12_GLOBAL__N_116itanium_demangle22AbstractManglingParserINS0_14ManglingParserINS_16DefaultAllocatorEEES3_E4makeINS0_12TemplateArgsEJNS0_9NodeArrayEEEEPNS0_4NodeEDpOT0_
E1:__ZN12_GLOBAL__N_116itanium_demangle22AbstractManglingParserINS0_14ManglingParserINS_16DefaultAllocatorEEES3_E4makeINS0_12EnableIfAttrEJNS0_9NodeArrayEEEEPNS0_4NodeEDpOT0_
F1:_vsscanf
G1:__ZNSt3__26vectorIPNS_6locale5facetENS_15__sso_allocatorIS3_Lm28EEEE18__construct_at_endEm
H1:__ZN5DBOPL8Operator5KeyOnEh
I1:__ZN12Section_propC2ERKNSt3__212basic_stringIcNS0_11char_traitsIcEENS0_9allocatorIcEEEE
J1:__zip_memmem
K1:__ZN12_GLOBAL__N_116itanium_demangle22AbstractManglingParserINS0_14ManglingParserINS_16DefaultAllocatorEEES3_E4makeINS0_24ForwardTemplateReferenceEJRmEEEPNS0_4NodeEDpOT0_
L1:__ZL18doGFX_CaptureMousev
M1:__ZL16VGA_ProcessSplitv
N1:__Z14DOS_SetupFilesv
O1:__ZN10CBindGroup18DeactivateBindListEPNSt3__24listIP5CBindNS0_9allocatorIS3_EEEEb
P1:__ZZN6Events18registerScreenshotEvEN3__28__invokeERKNSt3__212basic_stringIcNS1_11char_traitsIcEENS1_9allocatorIcEEEEPKcPFvS9_RK10jsonstreamE
Q1:__ZL12DSP_ReadDatav
R1:__Z14CALLBACK_SetupjPFjvEjPKc
S1:__ZN12_GLOBAL__N_116itanium_demangle22AbstractManglingParserINS0_14ManglingParserINS_16DefaultAllocatorEEES3_E4makeINS0_8NameTypeEJRNS_10StringViewEEEEPNS0_4NodeEDpOT0_
T1:__ZN12_GLOBAL__N_116itanium_demangle22AbstractManglingParserINS0_14ManglingParserINS_16DefaultAllocatorEEES3_E4makeINS0_16StdQualifiedNameEJRPNS0_4NodeEEEES9_DpOT0_
U1:__ZN12_GLOBAL__N_116DefaultAllocator8makeNodeINS_16itanium_demangle22ParameterPackExpansionEJRPNS2_4NodeEEEEPT_DpOT0_
V1:__ZN12_GLOBAL__N_116DefaultAllocator8makeNodeINS_16itanium_demangle22ConversionOperatorTypeEJRPNS2_4NodeEEEEPT_DpOT0_
W1:__ZL24RENDER_ClearCacheHandlerPKv
X1:__ZL10FPU_FRSTORj
Y1:__Z14PAGING_MapPagejj
Z1:__ZN7CMscdex12ReplaceDriveEP15CDROM_Interfaceh
_1:__ZN10localDrive14AllocationInfoEPtPhS0_S0_
$1:__ZN5INTRO12DisplayMountEv
a2:__ZN12_GLOBAL__N_116itanium_demangle22AbstractManglingParserINS0_14ManglingParserINS_16DefaultAllocatorEEES3_E4makeINS0_15LiteralOperatorEJRPNS0_4NodeEEEES9_DpOT0_
b2:__Z24INT10_VideoState_GetSizej
c2:_zip_error_to_data
d2:__zip_buffer_new_from_source
e2:__zip_allocate_new
f2:__ZL13DOS_27Handlerv
g2:__zip_buffer_left
h2:__Z12VGA_SetupGFXv
i2:_zip_source_file_create
j2:___unlist_locked_file
k2:__Z8DMA_InitP7Section
l2:_fmt_x
m2:__ZN6MEMORYD2Ev
n2:__ZN12_GLOBAL__N_116DefaultAllocator8makeNodeINS_16itanium_demangle19SizeofParamPackExprEJRPNS2_4NodeEEEEPT_DpOT0_
o2:__Z12VGA_SetupSEQv
p2:_ftruncate
q2:__ZZN6Events12registerExitEvEN3__18__invokeERKNSt3__212basic_stringIcNS1_11char_traitsIcEENS1_9allocatorIcEEEEPKcPFvS9_RK10jsonstreamE
r2:__ZN21InitPageUserROHandler6writedEjj
s2:__ZN12_GLOBAL__N_116DefaultAllocator8makeNodeINS_16itanium_demangle19GlobalQualifiedNameEJRPNS2_4NodeEEEEPT_DpOT0_
t2:__ZL23AddJButtonButton_hiddenjj
u2:_zip_source_write
v2:_getint
w2:__zip_string_equal
x2:__ZNK12_GLOBAL__N_116itanium_demangle20NameWithTemplateArgs9printLeftERNS_12OutputStreamE
y2:__ZN7SectionD2Ev
z2:__ZN3DMAD2Ev
A2:__ZN12_GLOBAL__N_116itanium_demangle22AbstractManglingParserINS0_14ManglingParserINS_16DefaultAllocatorEEES3_E4makeINS0_12NoexceptSpecEJRPNS0_4NodeEEEES9_DpOT0_
B2:__ZL13INT4B_Handlerv
C2:___ftello
D2:__ZL24Mouse_SetMickeyPixelRatess
E2:__Z16RENDER_EndUpdateb
F2:__ZNK12_GLOBAL__N_116itanium_demangle13ParameterPack23initializePackExpansionERNS_12OutputStreamE
G2:__ZN5Adlib6Module8CtrlReadEv
H2:__ZN12_GLOBAL__N_116itanium_demangle22AbstractManglingParserINS0_14ManglingParserINS_16DefaultAllocatorEEES3_E4makeINS0_11PointerTypeEJRPNS0_4NodeEEEES9_DpOT0_
I2:__ZNSt3__215basic_stringbufIcNS_11char_traitsIcEENS_9allocatorIcEEE7seekposENS_4fposI11__mbstate_tEEj
J2:__ZN5Value4copyERKS_
K2:__ZN12_GLOBAL__N_116itanium_demangle19PointerToMemberTypeC2EPKNS0_4NodeES4_
L2:__ZN11GUSChannels13WriteWaveCtrlEh
M2:__ZN11GUSChannels13WriteRampCtrlEh
N2:___memrchr
O2:__ZNK12_GLOBAL__N_116itanium_demangle8QualType9printLeftERNS_12OutputStreamE
P2:__ZNK12_GLOBAL__N_116itanium_demangle21StructuredBindingName9printLeftERNS_12OutputStreamE
Q2:__Z14TS_Get_AddressRjS_S_
R2:__ZN19VGA_Changes_Handler6writewEjj
S2:__ZN12_GLOBAL__N_116DefaultAllocator8makeNodeINS_16itanium_demangle16StdQualifiedNameEJRPNS2_4NodeEEEEPT_DpOT0_
T2:__ZL17GetDosDriveNumberh
U2:__Z15PIC_ActivateIRQj
V2:__Z11MSCDEX_InitP7Section
W2:__ZN12_GLOBAL__N_116DefaultAllocator8makeNodeINS_16itanium_demangle15LiteralOperatorEJRPNS2_4NodeEEEEPT_DpOT0_
X2:__ZN10DmaChannel17Register_CallbackEPFvPS_8DMAEventE
Y2:__ZL18change_action_textPKch
Z2:__Z15XGA_DrawWaitSubjj
_2:__ZN5Adlib5Timer5StartERKdi
$2:__ZN13Virtual_DriveC2Ev
a3:__ZL13CTMIXER_Resetv
b3:__ZN12_GLOBAL__N_116itanium_demangle22AbstractManglingParserINS0_14ManglingParserINS_16DefaultAllocatorEEES3_E4makeINS0_9ThrowExprEJRPNS0_4NodeEEEES9_DpOT0_
c3:__ZL9FPU_FINITv
d3:__ZN12_GLOBAL__N_120BumpPointerAllocator5resetEv
e3:__ZN12_GLOBAL__N_116DefaultAllocator8makeNodeINS_16itanium_demangle24ForwardTemplateReferenceEJRmEEEPT_DpOT0_
f3:__Z14VFILE_RegisterPKcPhj
g3:__Z14SB_Get_AddressRjS_S_
h3:__zip_hash_reserve_capacity
i3:__ZNSt3__215basic_streambufIcNS_11char_traitsIcEEE7seekoffExNS_8ios_base7seekdirEj
j3:__ZN4OPL315change_waveformEjPNS_15operator_structE
k3:__ZN12_GLOBAL__N_116itanium_demangle22AbstractManglingParserINS0_14ManglingParserINS_16DefaultAllocatorEEES3_E4makeINS0_8DtorNameEJRPNS0_4NodeEEEES9_DpOT0_
l3:__tr_init
m3:__ZN15DOS_Drive_CacheD2Ev
n3:__ZN12CSerialDummy16handleUpperEventEt
o3:__ZL10RawMidiAddh
p3:__Z10mem_writebjh
q3:__ZN8fatDrive17getFirstFreeClustEv
r3:__ZN12_GLOBAL__N_116itanium_demangle22AbstractManglingParserINS0_14ManglingParserINS_16DefaultAllocatorEEES3_E4makeINS0_8NameTypeEJRA18_KcEEEPNS0_4NodeEDpOT0_
s3:__ZN12_GLOBAL__N_116itanium_demangle22AbstractManglingParserINS0_14ManglingParserINS_16DefaultAllocatorEEES3_E4makeINS0_8NameTypeEJRA15_KcEEEPNS0_4NodeEDpOT0_
t3:__ZN12_GLOBAL__N_116itanium_demangle22AbstractManglingParserINS0_14ManglingParserINS_16DefaultAllocatorEEES3_E4makeINS0_8NameTypeEJRA14_KcEEEPNS0_4NodeEDpOT0_
u3:__ZN12_GLOBAL__N_116itanium_demangle22AbstractManglingParserINS0_14ManglingParserINS_16DefaultAllocatorEEES3_E4makeINS0_8NameTypeEJRA13_KcEEEPNS0_4NodeEDpOT0_
v3:__ZN12_GLOBAL__N_116itanium_demangle22AbstractManglingParserINS0_14ManglingParserINS_16DefaultAllocatorEEES3_E4makeINS0_8NameTypeEJRA12_KcEEEPNS0_4NodeEDpOT0_
w3:__ZN12_GLOBAL__N_116itanium_demangle22AbstractManglingParserINS0_14ManglingParserINS_16DefaultAllocatorEEES3_E4makeINS0_8NameTypeEJRA11_KcEEEPNS0_4NodeEDpOT0_
x3:__ZN12_GLOBAL__N_116itanium_demangle22AbstractManglingParserINS0_14ManglingParserINS_16DefaultAllocatorEEES3_E4makeINS0_8NameTypeEJRA10_KcEEEPNS0_4NodeEDpOT0_
y3:__ZN12_GLOBAL__N_116DefaultAllocator8makeNodeINS_16itanium_demangle12NoexceptSpecEJRPNS2_4NodeEEEEPT_DpOT0_
z3:__ZL8CGAModelb
A3:__ZN10device_NUL5WriteEPhPt
B3:__ZL12GetResult_32jjjj
C3:__ZN12_GLOBAL__N_120BumpPointerAllocator15allocateMassiveEm
D3:__ZN12_GLOBAL__N_116itanium_demangle22AbstractManglingParserINS0_14ManglingParserINS_16DefaultAllocatorEEES3_E4makeINS0_8NameTypeEJRA9_KcEEEPNS0_4NodeEDpOT0_
E3:__ZN12_GLOBAL__N_116itanium_demangle22AbstractManglingParserINS0_14ManglingParserINS_16DefaultAllocatorEEES3_E4makeINS0_8NameTypeEJRA6_KcEEEPNS0_4NodeEDpOT0_
F3:__ZN12_GLOBAL__N_116itanium_demangle22AbstractManglingParserINS0_14ManglingParserINS_16DefaultAllocatorEEES3_E4makeINS0_8NameTypeEJRA5_KcEEEPNS0_4NodeEDpOT0_
G3:__ZN12_GLOBAL__N_116itanium_demangle22AbstractManglingParserINS0_14ManglingParserINS_16DefaultAllocatorEEES3_E4makeINS0_8NameTypeEJRA4_KcEEEPNS0_4NodeEDpOT0_
H3:__ZN12_GLOBAL__N_116DefaultAllocator8makeNodeINS_16itanium_demangle11PointerTypeEJRPNS2_4NodeEEEEPT_DpOT0_
I3:__ZL17DecreaseFrameSkipb
J3:__ZN7CSerial16ByteTransmittingEv
K3:__ZN6PAGINGC2EP7Section
L3:__ZN12_GLOBAL__N_116itanium_demangle14ManglingParserINS_16DefaultAllocatorEECI2NS0_22AbstractManglingParserIS3_S2_EEEPKcS6_
M3:__ZN10device_NUL4SeekEPjj
N3:__ZN9DOS_ShellD2Ev
O3:__ZN15DOS_Drive_Cache5ClearEv
P3:__Z9mem_readbj
Q3:__ZSt9terminatev
R3:__ZNSt3__213__vector_baseIN21CDROM_Interface_Image5TrackENS_9allocatorIS2_EEED2Ev
S3:__ZN7ProgramD2Ev
T3:__ZN4OPL316disable_operatorEPNS_15operator_structEj
U3:__ZN4OPL216disable_operatorEPNS_15operator_structEj
V3:__ZNSt3__215basic_streambufIcNS_11char_traitsIcEEEC2Ev
W3:__ZNSt3__213__vector_baseIPN15DOS_Drive_Cache9CFileInfoENS_9allocatorIS3_EEED2Ev
X3:__ZL17IncreaseFrameSkipb
Y3:__Z11ConvDecWordPc
Z3:__ZN6CEvent7AddBindEP5CBind
_3:__ZN5DBOPLL14EnvelopeSelectEhRhS0_
$3:__ZN13Prop_multivalD2Ev
a4:__ZL17DSP_RaiseIRQEventj
b4:__ZL14DSP_SetSpeakerb
c4:__Z23Mouse_ChangePS2Callbacktt
d4:__Z14PAGING_InitTLBv
e4:___fseeko
f4:__ZN6DISNEYD2Ev
g4:__ZN24VGA_UnchainedEGA_Handler6writebEjj
h4:__ZN15DOS_Drive_Cache10EmptyCacheEv
i4:__ZN12_GLOBAL__N_116DefaultAllocator8makeNodeINS_16itanium_demangle9ThrowExprEJRPNS2_4NodeEEEEPT_DpOT0_
j4:__Z18PAGING_UnlinkPagesjj
k4:__Z11SERIAL_InitP7Section
l4:__ZNK12_GLOBAL__N_110StringView9dropFrontEm
m4:__ZL14DISNEY_disablej
n4:_zip_source_begin_write
o4:__ZN9imageDisk11Read_SectorEjjjPv
p4:__ZN7CSerial8Read_MCREv
q4:__ZN5DBOPL8Operator6KeyOffEh
r4:__ZN22VGA_LFBChanges_Handler6writewEjj
s4:__ZN12_GLOBAL__N_116itanium_demangle21CtorVtableSpecialNameC2EPKNS0_4NodeES4_
t4:__ZN12_GLOBAL__N_116DefaultAllocator8makeNodeINS_16itanium_demangle8DtorNameEJRPNS2_4NodeEEEEPT_DpOT0_
u4:__ZL11StripSpacesRPcc
v4:__Z17MAPPER_CheckEventP9SDL_Event
w4:__ZNKSt3__25ctypeIcE9do_narrowEPKcS3_cPc
x4:__ZN7CSerial8Read_ISREv
y4:__ZN21CDROM_Interface_Image12HasDataTrackEv
z4:__ZN12_GLOBAL__N_116itanium_demangle22AbstractManglingParserINS0_14ManglingParserINS_16DefaultAllocatorEEES3_E4lookEj
A4:_sn_write
B4:__ZNSt3__25ctypeIcEC2EPKtbm
C4:__ZN9imageDisk12Write_SectorEjjjPv
D4:__ZN12_GLOBAL__N_116itanium_demangle22AbstractManglingParserINS0_14ManglingParserINS_16DefaultAllocatorEEES3_E7consumeEv
E4:__ZN12_GLOBAL__N_116itanium_demangle22AbstractManglingParserINS0_14ManglingParserINS_16DefaultAllocatorEEES3_E4makeINS0_8BoolExprEJiEEEPNS0_4NodeEDpOT0_
F4:__ZN12_GLOBAL__N_116itanium_demangle20NameWithTemplateArgsC2EPNS0_4NodeES3_
G4:__ZNK12_GLOBAL__N_116itanium_demangle4Node11hasFunctionERNS_12OutputStreamE
H4:__ZN12_GLOBAL__N_116itanium_demangle18ArraySubscriptExprC2EPKNS0_4NodeES4_
I4:__Z24CPU_Core_Normal_Trap_Runv
J4:__ZNSt3__28ios_baseD2Ev
K4:__ZN12_GLOBAL__N_116itanium_demangle24ForwardTemplateReferenceC2Em
L4:__ZN12_GLOBAL__N_116itanium_demangle22AbstractManglingParserINS0_14ManglingParserINS_16DefaultAllocatorEEES3_E4makeINS0_8NameTypeEJRA22_KcEEEPNS0_4NodeEDpOT0_
M4:__ZN12_GLOBAL__N_116itanium_demangle22AbstractManglingParserINS0_14ManglingParserINS_16DefaultAllocatorEEES3_E4makeINS0_8NameTypeEJRA19_KcEEEPNS0_4NodeEDpOT0_
N4:__ZN12_GLOBAL__N_116itanium_demangle22AbstractManglingParserINS0_14ManglingParserINS_16DefaultAllocatorEEES3_E4makeINS0_8NameTypeEJRA16_KcEEEPNS0_4NodeEDpOT0_
O4:__ZN5DBOPL4Chip9WriteAddrEjh
P4:__ZN24VGA_UnchainedVGA_Handler6writebEjj
Q4:__ZN12Virtual_FileC2EPhj
R4:__Z18MAPPER_LosingFocusv
S4:__Z16DOS_SetupDevicesv
T4:__zip_set_open_error
U4:__ZNKSt3__27collateIwE7do_hashEPKwS3_
V4:__ZN9imageDisk12Get_GeometryEPjS0_S0_S0_
W4:__ZN12_GLOBAL__N_116itanium_demangle22AbstractManglingParserINS0_14ManglingParserINS_16DefaultAllocatorEEES3_E4makeINS0_8NameTypeEJRA8_KcEEEPNS0_4NodeEDpOT0_
X4:__ZN12_GLOBAL__N_116itanium_demangle22AbstractManglingParserINS0_14ManglingParserINS_16DefaultAllocatorEEES3_E4makeINS0_8NameTypeEJRA7_KcEEEPNS0_4NodeEDpOT0_
Y4:__ZL10EA_32_87_nv
Z4:__ZL10EA_32_86_nv
_4:__ZL10EA_32_85_nv
$4:__ZL10EA_32_83_nv
a5:__ZL10EA_32_82_nv
b5:__ZL10EA_32_81_nv
c5:__ZL10EA_32_80_nv
d5:__Z18CDROM_GetMountTypePci
e5:__ZNSt3__212basic_stringIcNS_11char_traitsIcEENS_9allocatorIcEEE7replaceEmmPKc
f5:__ZNKSt3__27collateIcE7do_hashEPKcS3_
g5:__ZNK12_GLOBAL__N_116itanium_demangle4Node8hasArrayERNS_12OutputStreamE
h5:__ZL9FPU_FSAVEj
i5:__ZL7FPU_FSTjj
j5:__ZN19VGA_Changes_Handler5readwEj
k5:__ZN12_GLOBAL__N_116itanium_demangle13QualifiedNameC2EPKNS0_4NodeES4_
l5:__ZN12CJButtonBindC2EPNSt3__24listIP5CBindNS0_9allocatorIS3_EEEEP10CBindGroupj
m5:__ZNK12_GLOBAL__N_116itanium_demangle4Node15hasRHSComponentERNS_12OutputStreamE
n5:__ZNK10__cxxabiv117__class_type_info29process_static_type_below_dstEPNS_19__dynamic_cast_infoEPKvi
o5:__ZL7diffYUVjj
p5:__ZL12SetupCMDLinetR14DOS_ParamBlock
q5:__Z30INT10_GetSinglePaletteRegisterhPh
r5:__ZL11DecreaseHueb
s5:__ZL11IncreaseHueb
t5:_write
u5:__ZN12_GLOBAL__N_116itanium_demangle4NodeC2ENS1_4KindENS1_5CacheES3_S3_
v5:__ZN12_GLOBAL__N_116itanium_demangle10NestedNameC2EPNS0_4NodeES3_
w5:__ZNKSt3__28numpunctIwE12do_falsenameEv
x5:__ZNKSt3__28numpunctIcE12do_falsenameEv
y5:__ZNK12_GLOBAL__N_116itanium_demangle4Node5printERNS_12OutputStreamE
z5:__ZL15InitBiosSegmentv
A5:__ZL13FPU_PREP_PUSHv
B5:__Z13ScanCMDRemainPc
C5:__ZNKSt3__28numpunctIwE11do_truenameEv
D5:__ZNKSt3__28numpunctIcE11do_truenameEv
E5:__ZN12_GLOBAL__N_116itanium_demangle9LocalNameC2EPNS0_4NodeES3_
F5:__Z13DOS_GetMemoryt
G5:__ZNSt3__213__vector_baseIP9DOS_DriveNS_9allocatorIS2_EEED2Ev
H5:__ZN7DOS_PSP13GetFileHandleEt
I5:__ZN12_GLOBAL__N_116DefaultAllocator8makeNodeINS_16itanium_demangle8BoolExprEJiEEEPT_DpOT0_
J5:__Z17Mouse_SetPS2Stateb
K5:__ZN22VGA_ChainedEGA_Handler6writebEjj
L5:__Z8CPU_ARPLRjj
M5:__Z6E_ExitPKcz
N5:__ZNKSt3__212_GLOBAL__N_111__fake_bindclEv
O5:__ZN7DOS_PSP14SetCommandTailEj
P5:__ZN7DOS_FCB15GetSizeDateTimeERjRtS1_
Q5:__ZN16VGA_LIN4_Handler6writebEjj
R5:__ZN7DOS_PSP13SetFileHandleEth
S5:__ZN5Adlib6Module4InitENS_4ModeE
T5:__ZN12MixerChannel10AddSilenceEv
U5:__ZN10copysourceC2Ev
V5:__ZL10EA_16_83_nv
W5:__ZL10EA_16_82_nv
X5:__ZL10EA_16_81_nv
Y5:__ZL10EA_16_80_nv
Z5:___uflow
_5:__ZN5CBindD2Ev
$5:__Z14PIC_SetIRQMaskjb
a6:__ZNSt3__215basic_streambufIcNS_11char_traitsIcEEE7seekposENS_4fposI11__mbstate_tEEj
b6:__ZN8AUTOEXECD2Ev
c6:__ZN6CONFIG16securemode_checkEv
d6:dynCall_iiiiiiiii
e6:_fmt_o
f6:__zip_memdup
g6:__ZNSt3__24pairIKNS_12basic_stringIcNS_11char_traitsIcEENS_9allocatorIcEEEEPFvRS7_PKcPFvS8_RK10jsonstreamEEEC2ERKSI_
h6:__ZN4OPL215change_waveformEjPNS_15operator_structE
i6:__ZN12CEventButton5ClickEv
j6:__ZN3CMSD2Ev
k6:__ZN22VGA_ChainedVGA_Handler5readbEj
l6:__Z15VGA_StartResizej
m6:__ZN5Adlib5Timer5ResetERKd
n6:__ZN22VGA_LFBChanges_Handler5readwEj
o6:__ZN21InitPageUserROHandler6writewEjj
p6:__ZZ5_sendENK3__0clERKNSt3__212basic_stringIcNS0_11char_traitsIcEENS0_9allocatorIcEEEERK10jsonstream
q6:__ZNKSt3__28messagesIwE7do_openERKNS_12basic_stringIcNS_11char_traitsIcEENS_9allocatorIcEEEERKNS_6localeE
r6:__ZNKSt3__28messagesIcE7do_openERKNS_12basic_stringIcNS_11char_traitsIcEENS_9allocatorIcEEEERKNS_6localeE
s6:__ZN8fatDrive8FindNextER7DOS_DTA
t6:__ZN20CDROM_Interface_Fake17GetAudioTrackInfoEiR4SMSFRh
u6:__ZN8PropertyD2Ev
v6:__ZN7DOS_FCB7SetNameEhPcS0_
w6:__ZN14ROMPageHandler6writewEjj
x6:__ZN14ROMPageHandler6writedEjj
y6:__ZN14ROMPageHandler6writebEjj
z6:__ZN13Virtual_Drive10FileExistsEPKc
A6:__ZN11CJAxisEvent6ActiveEb
B6:__ZL16RawMidiAddNumberj
C6:___wasi_fd_is_valid
D6:___muldi3
E6:__Z16GFX_CaptureMousev
F6:__ZN7CSerial5setRIEb
G6:__ZN14AutoexecObjectC2Ev
H6:__ZN8CKeyBind8BindNameEPc
I6:__ZN7CMapperC2Ev
J6:__ZN4MIDID2Ev
K6:__ZL10EA_16_43_nv_408
L6:__ZL10EA_16_42_nv_407
M6:__ZL10EA_16_41_nv_406
N6:__ZL10EA_16_40_nv_405
O6:__ZL11StripSpacesRPc
P6:__ZN7CMscdex9GetDrivesEj
Q6:__ZN6CEvent13DeActivateAllEv
R6:__ZN12CCheckButtonC2EjjjjPKc8BC_Types
S6:__Z8CPU_LMSWj
T6:__Z13VGA_SetupAttrv
U6:__ZN8fatDrive26getAbsoluteSectFromBytePosEjj
V6:__ZN25VGA_UnchainedRead_Handler5readbEj
W6:__ZN12CEventButtonC2EjjjjPKcP6CEvent
X6:__ZN11CBindButtonC2EjjjjPKc8BB_Types
Y6:__ZN10jsonstreamC2Ev
Z6:__Z13MEM_FreeTotalv
_6:__ZN12_GLOBAL__N_116itanium_demangle27ExpandedSpecialSubstitutionC2ENS0_14SpecialSubKindE
$6:__ZL10EA_16_83_nv_416
a7:__ZL10EA_16_82_nv_415
b7:__ZL10EA_16_81_nv_414
c7:__ZL10EA_16_80_nv_413
d7:__ZN11PageHandler6writewEjj
e7:__Z26INT10_GetSingleDACRegisterhPhS_S_
f7:_zip_source_tell_write
g7:__ZN8isoDrive15FreeDirIteratorEi
h7:__ZN6Events5frameEv
i7:__ZN12_GLOBAL__N_112OutputStreampLEc
j7:__ZL10EA_32_05_nv
k7:__Z22MAPPER_UpdateJoysticksv
l7:__ZNKSt3__210moneypunctIwLb1EE16do_positive_signEv
m7:__ZNKSt3__210moneypunctIwLb0EE16do_positive_signEv
n7:__ZNKSt3__210moneypunctIcLb1EE16do_positive_signEv
o7:__ZNKSt3__210moneypunctIcLb0EE16do_positive_signEv
p7:__ZN7CSerial6setDSREb
q7:__ZN7CSerial6setCTSEb
r7:__ZN15DescriptorTable13GetDescriptorEjR10Descriptor
s7:__ZL16SwitchFullScreenb
t7:__ZN7CSerial5setCDEb
u7:__ZN12_GLOBAL__N_116itanium_demangle11PointerTypeC2EPKNS0_4NodeE
v7:__ZN11GUSChannels13WriteRampRateEh
w7:__Z17VESA_SetCPUWindowhh
x7:__zip_read_string
y7:__ZNSt3__212_GLOBAL__N_111__fake_bindC2EMNS_6locale2idEFvvEPS3_
z7:__ZNKSt3__210moneypunctIwLb1EE14do_curr_symbolEv
A7:__ZNKSt3__210moneypunctIwLb0EE14do_curr_symbolEv
B7:__ZNKSt3__210moneypunctIcLb1EE14do_curr_symbolEv
C7:__ZNKSt3__210moneypunctIcLb0EE14do_curr_symbolEv
D7:__ZN19VGA_Changes_Handler6writebEjj
E7:__ZN10DOS_Device22ReadFromControlChannelEjtPt
F7:__Z20GFX_SwitchFullScreenv
G7:__ZNSt3__27codecvtIwc11__mbstate_tED2Ev
H7:__ZN9imageDisk12Set_GeometryEjjjj
I7:__ZN4OPL319change_sustainlevelEjPNS_15operator_structE
J7:__ZN4OPL219change_sustainlevelEjPNS_15operator_structE
K7:__ZN10DOS_Device21WriteToControlChannelEjtPt
L7:__ZN10CJHatEventC2EPKcjjj
M7:__Z11DOS_ToUpperc
N7:__zip_buffer_put_32
O7:__ZN21CDROM_Interface_Image10BinaryFileD2Ev
P7:__ZL9write_p92jjj
Q7:__ZNKSt3__210moneypunctIwLb1EE11do_groupingEv
R7:__ZNKSt3__210moneypunctIwLb0EE11do_groupingEv
S7:__ZNKSt3__210moneypunctIcLb1EE11do_groupingEv
T7:__ZNKSt3__210moneypunctIcLb0EE11do_groupingEv
U7:__ZN14CCaptionButton6ChangeEPKcz
V7:__ZN12_GLOBAL__N_116itanium_demangle19SpecialSubstitutionC2ENS0_14SpecialSubKindE
W7:__ZL10EA_16_43_nv
X7:__ZL10EA_16_42_nv
Y7:__ZL10EA_16_41_nv
Z7:__ZL10EA_16_40_nv
_7:_wmemcpy
$7:__zip_buffer_eof
a8:__ZNSt3__215basic_stringbufIcNS_11char_traitsIcEENS_9allocatorIcEEED2Ev
b8:__Z15getSendHandlersv
c8:__ZN12_GLOBAL__N_116itanium_demangle14PODSmallVectorIPNS0_24ForwardTemplateReferenceELm4EED2Ev
d8:__zip_hash_new
e8:__ZNSt3__212basic_stringIwNS_11char_traitsIwEENS_9allocatorIwEEED2Ev
f8:__ZNKSt3__27codecvtIcc11__mbstate_tE6do_outERS1_PKcS5_RS5_PcS7_RS7_
g8:__ZN11PageHandler5readwEj
h8:__ZNSt3__2lsINS_11char_traitsIcEEEERNS_13basic_ostreamIcT_EES6_PKc
i8:__ZNKSt3__27codecvtIcc11__mbstate_tE5do_inERS1_PKcS5_RS5_PcS7_RS7_
j8:__ZL9MIXER_Mixv
k8:__ZL14VESA_SetWindowv
l8:__ZL14SetupTandyBiosv
m8:__zip_file_new
n8:__ZN22VGA_ChainedEGA_Handler5readbEj
o8:__Z12CALLBACK_SIFb
p8:__ZN8CKeyBind10ConfigNameEPc
q8:__ZN12_GLOBAL__N_116itanium_demangle22ParameterPackExpansionC2EPKNS0_4NodeE
r8:__ZN12MixerChannel12UpdateVolumeEv
s8:__Z12CALLBACK_SZFb
t8:__ZNSt3__214__num_get_base10__get_baseERNS_8ios_baseE
u8:__ZNSt3__212_GLOBAL__N_14makeINS_8time_getIwNS_19istreambuf_iteratorIwNS_11char_traitsIwEEEEEEjEERT_T0_
v8:__ZNSt3__212_GLOBAL__N_14makeINS_8time_getIcNS_19istreambuf_iteratorIcNS_11char_traitsIcEEEEEEjEERT_T0_
w8:__ZN12_GLOBAL__N_116itanium_demangle22ConversionOperatorTypeC2EPKNS0_4NodeE
x8:__ZN12_GLOBAL__N_116itanium_demangle14PODSmallVectorIPNS0_24ForwardTemplateReferenceELm4EEixEm
y8:__ZL12em_exit_loopv
z8:__Z15isPointerLockedv
A8:__Z12CALLBACK_SCFb
B8:__ZN12_GLOBAL__N_120BumpPointerAllocator4growEv
C8:__ZL11FPU_FYL2XP1v
D8:__ZZ5_sendEN3__08__invokeERKNSt3__212basic_stringIcNS0_11char_traitsIcEENS0_9allocatorIcEEEERK10jsonstream
E8:__ZNK12_GLOBAL__N_116itanium_demangle20TemplateArgumentPack11getElementsEv
F8:__ZN12_GLOBAL__N_116itanium_demangle19SizeofParamPackExprC2EPKNS0_4NodeE
G8:dynCall_iiiiiiii
H8:___munmap
I8:__ZNKSt3__220__time_get_c_storageIwE8__monthsEv
J8:__ZN15CTriggeredEvent15DeActivateEventEb
K8:__ZN12_GLOBAL__N_116itanium_demangle19GlobalQualifiedNameC2EPNS0_4NodeE
L8:__ZN10copysourceC2ENSt3__212basic_stringIcNS0_11char_traitsIcEENS0_9allocatorIcEEEEb
M8:__ZL10EA_16_87_nv
N8:__ZL10EA_16_86_nv
O8:__ZL10EA_16_85_nv
P8:__ZL10EA_16_84_nv
Q8:__Z18VGA_StartUpdateLFBv
R8:__Z18INT10_ReadCharAttrPth
S8:__ZZN6Events18registerScreenshotEvENK3__2clERKNSt3__212basic_stringIcNS1_11char_traitsIcEENS1_9allocatorIcEEEEPKcPFvS9_RK10jsonstreamE
T8:__ZNKSt3__220__time_get_c_storageIcE8__monthsEv
U8:_stat
V8:_rename
W8:_access
X8:__ZNSt3__211__call_onceERVmPvPFvS2_E
Y8:__ZNKSt3__220__time_get_c_storageIwE7__weeksEv
Z8:__ZNKSt3__220__time_get_c_storageIwE7__am_pmEv
_8:__ZN7DOS_FCB15SetSizeDateTimeEjtt
$8:__ZN7CMscdex12InitNewMediaEh
a9:__ZN16VGA_LIN4_Handler5readbEj
b9:_mkdir
c9:_chmod
d9:__zip_ef_size
e9:__ZNKSt3__27codecvtIwc11__mbstate_tE13do_max_lengthEv
f9:__ZNKSt3__220__time_get_c_storageIcE7__weeksEv
g9:__ZNKSt3__220__time_get_c_storageIcE7__am_pmEv
h9:__ZNK12_GLOBAL__N_116itanium_demangle19PointerToMemberType19hasRHSComponentSlowERNS_12OutputStreamE
i9:__ZN12_GLOBAL__N_116itanium_demangle16StdQualifiedNameC2EPNS0_4NodeE
j9:__ZN12_GLOBAL__N_116itanium_demangle15LiteralOperatorC2EPKNS0_4NodeE
k9:__ZNKSt3__210moneypunctIwLb1EE16do_negative_signEv
l9:__ZNKSt3__210moneypunctIwLb0EE16do_negative_signEv
m9:__ZNKSt3__210moneypunctIcLb1EE16do_negative_signEv
n9:__ZNKSt3__210moneypunctIcLb0EE16do_negative_signEv
o9:__ZN22VGA_LFBChanges_Handler6writebEjj
p9:__ZN11CTextButton4DrawEv
q9:___cxx_global_var_init_2183
r9:__ZNSt3__212basic_stringIwNS_11char_traitsIwEENS_9allocatorIwEEE6assignEPKw
s9:__ZNSt3__212basic_stringIcNS_11char_traitsIcEENS_9allocatorIcEEE6assignEPKc
t9:__ZNSt3__212basic_stringIcNS_11char_traitsIcEENS_9allocatorIcEEE6appendEPKc
u9:__ZN9Prop_bool8SetValueERKNSt3__212basic_stringIcNS0_11char_traitsIcEENS0_9allocatorIcEEEE
v9:__ZN5Adlib7Capture9MakeEntryEhRh
w9:__ZN19VGA_Changes_Handler5readbEj
x9:__Z5rtrimPc
y9:__Z24Mouse_BeforeNewVideoModeb
z9:__Z23CALLBACK_SetDescriptionjPKc
A9:__Z13GFX_EndUpdatePKt
B9:__zip_get_name
C9:__ZNSt3__219basic_ostringstreamIcNS_11char_traitsIcEENS_9allocatorIcEEED1Ev
D9:__ZNSt3__219basic_istringstreamIcNS_11char_traitsIcEENS_9allocatorIcEEED1Ev
E9:__ZN5DBOPL4ChipC2Ev
F9:__ZN14DOS_ParamBlock5ClearEv
G9:__ZN12_GLOBAL__N_116itanium_demangle12NoexceptSpecC2EPKNS0_4NodeE
H9:__ZN11GUSChannels13WriteWaveFreqEt
I9:__ZL9FPU_FYL2Xv
J9:__Z10CPU_Push16j
K9:__ZNKSt3__25ctypeIcE8do_widenEPKcS3_Pc
L9:__ZN8fatDrive10FileExistsEPKc
M9:__ZN12MessageBlockC2ERKS_
N9:__ZL9write_p61jjj
O9:__ZN6EventsC2Ev
P9:__ZN20CDROM_Interface_Fake14GetAudioTracksERiS0_R4SMSF
Q9:__ZN10localDrive17GetSystemFilenameEPcPKc
R9:__ZL15read_cms_detectjj
S9:__Z28INT10_GetOverscanBorderColorPh
T9:__Z17MIXER_FindChannelPKc
U9:_snprintf
V9:__ZN7DOS_PSP14RestoreVectorsEv
W9:__ZN5ValueaSERKS_
X9:__Znwm
Y9:__ZNKSt3__25ctypeIwE8do_widenEPKcS3_Pw
Z9:__ZNK12_GLOBAL__N_116itanium_demangle13ReferenceType19hasRHSComponentSlowERNS_12OutputStreamE
_9:__ZN7CMscdex14GetMediaStatusEhRh
$9:__ZN12_GLOBAL__N_116itanium_demangle9ThrowExprC2EPKNS0_4NodeE
aaa:__ZN10device_CON9ClearAnsiEv
baa:__ZL9check_keyRt
caa:__ZL13AddDelayEntryff
daa:__ZL10EA_16_47_nv_412
eaa:__ZL10EA_16_46_nv_411
faa:__ZL10EA_16_45_nv_410
gaa:__ZL10EA_16_44_nv_409
haa:__Z23DOS_AddMultiplexHandlerPFbvE
iaa:__Z18MEM_SetPageHandlerjjP11PageHandler
jaa:__ZNSt3__212basic_stringIcNS_11char_traitsIcEENS_9allocatorIcEEED2Ev
kaa:__ZNKSt3__26locale5__imp9has_facetEl
laa:__ZN5ValueaSEPKc
maa:__ZN12_GLOBAL__N_116itanium_demangle8DtorNameC2EPKNS0_4NodeE
naa:__ZL8read_p60jj
oaa:__ZL12GUI_ShutDownP7Section
paa:__Z20removeTrailingSpacesPc
qaa:__Z10strreplacePccc
raa:__ZNSt3__26localeD2Ev
saa:__ZNK12_GLOBAL__N_116itanium_demangle8NameType11getBaseNameEv
taa:__ZNK12_GLOBAL__N_116itanium_demangle11PointerType19hasRHSComponentSlowERNS_12OutputStreamE
uaa:__ZN14PIC_Controller8activateEv
vaa:__ZN13device_MSCDEX22ReadFromControlChannelEjtPt
waa:__ZN13device_MSCDEX21WriteToControlChannelEjtPt
xaa:__Z9CPU_Pop16v
yaa:__ZNSt3__26locale5__imp7installINS_9money_putIwNS_19ostreambuf_iteratorIwNS_11char_traitsIwEEEEEEEEvPT_
zaa:__ZNSt3__26locale5__imp7installINS_9money_putIcNS_19ostreambuf_iteratorIcNS_11char_traitsIcEEEEEEEEvPT_
Aaa:__ZNSt3__26locale5__imp7installINS_9money_getIwNS_19istreambuf_iteratorIwNS_11char_traitsIwEEEEEEEEvPT_
Baa:__ZNSt3__26locale5__imp7installINS_9money_getIcNS_19istreambuf_iteratorIcNS_11char_traitsIcEEEEEEEEvPT_
Caa:_bitshift64Ashr
Daa:__ZNSt3__26locale5__imp7installINS_8time_putIwNS_19ostreambuf_iteratorIwNS_11char_traitsIwEEEEEEEEvPT_
Eaa:__ZNSt3__26locale5__imp7installINS_8time_putIcNS_19ostreambuf_iteratorIcNS_11char_traitsIcEEEEEEEEvPT_
Faa:__ZNSt3__26locale5__imp7installINS_8time_getIwNS_19istreambuf_iteratorIwNS_11char_traitsIwEEEEEEEEvPT_
Gaa:__ZNSt3__26locale5__imp7installINS_8time_getIcNS_19istreambuf_iteratorIcNS_11char_traitsIcEEEEEEEEvPT_
Haa:__ZNKSt3__27codecvtIDsc11__mbstate_tE9do_lengthERS1_PKcS5_m
Iaa:__ZN4OPL315change_feedbackEjPNS_15operator_structE
Jaa:__ZN4OPL215change_feedbackEjPNS_15operator_structE
Kaa:__ZN15InitPageHandler13readw_checkedEjPt
Laa:__ZN15InitPageHandler13readd_checkedEjPj
Maa:__ZN13device_MSCDEX5WriteEPhPt
Naa:__ZL10EA_16_87_nv_420
Oaa:__ZL10EA_16_86_nv_419
Paa:__ZL10EA_16_85_nv_418
Qaa:__ZL10EA_16_84_nv_417
Raa:__Z10CPU_Push32j
Saa:_clearerr
Taa:__ZNSt3__26locale5__imp7installINS_7num_putIwNS_19ostreambuf_iteratorIwNS_11char_traitsIwEEEEEEEEvPT_
Uaa:__ZNSt3__26locale5__imp7installINS_7num_putIcNS_19ostreambuf_iteratorIcNS_11char_traitsIcEEEEEEEEvPT_
Vaa:__ZNSt3__26locale5__imp7installINS_7num_getIwNS_19istreambuf_iteratorIwNS_11char_traitsIwEEEEEEEEvPT_
Waa:__ZNSt3__26locale5__imp7installINS_7num_getIcNS_19istreambuf_iteratorIcNS_11char_traitsIcEEEEEEEEvPT_
Xaa:__ZNKSt3__27codecvtIDic11__mbstate_tE9do_lengthERS1_PKcS5_m
Yaa:__ZNK12_GLOBAL__N_116itanium_demangle8QualType19hasRHSComponentSlowERNS_12OutputStreamE
Zaa:__ZN7DOS_PSP11SaveVectorsEv
_aa:__ZN5ValueaSEi
$aa:__ZN5ValueaSEb
aba:__ZN15InitPageHandler13readb_checkedEjPh
bba:__ZN12CSerialDummy9setRTSDTREbb
cba:__ZL4outch
dba:__zip_buffer_get_32
eba:__ZTv0_n12_NSt3__219basic_ostringstreamIcNS_11char_traitsIcEENS_9allocatorIcEEED1Ev
fba:__ZTv0_n12_NSt3__219basic_ostringstreamIcNS_11char_traitsIcEENS_9allocatorIcEEED0Ev
gba:__ZTv0_n12_NSt3__219basic_istringstreamIcNS_11char_traitsIcEENS_9allocatorIcEEED1Ev
hba:__ZTv0_n12_NSt3__219basic_istringstreamIcNS_11char_traitsIcEENS_9allocatorIcEEED0Ev
iba:__ZN10device_EMM5WriteEPhPt
jba:_end
kba:__ZNK12_GLOBAL__N_116itanium_demangle8NameType7getNameEv
lba:__ZN9localFile5CloseEv
mba:__ZNK5ValuecvPKcEv
nba:__ZN5DBOPL8Operator7Write40EPKNS_4ChipEh
oba:__ZN10device_COMC2EP7CSerial
pba:__ZL13DISNEY_enablej
qba:__ZNSt3__26locale8__globalEv
rba:__ZNSt3__26locale7classicEv
sba:__ZN5DBOPL8Operator17UpdateAttenuationEv
tba:__ZN12_GLOBAL__N_116itanium_demangle8BoolExprC2Eb
uba:__Z13DOS_LayoutKeyjhhh
vba:__ZN8CKeyBindC2EPNSt3__24listIP5CBindNS0_9allocatorIS3_EEEEi
wba:__ZN14PIC_Controller15check_after_EOIEv
xba:__ZN13Virtual_Drive14AllocationInfoEPtPhS0_S0_
yba:__ZN11CTextButtonC2EjjjjPKc
zba:__ZN15keyboard_layout18read_keyboard_fileEi
Aba:__ZN15InitPageHandler14writew_checkedEjj
Bba:__Z14MEM_A20_Enableb
Cba:___ofl_add
Dba:__ZN22VGA_LFBChanges_Handler5readbEj
Eba:__ZL10EA_16_47_nv
Fba:__ZL10EA_16_46_nv
Gba:__ZL10EA_16_45_nv
Hba:__ZL10EA_16_44_nv
Iba:__Z9CPU_Pop32v
Jba:___uselocale
Kba:__ZNK12_GLOBAL__N_116itanium_demangle8QualType15hasFunctionSlowERNS_12OutputStreamE
Lba:__ZN7CMscdex16GetDefaultBufferEv
Mba:__ZN2IOC2EP7Section
Nba:__ZN15InitPageHandler14writeb_checkedEjj
Oba:__ZN15DOS_Drive_Cache14DeleteFileInfoEPNS_9CFileInfoE
Pba:__ZL19DOS_default_handlerv
Qba:__Z16MEM_ReleasePagesi
Rba:__Z10MEM_SetLFBjjP11PageHandlerS0_
Sba:__Z10FPU_GetTagv
Tba:__ZN12CSerialDummy12transmitByteEhb
Uba:__ZL15cmos_timereventj
Vba:__ZNK12_GLOBAL__N_116itanium_demangle20TemplateArgumentPack9printLeftERNS_12OutputStreamE
Wba:__ZN7DOS_PSP10CloseFilesEv
Xba:__ZN5Value7destroyEv
Yba:__Z2civ
Zba:__ZN4OPL314change_vibratoEjPNS_15operator_structE
_ba:__ZN4OPL214change_vibratoEjPNS_15operator_structE
$ba:__ZN12_GLOBAL__N_116itanium_demangle14PODSmallVectorIPNS0_24ForwardTemplateReferenceELm4EEC2Ev
aca:__ZN11CommandLineD2Ev
bca:dynCall_iiiiiii
cca:__ZN5Adlib6Module10CacheWriteEjh
dca:__ZN10DOS_Device5WriteEPhPt
eca:__ZL20set_clock_index_et4kj
fca:__ZL15default_handlerv
gca:__ZNKSt3__25ctypeIwE5do_isEtw
hca:__Z21MSCDEX_SetCDInterfaceii
ica:__Z20CALLBACK_RemoveSetupj
jca:__ZNSt3__212_GLOBAL__N_14makeINS_8time_putIwNS_19ostreambuf_iteratorIwNS_11char_traitsIwEEEEEEjEERT_T0_
kca:__ZNSt3__212_GLOBAL__N_14makeINS_8time_putIcNS_19ostreambuf_iteratorIcNS_11char_traitsIcEEEEEEjEERT_T0_
lca:__ZN8isoDrive14AllocationInfoEPtPhS0_S0_
mca:__ZN7DOS_FCB5ValidEv
nca:__ZN15InitPageHandler14writed_checkedEjj
oca:__ZN10DOS_Device4SeekEPjj
pca:__ZN10DOS_Device4ReadEPhPt
qca:__ZL11FPU_FSINCOSv
rca:__Z15VGA_KillDrawingv
sca:_bitshift64Shl
tca:__zip_buffer_offset
uca:__ZNK12_GLOBAL__N_116itanium_demangle8QualType12hasArraySlowERNS_12OutputStreamE
vca:__ZNK12_GLOBAL__N_116itanium_demangle8QualType10printRightERNS_12OutputStreamE
wca:__ZN7DOS_SDA4InitEv
xca:__ZN7CSerial9Write_MSREh
yca:___cxx_global_var_init_3375
zca:___cxx_global_var_init_2785
Aca:__ZNSt3__210__list_impINS_12basic_stringIcNS_11char_traitsIcEENS_9allocatorIcEEEENS4_IS6_EEED2Ev
Bca:__ZN21InitPageUserROHandler6writebEjj
Cca:__ZNK12_GLOBAL__N_116itanium_demangle9ArrayType9printLeftERNS_12OutputStreamE
Dca:__ZNK12_GLOBAL__N_116itanium_demangle13NodeArrayNode9printLeftERNS_12OutputStreamE
Eca:__ZN13CJButtonEventC2EPKcjj
Fca:__ZN12_GLOBAL__N_116itanium_demangle14PODSmallVectorIPNS0_4NodeELm32EED2Ev
Gca:__ZL15INT10_Seg40Initv
Hca:__ZL10FPU_FPATANv
Ica:__ZL10EA_32_47_nv_436
Jca:__ZL10EA_32_46_nv_435
Kca:__ZL10EA_32_45_nv_434
Lca:__ZL10EA_32_43_nv_432
Mca:__ZL10EA_32_42_nv_431
Nca:__ZL10EA_32_41_nv_430
Oca:__ZL10EA_32_40_nv_429
Pca:_sprintf
Qca:_fprintf
Rca:__ZN21CDROM_Interface_Image6GetUPCERhPc
Sca:__ZN10cdromDrive7UnMountEv
Tca:dynCall_iiiiiid
Uca:dynCall_iidiiii
Vca:__ZN7CMscdexC2Ev
Wca:__ZN5DBOPL7Channel7ResetC0EPKNS_4ChipE
Xca:__ZN12_GLOBAL__N_116itanium_demangle14PODSmallVectorIPNS0_4NodeELm8EED2Ev
Yca:_sscanf
Zca:__ZNSt3__211char_traitsIcE4findEPKcmRS2_
_ca:__ZNK12_GLOBAL__N_116itanium_demangle20NameWithTemplateArgs11getBaseNameEv
$ca:__ZN7CMscdex13GetTempBufferEv
ada:__ZN4OPL317adlib_write_indexEjh
bda:__ZN15keyboard_layout15get_layout_nameEv
cda:__ZL25MPU401_EOIHandlerDispatchv
dda:__Z15write_p3cd_et3kjjj
eda:_zip_source_rollback_write
fda:_wmemset
gda:_ftell
hda:__ZNK12_GLOBAL__N_116itanium_demangle19GlobalQualifiedName11getBaseNameEv
ida:__ZN12_GLOBAL__N_116itanium_demangle14PODSmallVectorIPNS0_4NodeELm8EE11clearInlineEv
jda:__ZN10Descriptor7GetBaseEv
kda:_printf
lda:__ZN8isoDrive7UnMountEv
mda:__ZN7CMscdex11ReadSectorsEtjtj
nda:__ZN20IO_WriteHandleObject9UninstallEv
oda:__ZN12_GLOBAL__N_116itanium_demangle14PODSmallVectorIPNS0_4NodeELm32EEixEm
pda:__Z23DOS_KeyboardLayout_InitP7Section
qda:__Z19XMS_QueryFreeMemoryRtS_
rda:dynCall_viiiiii
sda:_bitshift64Lshr
tda:__ZN8DOS_File7SetNameEPKc
uda:__ZN20CDROM_Interface_Fake6GetUPCERhPc
vda:__ZN12_GLOBAL__N_114SwapAndRestoreIPKcEC2ERS2_S2_
wda:__ZN12Section_lineD2Ev
xda:__GLOBAL__sub_I_sdl_mapper_cpp
yda:__ZNK12_GLOBAL__N_116itanium_demangle16StdQualifiedName11getBaseNameEv
zda:__ZN19IO_ReadHandleObject9UninstallEv
Ada:__ZN12_GLOBAL__N_116itanium_demangle14PODSmallVectorIPNS0_4NodeELm8EEixEm
Bda:__ZN12_GLOBAL__N_114SwapAndRestoreIbEC2ERbb
Cda:__ZN5Adlib5Timer6UpdateEd
Dda:__ZN14CCaptionButtonC2Ejjjj
Eda:__ZN12MixerChannel7SetFreqEj
Fda:__ZL16UpdateEMSMappingv
Gda:__ZNK12_GLOBAL__N_116itanium_demangle13QualifiedName11getBaseNameEv
Hda:__ZN5Cross21GetPlatformConfigNameERNSt3__212basic_stringIcNS0_11char_traitsIcEENS0_9allocatorIcEEEE
Ida:__ZN7fatFile5CloseEv
Jda:_abort_message
Kda:__ZNK12_GLOBAL__N_116itanium_demangle10NestedName11getBaseNameEv
Lda:__ZN8isoDrive10readSectorEPhj
Mda:__ZL8is_equalPKSt9type_infoS1_b
Nda:__ZL10EA_32_47_nv
Oda:__ZL10EA_32_46_nv
Pda:__ZL10EA_32_45_nv
Qda:__ZL10EA_32_43_nv
Rda:__ZL10EA_32_42_nv
Sda:__ZL10EA_32_41_nv
Tda:__ZL10EA_32_40_nv
Uda:__ZNSt3__26__clocEv
Vda:__ZN12_GLOBAL__N_116itanium_demangle14PODSmallVectorIPNS0_4NodeELm32EEC2Ev
Wda:_ferror
Xda:__ZNSt3__211char_traitsIcE7not_eofEi
Yda:__ZN9DOS_Block3pspEt
Zda:__ZN9DOS_Block3dtaEj
_da:__ZL10EA_32_87_nv_444
$da:__ZL10EA_32_86_nv_443
aea:__ZL10EA_32_85_nv_442
bea:__ZL10EA_32_83_nv_440
cea:__ZL10EA_32_82_nv_439
dea:__ZL10EA_32_81_nv_438
eea:__ZL10EA_32_80_nv_437
fea:__Z7lowcasePc
gea:_unlink
hea:__zip_buffer_put_16
iea:__ZNSt3__24pairIKNS_12basic_stringIcNS_11char_traitsIcEENS_9allocatorIcEEEEPFvRS7_PKcPFvS8_RK10jsonstreamEEED2Ev
jea:__ZNKSt3__25ctypeIcE10do_tolowerEc
kea:__ZN8fatDrive7TestDirEPc
lea:__ZN12_GLOBAL__N_116itanium_demangle14PODSmallVectorIPNS0_4NodeELm8EEC2Ev
mea:__ZN10Descriptor4SaveEj
nea:__Z6upcasePc
oea:__Z12incrementFDDv
pea:_umask
qea:_rmdir
rea:_pop_arg_long_double
sea:__ZNSt3__26locale5__imp7installINS_7codecvtIDsc11__mbstate_tEEEEvPT_
tea:__ZNSt3__26locale5__imp7installINS_7codecvtIDic11__mbstate_tEEEEvPT_
uea:__ZNSt3__211char_traitsIcE6assignEPcmc
vea:__ZN14CCaptionButton4DrawEv
wea:__ZN10device_EMMC2Eb
xea:_zip_fclose
yea:__ZNSt3__26locale5__imp7installINS_7codecvtIwc11__mbstate_tEEEEvPT_
zea:__ZNSt3__26locale5__imp7installINS_7codecvtIcc11__mbstate_tEEEEvPT_
Aea:__ZNSt3__214basic_ifstreamIcNS_11char_traitsIcEEED1Ev
Bea:__ZNKSt3__27codecvtIcc11__mbstate_tE9do_lengthERS1_PKcS5_m
Cea:__ZN9localFile5FlushEv
Dea:__ZL17bank_setup_pvga1av
Eea:__ZL12CycleHercPalb
Fea:_zip_source_buffer
Gea:__zip_fseek_u
Hea:_zip_source_window
Iea:__ZNSt3__25ctypeIcED2Ev
Jea:__ZNKSt3__25ctypeIcE10do_toupperEc
Kea:__ZN10copysourceaSERKS_
Lea:__ZN10cdromDrive11GetFileAttrEPcPt
Mea:__ZN10Descriptor4LoadEj
Nea:__Z17VESA_GetCPUWindowhRt
Oea:__Z15TANDYSOUND_InitP7Section
Pea:__ZNSt3__26localeC2Ev
Qea:__ZN9DOS_Block3pspEv
Rea:__ZN9DOS_Block3dtaEv
Sea:__ZN8HARDWARED2Ev
Tea:__ZN7DOS_FCB10GetSeqDataERhRt
Uea:__ZL10EA_16_06_nv
Vea:__Z16MEM_NextHandleAtij
Wea:__Z10getVersionv
Xea:__ZNSt3__213basic_ostreamIcNS_11char_traitsIcEEED1Ev
Yea:__ZNSt3__213basic_istreamIcNS_11char_traitsIcEEED1Ev
Zea:__ZN12MessageBlockD2Ev
_ea:_i64Subtract
$ea:__ZN7DOS_FCB9GetRecordERtRh
afa:__ZL20KEYBOARD_TickHandlerv
bfa:__ZL11FPU_FLD_I64jj
cfa:dynCall_iiiiii
dfa:__ZNSt3__26locale5__imp7installINS_10moneypunctIwLb1EEEEEvPT_
efa:__ZNSt3__26locale5__imp7installINS_10moneypunctIwLb0EEEEEvPT_
ffa:__ZNSt3__26locale5__imp7installINS_10moneypunctIcLb1EEEEEvPT_
gfa:__ZNSt3__26locale5__imp7installINS_10moneypunctIcLb0EEEEEvPT_
hfa:__ZN10CJHatEvent6ActiveEb
ifa:__Z14PCSPEAKER_InitP7Section
jfa:__ZN10Descriptor8GetLimitEv
kfa:__ZL11FPU_FST_F64j
lfa:__Z13SBLASTER_InitP7Section
mfa:__ZN9CModEvent6ActiveEb
nfa:__ZN12_GLOBAL__N_116itanium_demangle14PODSmallVectorIPNS0_24ForwardTemplateReferenceELm4EE8dropBackEm
ofa:__ZL12read_commandjj
pfa:__Z13JOYSTICK_InitP7Section
qfa:__zip_buffer_put
rfa:__ZN6MyFifoC2Ej
sfa:__Z14Mouse_AutoLockb
tfa:__Z13HARDWARE_InitP7Section
ufa:__Z12CPU_SetFlagsjj
vfa:__ZNK12_GLOBAL__N_116itanium_demangle22AbstractManglingParserINS0_14ManglingParserINS_16DefaultAllocatorEEES3_E7numLeftEv
wfa:__ZN21CDROM_Interface_Image18GetMediaTrayStatusERbS0_S0_
xfa:__ZTv0_n12_NSt3__214basic_ifstreamIcNS_11char_traitsIcEEED1Ev
yfa:__ZTv0_n12_NSt3__214basic_ifstreamIcNS_11char_traitsIcEEED0Ev
zfa:__ZN20CDROM_Interface_Fake18GetMediaTrayStatusERbS0_S0_
Afa:__ZN13DOS_InfoBlock10SetBuffersEtt
Bfa:__ZL9FPU_FPTANv
Cfa:__ZL10EA_16_43_nv_317
Dfa:__ZL10EA_16_42_nv_316
Efa:__ZL10EA_16_41_nv_315
Ffa:__ZL10EA_16_40_nv_314
Gfa:__Z8PIC_InitP7Section
Hfa:__Z11MPU401_InitP7Section
Ifa:__Z11DISNEY_InitP7Section
Jfa:dynCall_iiiiid
Kfa:__ZTv0_n12_NSt3__213basic_ostreamIcNS_11char_traitsIcEEED1Ev
Lfa:__ZTv0_n12_NSt3__213basic_ostreamIcNS_11char_traitsIcEEED0Ev
Mfa:__ZTv0_n12_NSt3__213basic_istreamIcNS_11char_traitsIcEEED1Ev
Nfa:__ZTv0_n12_NSt3__213basic_istreamIcNS_11char_traitsIcEEED0Ev
Ofa:__ZNSt3__26locale5__imp7installINS_8numpunctIwEEEEvPT_
Pfa:__ZNSt3__26locale5__imp7installINS_8numpunctIcEEEEvPT_
Qfa:__ZNSt3__26locale5__imp7installINS_8messagesIwEEEEvPT_
Rfa:__ZNSt3__26locale5__imp7installINS_8messagesIcEEEEvPT_
Sfa:__ZNK12_GLOBAL__N_116itanium_demangle12NodeOrString8asStringEv
Tfa:__ZN5Adlib7CaptureC2EPA512_h
Ufa:__ZN15VGA_Map_Handler14GetHostWritePtEj
Vfa:__ZN12_GLOBAL__N_114SwapAndRestoreIjEC2ERjj
Wfa:__ZN11PageHandler13readw_checkedEjPt
Xfa:__ZN11PageHandler13readd_checkedEjPj
Yfa:__ZN10copysourceC2ERKS_
Zfa:__Z18RemoveEMSPageFramev
_fa:__Z18PreparePCJRCartRomv
$fa:__Z10TIMER_InitP7Section
aga:__ZNSt3__28numpunctIwED2Ev
bga:__ZNSt3__28numpunctIcED2Ev
cga:__ZNSt3__26locale5__imp7installINS_7collateIwEEEEvPT_
dga:__ZNSt3__26locale5__imp7installINS_7collateIcEEEEvPT_
ega:__ZNSt3__219basic_ostringstreamIcNS_11char_traitsIcEENS_9allocatorIcEEED0Ev
fga:__ZNSt3__219basic_istringstreamIcNS_11char_traitsIcEENS_9allocatorIcEEED0Ev
gga:__ZN7DOS_FCB8GetDriveEv
hga:__ZN15VGA_Map_Handler13GetHostReadPtEj
iga:__ZN10DOS_DeviceC2ERKS_
jga:__ZL17VGA_VertInterruptj
kga:_context_free
lga:__ZNKSt3__29__num_getIwE10__do_widenERNS_8ios_baseEPw
mga:__ZNK12_GLOBAL__N_112OutputStream4backEv
nga:__ZN9DOS_Shell11SyntaxErrorEv
oga:__ZN11PageHandler13readb_checkedEjPh
pga:__Z18MSCDEX_RemoveDrivec
qga:__ZNSt3__26locale5__imp7installINS_5ctypeIwEEEEvPT_
rga:__ZNSt3__26locale5__imp7installINS_5ctypeIcEEEEvPT_
sga:__ZL11FPU_FLD_F32jj
tga:__ZL10EA_16_83_nv_325
uga:__ZL10EA_16_82_nv_324
vga:__ZL10EA_16_81_nv_323
wga:__ZL10EA_16_80_nv_322
xga:__Z9BIOS_InitP7Section
yga:__Z8MEM_InitP7Section
zga:__Z18MOUSE_Limit_Eventsj
Aga:__Z16AcceptsMode_ET3Kj
Bga:_llvm_ctpop_i32
Cga:__ZNKSt3__25ctypeIwE10do_toupperEw
Dga:__ZNKSt3__25ctypeIwE10do_tolowerEw
Ega:__ZN11GUSChannels14UpdateWaveRampEv
Fga:__ZN10DOS_Device14GetInformationEv
Gga:__ZL10EA_16_06_nv_403
Hga:__Z9CMOS_InitP7Section
Iga:__Z24MOUSE_UserInt_CB_Handlerv
Jga:dynCall_viiiii
Kga:__zip_progress_start
Lga:__ZL11PauseDOSBoxb
Mga:__Z9MIDI_InitP7Section
Nga:__Z8GUS_InitP7Section
Oga:__Z8DOS_InitP7Section
Pga:__ZNSt3__27codecvtIwc11__mbstate_tEC2Em
Qga:__ZNKSt3__26locale9use_facetERNS0_2idE
Rga:__ZNKSt3__26locale9has_facetERNS0_2idE
Sga:__ZL16MPU401_ResetDonej
Tga:__ZL11FPU_FLD_F64jj
Uga:__Z8XMS_InitP7Section
Vga:__Z8EMS_InitP7Section
Wga:__zip_progress_free
Xga:__ZZ4mainEN3__18__invokeEiPK32EmscriptenPointerlockChangeEventPv
Yga:__ZN21CDROM_Interface_Image14GetAudioStatusERbS0_
Zga:__ZN10DmaChannel7SetPageEh
_ga:__Z8CPU_InitP7Section
$ga:__Z5ltrimPc
aha:_zip_source_layered
bha:_zip_error_system_type
cha:__zip_progress_subrange
dha:__ZN4BOOT10printErrorEv
eha:__ZN16CommandInterfaceD2Ev
fha:__ZL12show_warningPKc
gha:__ZNSt3__28time_putIwNS_19ostreambuf_iteratorIwNS_11char_traitsIwEEEEED0Ev
hha:__ZNSt3__28time_putIcNS_19ostreambuf_iteratorIcNS_11char_traitsIcEEEEED0Ev
iha:__ZNSt3__215basic_stringbufIcNS_11char_traitsIcEENS_9allocatorIcEEED0Ev
jha:__ZNK10__cxxabiv123__fundamental_type_info9can_catchEPKNS_16__shim_type_infoERPv
kha:__ZN7DOS_FCB10SetSeqDataEht
lha:__ZN5Cross9CreateDirERKNSt3__212basic_stringIcNS0_11char_traitsIcEENS0_9allocatorIcEEEE
mha:__Z7IO_InitP7Section
nha:__Z14open_directoryPKc
oha:__ZNK5ValuecvbEv
pha:__ZN8JOYSTICKD2Ev
qha:__ZN7DOS_PSP7SetFCB2Ej
rha:__ZN16VGA_MMIO_Handler6writewEjj
sha:__ZN16VGA_MMIO_Handler6writedEjj
tha:__ZN16VGA_MMIO_Handler6writebEjj
uha:__Z25CPU_Enable_SkipAutoAdjustv
vha:__ZNSt3__210__list_impIN7Section16Function_wrapperENS_9allocatorIS2_EEED2Ev
wha:__ZNKSt3__29__num_getIcE10__do_widenERNS_8ios_baseEPc
xha:__ZNKSt3__210moneypunctIwLb1EE13do_pos_formatEv
yha:__ZNKSt3__210moneypunctIwLb1EE13do_neg_formatEv
zha:__ZNKSt3__210moneypunctIwLb0EE13do_pos_formatEv
Aha:__ZNKSt3__210moneypunctIwLb0EE13do_neg_formatEv
Bha:__ZNKSt3__210moneypunctIcLb1EE13do_pos_formatEv
Cha:__ZNKSt3__210moneypunctIcLb1EE13do_neg_formatEv
Dha:__ZNKSt3__210moneypunctIcLb0EE13do_pos_formatEv
Eha:__ZNKSt3__210moneypunctIcLb0EE13do_neg_formatEv
Fha:__ZN7DOS_PSP7SetFCB1Ej
Gha:__ZN7DOS_FCB9SetRecordEth
Hha:__Z19removeLeadingSpacesPc
Iha:__ZNSt3__217__call_once_proxyINS_5tupleIJONS_12_GLOBAL__N_111__fake_bindEEEEEEvPv
Jha:__ZNKSt3__27codecvtIDsc11__mbstate_tE10do_unshiftERS1_PcS4_RS4_
Kha:__ZNKSt3__27codecvtIDic11__mbstate_tE10do_unshiftERS1_PcS4_RS4_
Lha:__ZNK12Section_line9PrintDataEP8_IO_FILE
Mha:__Z14SERIAL_DestroyP7Section
Nha:___lctrans_impl
Oha:__ZNKSt3__27codecvtIcc11__mbstate_tE10do_unshiftERS1_PcS4_RS4_
Pha:__ZL18KEYBOARD_SetPort60h
Qha:__Z9FPU_FLDCWj
Rha:__Z13SortByNameRevRKPN15DOS_Drive_Cache9CFileInfoES3_
Sha:__zip_buffer_get_16
Tha:___strdup
Uha:___DOUBLE_BITS_638
Vha:__ZN9CKeyEventC2EPKc8KBD_KEYS
Wha:__ZN8fatDrive17getClustFirstSectEj
Xha:__ZN12MixerChannel9SetVolumeEff
Yha:__ZN10DOS_Device5CloseEv
Zha:__ZL10EA_32_05_nv_426
_ha:__Z17PIC_DeActivateIRQj
$ha:__Z15GFX_ResetScreenv
aia:__Z12OPL_ShutDownP7Section
bia:__ZNSt3__26localeC2ERKS0_
cia:__ZNK12_GLOBAL__N_116itanium_demangle14PODSmallVectorIPNS0_24ForwardTemplateReferenceELm4EE4sizeEv
dia:__ZN12_GLOBAL__N_116itanium_demangle14PODSmallVectorIPNS0_4NodeELm32EE8dropBackEm
eia:__Z8OPL_InitP7Section8OPL_Mode
fia:__Z15MSCDEX_ShutDownP7Section
gia:__Z15MSCDEX_AddDrivecPKcRh
hia:_compression_flags
iia:__ZN12CEventButton9BindColorEv
jia:__ZL15master_startIRQj
kia:_i64Add
lia:__ZN8Prop_int9SetMinMaxERK5ValueS2_
mia:__ZN11PageHandler14writew_checkedEjj
nia:__ZN11PageHandler14writed_checkedEjj
oia:__ZN11PageHandler14writeb_checkedEjj
pia:__Z17PAGING_SetDirBasej
qia:__Z16VESA_GetSVGAModeRt
ria:___DOUBLE_BITS
sia:__ZN9imageDisk11GetBiosTypeEv
tia:__ZN9Prop_pathD2Ev
uia:__ZN12_GLOBAL__N_112OutputStream5resetEPcm
via:__ZL11FPU_FST_F32j
wia:__Z16CAPTURE_AddImagejjjjjfPhS_
xia:__ZN11PageHandler6writebEjj
yia:__ZL19Serial_EventHandlerj
zia:__ZNK5ValuecviEv
Aia:__ZN10DmaChannel10DoCallBackE8DMAEvent
Bia:__ZL21TandyDAC_DMA_CallBackP10DmaChannel8DMAEvent
Cia:__Z7Restartb
Dia:__Z14VGA_SetModeNow8VGAModes
Eia:dynCall_iiiii
Fia:__ZNK5Valuecv3HexEv
Gia:__ZN8DOS_FileC2Ev
Hia:__ZN7CSerial5clearEh
Iia:__ZL8FPU_FSINv
Jia:__ZL8FPU_FCOSv
Kia:__Z27DOS_KeyboardLayout_ShutDownP7Section
Lia:__ZN9CModEventC2EPKcj
Mia:__ZN15keyboard_layout18read_keyboard_fileEPKci
Nia:__ZN12DriveManager4InitEP7Section
Oia:__Z20TIMER_AddTickHandlerPFvvE
Pia:__Z11VGA_SetMode8VGAModes
Qia:__ZNSt3__28time_putIwNS_19ostreambuf_iteratorIwNS_11char_traitsIwEEEEED2Ev
Ria:__ZNSt3__28time_putIcNS_19ostreambuf_iteratorIcNS_11char_traitsIcEEEEED2Ev
Sia:__ZN7CSerial4riseEh
Tia:__ZN5MIXER8ListMidiEv
Uia:__ZL20set_clock_index_et3kj
Via:__ZNKSt3__28numpunctIwE11do_groupingEv
Wia:__ZNKSt3__28numpunctIcE11do_groupingEv
Xia:__ZNK12_GLOBAL__N_116itanium_demangle12NodeOrString8isStringEv
Yia:__ZN12_GLOBAL__N_116itanium_demangle9NodeArrayC2EPPNS0_4NodeEm
Zia:__ZL14DSP_ChangeMode9DSP_MODES
_ia:__zip_ef_free
$ia:__ZZ4mainENK3__1clEiPK32EmscriptenPointerlockChangeEventPv
aja:__ZN13CJButtonEvent6ActiveEb
bja:__ZL10write_p3c8jjj
cja:__Z15write_p3cd_et4kjjj
dja:__ZNSt3__210__time_putD2Ev
eja:__ZNK12_GLOBAL__N_116itanium_demangle12NodeOrString6isNodeEv
fja:__ZN15CStickBindGroup9BindStartEv
gja:__ZN12_GLOBAL__N_116itanium_demangle14PODSmallVectorIPNS0_4NodeELm32EE8pop_backEv
hja:___cxx_global_var_init_1410
ija:__ZNK12_GLOBAL__N_116itanium_demangle14PODSmallVectorIPNS0_24ForwardTemplateReferenceELm4EE8isInlineEv
jja:__ZN7DOS_FCB9FileCloseERh
kja:__ZN7CSerial8Read_IEREv
lja:__ZN15VGA_LFB_Handler13GetHostReadPtEj
mja:__ZL10write_p3c7jjj
nja:__ZN3LOGclEPKcddddddd
oja:__ZN16TaskStateSegment8Get_backEv
pja:__ZN12_GLOBAL__N_116DefaultAllocator17allocateNodeArrayEm
qja:__ZN11PageHandler5readbEj
rja:__ZL17MPU401_ReadStatusjj
sja:b11
tja:_zip_fopen_index
uja:__zip_buffer_put_8
vja:__ZN12MixerChannel15AddSamples_s16uEjPKt
wja:__ZN12MixerChannel15AddSamples_m16uEjPKt
xja:__ZN10Descriptor11GetSelectorEv
yja:__Z24INT10_TeletypeOutputAttrhhb
zja:__Z19TANDYSOUND_ShutDownP7Section
Aja:__zip_string_write
Bja:__zip_string_crc32
Cja:__ZN13DmaController10GetChannelEh
Dja:__ZN12MixerChannel14AddSamples_s8sEjPKa
Eja:__ZN12MixerChannel14AddSamples_s32EjPKi
Fja:__ZN12MixerChannel14AddSamples_s16EjPKs
Gja:__ZN12MixerChannel14AddSamples_m8sEjPKa
Hja:__ZN12MixerChannel14AddSamples_m32EjPKi
Ija:__ZN12MixerChannel14AddSamples_m16EjPKs
Jja:__Z18PCSPEAKER_ShutDownP7Section
Kja:__Z13XMS_EnableA20b
Lja:__ZZ4mainEN3__08__invokeEiPK20EmscriptenMouseEventPv
Mja:__ZN8DOS_File6IsNameEPKc
Nja:__ZN21VGA_TANDY_PageHandler14GetHostWritePtEj
Oja:__ZN12MixerChannel13AddSamples_s8EjPKh
Pja:__ZN12MixerChannel13AddSamples_m8EjPKh
Qja:__ZN11CJAxisEvent14RepostActivityEv
Rja:__ZL9FPU_FSUBRjj
Sja:__ZL9FPU_FDIVRjj
Tja:__ZL10EA_16_47_nv_321
Uja:__ZL10EA_16_46_nv_320
Vja:__ZL10EA_16_45_nv_319
Wja:__ZL10EA_16_44_nv_318
Xja:__Z24CloseSecondDMAControllerv
Yja:__Z17SBLASTER_ShutDownP7Section
Zja:__Z15SetClock_PVGA1Ajj
_ja:__Z15JOYSTICK_Buttonjjb
$ja:dynCall_viiii
aka:__ZZ4mainENK3__0clEiPK20EmscriptenMouseEventPv
bka:__ZN21VGA_TANDY_PageHandler13GetHostReadPtEj
cka:__ZL8FPU_FSUBjj
dka:__ZL8FPU_FMULjj
eka:__ZL8FPU_FDIVjj
fka:__ZL8FPU_FADDjj
gka:__ZL15DISNEY_ShutDownP7Section
hka:__Z16JOYSTICK_DestroyP7Section
ika:__Z16HARDWARE_DestroyP7Section
jka:__ZN7DOS_FCB7GetAttrERh
kka:__Z20INT10_TeletypeOutputhh
lka:__Z19MSCDEX_ReplaceDriveP15CDROM_Interfaceh
mka:__Z12DOS_SetDriveh
nka:_strtoull_l
oka:__ZNSt3__211char_traitsIcE7compareEPKcS3_m
pka:__ZN9DOS_DriveC2Ev
qka:__ZN5Adlib4ChipC2Ev
rka:__ZN16VGA_MMIO_Handler5readwEj
ska:__ZN16VGA_MMIO_Handler5readdEj
tka:__ZN16VGA_MMIO_Handler5readbEj
uka:__ZN16TaskStateSegment12SaveSelectorEv
vka:__ZN16CommandInterfaceC2Ev
wka:__Z14read_p3cd_et3kjj
xka:__Z14MPU401_DestroyP7Section
yka:__ZNK12_GLOBAL__N_116itanium_demangle14PODSmallVectorIPNS0_4NodeELm32EE4sizeEv
zka:__ZN14TSS_Descriptor6IsBusyEv
Aka:__ZL24DOSBOX_RunMachineNoSleepv_2921
Bka:__ZL17VESA_PMSetPalettev
Cka:__ZL12MEM_ShutDownP7Section
Dka:__ZL10EA_16_87_nv_329
Eka:__ZL10EA_16_86_nv_328
Fka:__ZL10EA_16_85_nv_327
Gka:__ZL10EA_16_84_nv_326
Hka:__Z6get_PFv
Ika:__Z13TIMER_DestroyP7Section
Jka:__Z10GFX_GetRGBhhh
Kka:_strtoll_l
Lka:_safe_create_dir
Mka:__ZNK12_GLOBAL__N_116itanium_demangle14PODSmallVectorIPNS0_4NodeELm8EE4sizeEv
Nka:__ZN7CSerial8setEventEtf
Oka:__ZN16VGA_PCJR_Handler14GetHostWritePtEj
Pka:__ZN16VGA_HERC_Handler14GetHostWritePtEj
Qka:__ZN14TSS_Descriptor5Is386Ev
Rka:__ZL24DOSBOX_RunMachineNoSleepv_633
Ska:__Z12XMS_ShutDownP7Section
Tka:__Z12MIDI_DestroyP7Section
Uka:__Z12GUS_ShutDownP7Section
Vka:__Z12EMS_ShutDownP7Section
Wka:__Z12DOS_ShutDownP7Section
Xka:__Z12CPU_ShutDownP7Section
Yka:__Z12CMS_ShutDownP7Section
Zka:__Z12CMOS_DestroyP7Section
_ka:__Z12BIOS_DestroyP7Section
$ka:__ZNSt3__212_GLOBAL__N_14makeINS_9money_putIwNS_19ostreambuf_iteratorIwNS_11char_traitsIwEEEEEEjEERT_T0_
ala:__ZNSt3__212_GLOBAL__N_14makeINS_9money_putIcNS_19ostreambuf_iteratorIcNS_11char_traitsIcEEEEEEjEERT_T0_
bla:__ZNSt3__212_GLOBAL__N_14makeINS_9money_getIwNS_19istreambuf_iteratorIwNS_11char_traitsIwEEEEEEjEERT_T0_
cla:__ZNSt3__212_GLOBAL__N_14makeINS_9money_getIcNS_19istreambuf_iteratorIcNS_11char_traitsIcEEEEEEjEERT_T0_
dla:__ZN15VGA_LFB_Handler14GetHostWritePtEj
ela:__ZN15DOS_Drive_Cache10ExpandNameEPc
fla:__Z11PIC_DestroyP7Section
gla:__Z11DMA_DestroyP7Section
hla:__zip_error_copy
ila:___wasi_syscall_ret
jla:__ZNK12_GLOBAL__N_116itanium_demangle14PODSmallVectorIPNS0_4NodeELm32EE5emptyEv
kla:__ZN7DOS_MCB11GetFileNameEPc
lla:__ZL10KillSwitchb
mla:__Z19DOS_GetLoadedLayoutv
nla:__Z10IO_DestroyP7Section
ola:__ZSt11__terminatePFvvE
pla:__ZNSt3__212_GLOBAL__N_14makeINS_7num_putIwNS_19ostreambuf_iteratorIwNS_11char_traitsIwEEEEEEjEERT_T0_
qla:__ZNSt3__212_GLOBAL__N_14makeINS_7num_putIcNS_19ostreambuf_iteratorIcNS_11char_traitsIcEEEEEEjEERT_T0_
rla:__ZNSt3__212_GLOBAL__N_14makeINS_7num_getIwNS_19istreambuf_iteratorIwNS_11char_traitsIwEEEEEEjEERT_T0_
sla:__ZNSt3__212_GLOBAL__N_14makeINS_7num_getIcNS_19istreambuf_iteratorIcNS_11char_traitsIcEEEEEEjEERT_T0_
tla:__ZN15keyboard_layout18main_language_codeEv
ula:__zip_entry_finalize
vla:__ZNSt3__211char_traitsIcE4moveEPcPKcm
wla:__ZN15MidiHandler_oss5CloseEv
xla:__ZN14PIC_Controller10deactivateEv
yla:__ZN10DmaChannel7SetMaskEb
zla:__ZN10Descriptor4TypeEv
Ala:__ZL24DOSBOX_RunMachineNoSleepv
Bla:__Z13CPU_Exceptionjj
Cla:_strtoll
Dla:__zip_source_invalidate
Ela:__ZNSt3__211char_traitsIcE4copyEPcPKcm
Fla:__ZN8isoDrive8ActivateEv
Gla:__ZN7CSerial11removeEventEt
Hla:__ZN12_GLOBAL__N_116itanium_demangle22AbstractManglingParserINS0_14ManglingParserINS_16DefaultAllocatorEEES3_E10getDerivedEv
Ila:__ZN12_GLOBAL__N_116itanium_demangle12NodeOrStringC2EPNS0_4NodeE
Jla:_get_algorithm
Kla:__ZN8Prop_intD2Ev
Lla:__ZN7Section16Function_wrapperC2EPFvPS_Eb
Mla:__ZN15DOS_Drive_Cache10IsCachedInEPNS_9CFileInfoE
Nla:__ZN10Descriptor3DPLEv
Ola:__ZN10Descriptor3BigEv
Pla:__ZL16write_cms_detectjjj
Qla:__ZZN12_GLOBAL__N_116itanium_demangle13ParameterPackC1ENS0_9NodeArrayEENKUlPNS0_4NodeEE1_clES4_
Rla:__ZZN12_GLOBAL__N_116itanium_demangle13ParameterPackC1ENS0_9NodeArrayEENKUlPNS0_4NodeEE0_clES4_
Sla:__ZNSt3__217_DeallocateCaller27__do_deallocate_handle_sizeEPvm
Tla:__ZNSt3__215basic_streambufIcNS_11char_traitsIcEEED0Ev
Ula:__Z8CPU_LIDTjj
Vla:__Z8CPU_LGDTjj
Wla:__Z16VESA_SetSVGAModet
Xla:__ZZN12_GLOBAL__N_116itanium_demangle13ParameterPackC1ENS0_9NodeArrayEENKUlPNS0_4NodeEE_clES4_
Yla:__ZN4OPL37Handler9WriteAddrEjh
Zla:__ZN20CDROM_Interface_Fake14GetAudioStatusERbS0_
_la:__Z20CPU_Reset_AutoAdjustv
$la:__ZNSt3__26locale2id6__initEv
ama:__ZNSt3__214basic_ifstreamIcNS_11char_traitsIcEEED0Ev
bma:__ZN11MixerObjectD2Ev
cma:__ZL8FPU_FLDZv
dma:__ZNSt3__26locale5facet16__on_zero_sharedEv
ema:b10
fma:_zip_source_supports
gma:__ZNSt3__213basic_ostreamIcNS_11char_traitsIcEEED0Ev
hma:__ZNSt3__213basic_istreamIcNS_11char_traitsIcEEED0Ev
ima:__ZNSt3__213basic_filebufIcNS_11char_traitsIcEEED0Ev
jma:__ZNSt3__210__list_impIP8PropertyNS_9allocatorIS2_EEED2Ev
kma:__ZNSt11logic_errorC2EPKc
lma:__ZNK12_GLOBAL__N_116itanium_demangle14PODSmallVectorIPNS0_4NodeELm32EE8isInlineEv
mma:__ZN8DOS_File9RemoveRefEv
nma:__ZN12_GLOBAL__N_110StringViewC2EPKcS2_
oma:__ZL21VGA_DisplayStartLatchj
pma:dynCall_iiii
qma:_strtoull
rma:__zip_unicode_to_utf8_len
sma:__ZNSt3__214__ptr_in_rangeIwEEbPKT_S3_S3_
tma:__ZNSt3__214__ptr_in_rangeIcEEbPKT_S3_S3_
uma:__ZNK12_GLOBAL__N_116itanium_demangle14PODSmallVectorIPNS0_4NodeELm8EE8isInlineEv
vma:__ZN7DOS_FCB7SetAttrEh
wma:__ZN12_GLOBAL__N_114SwapAndRestoreIbED2Ev
xma:__ZN12_GLOBAL__N_114SwapAndRestoreIPKcED2Ev
yma:__ZN12_GLOBAL__N_110StringViewC2EPKc
zma:__Z18JOYSTICK_GetMove_Yj
Ama:__Z18JOYSTICK_GetMove_Xj
Bma:__ZNSt3__29money_putIwNS_19ostreambuf_iteratorIwNS_11char_traitsIwEEEEED0Ev
Cma:__ZNSt3__29money_putIcNS_19ostreambuf_iteratorIcNS_11char_traitsIcEEEEED0Ev
Dma:__ZNSt3__29money_getIwNS_19istreambuf_iteratorIwNS_11char_traitsIwEEEEED0Ev
Ema:__ZNSt3__29money_getIcNS_19istreambuf_iteratorIcNS_11char_traitsIcEEEEED0Ev
Fma:__ZNSt3__210__list_impIP7SectionNS_9allocatorIS2_EEED2Ev
Gma:__ZN10cdromDrive10FileCreateEPP8DOS_FilePct
Hma:__ZNSt3__28time_getIwNS_19istreambuf_iteratorIwNS_11char_traitsIwEEEEED0Ev
Ima:__ZNSt3__28time_getIcNS_19istreambuf_iteratorIcNS_11char_traitsIcEEEEED0Ev
Jma:__ZN12_GLOBAL__N_120BumpPointerAllocatorC2Ev
Kma:__ZN12_GLOBAL__N_114SwapAndRestoreIjED2Ev
Lma:__Z13AUTOEXEC_InitP7Section
Mma:_zip_source_compress
Nma:__zip_buffer_size
Oma:__ZNSt3__27num_putIwNS_19ostreambuf_iteratorIwNS_11char_traitsIwEEEEED0Ev
Pma:__ZNSt3__27num_putIcNS_19ostreambuf_iteratorIcNS_11char_traitsIcEEEEED0Ev
Qma:__ZNSt3__27num_getIwNS_19istreambuf_iteratorIwNS_11char_traitsIwEEEEED0Ev
Rma:__ZNSt3__27num_getIcNS_19istreambuf_iteratorIcNS_11char_traitsIcEEEEED0Ev
Sma:__ZNSt3__26locale5__imp12make_classicEv
Tma:_zip_error_set
Uma:__ZNK12_GLOBAL__N_116itanium_demangle9NodeArrayixEm
Vma:__ZN8isoDrive10FileCreateEPP8DOS_FilePct
Wma:__ZN6MyFifo7setSizeEj
Xma:__ZN5DBOPL7Handler9WriteAddrEjh
Yma:__ZN11CommandLine11GetFileNameEv
Zma:__ZL9FPU_F2XM1v
_ma:_strchr
$ma:_fputs
ana:__ZNSt3__215basic_streambufIcNS_11char_traitsIcEEE9pbackfailEi
bna:__ZNSt3__210__list_impIP5CBindNS_9allocatorIS2_EEED2Ev
cna:__ZN12_GLOBAL__N_116itanium_demangleoRERNS0_10QualifiersES1_
dna:__ZL10EA_32_47_nv_345
ena:__ZL10EA_32_46_nv_344
fna:__ZL10EA_32_45_nv_343
gna:__ZL10EA_32_43_nv_341
hna:__ZL10EA_32_42_nv_340
ina:__ZL10EA_32_41_nv_339
jna:__ZL10EA_32_40_nv_338
kna:_getpid
lna:__ZNSt3__215basic_streambufIcNS_11char_traitsIcEEE8overflowEi
mna:__ZN6Events12write_stdoutEPKcm
nna:__ZN20CDROM_Interface_Fake11ReadSectorsEjbmm
ona:__ZN16DOS_DeviceHeader7SetNameEPKc
pna:__ZN12_GLOBAL__N_116itanium_demangle14PODSmallVectorIPNS0_24ForwardTemplateReferenceELm4EE5beginEv
qna:__Z9OPL_Writejjj
rna:__Z21IMGMOUNT_ProgramStartPP7Program
sna:__Z21BIOS_ZeroExtendedSizeb
tna:__ZNSt3__215basic_streambufIcNS_11char_traitsIcEEED2Ev
una:__ZNSt3__211char_traitsIwE4moveEPwPKwm
vna:__ZN7DOS_FCB17ClearBlockRecsizeEv
wna:__ZN5ValueC2ERKS_
xna:__ZN13device_MSCDEXC2Ev
yna:__ZN12_GLOBAL__N_116itanium_demangle14PODSmallVectorIPNS0_4NodeELm8EE5clearEv
zna:__ZL20LOADROM_ProgramStartPP7Program
Ana:__ZL20LOADFIX_ProgramStartPP7Program
Bna:__ZL18SHELL_ProgramStartPP7Program
Cna:__zip_entry_init
Dna:___syscall_ret
Ena:__ZNSt3__211char_traitsIwE6assignEPwmw
Fna:__ZNSt3__211char_traitsIwE4copyEPwPKwm
Gna:__ZNK12_GLOBAL__N_116itanium_demangle4Node11getBaseNameEv
Hna:__ZNK12_GLOBAL__N_116itanium_demangle16FunctionEncoding19hasRHSComponentSlowERNS_12OutputStreamE
Ina:__ZN6Events11shell_inputEPci
Jna:__ZN5DBOPL7Handler8WriteRegEjh
Kna:__Z18JOYSTICK_IsEnabledj
Lna:__Z11PAGING_InitP7Section
Mna:_wcslen
Nna:___ctype_get_mb_cur_max
Ona:__ZNSt3__28ios_base33__set_badbit_and_consider_rethrowEv
Pna:__ZN11device_LPT1C2Ev
Qna:__ZL19RESCAN_ProgramStartPP7Program
Rna:__ZL19CONFIG_ProgramStartPP7Program
Sna:__ZL11FPU_FLD_I16jj
Tna:_zip_get_name
Una:_free_list
Vna:__ZN9MemStruct5SetPtEtt
Wna:__ZN5DBOPL7Handler4InitEj
Xna:__ZN12MixerChannel8SetScaleEf
Yna:__ZN10device_NULC2Ev
Zna:dynCall_viii
_na:__zip_string_free
$na:___cxx_global_var_init
aoa:__ZL18MOUNT_ProgramStartPP7Program
boa:__ZL18MIXER_ProgramStartPP7Program
coa:__ZL18INTRO_ProgramStartPP7Program
doa:__ZL11FPU_FLD_F80j
eoa:__Z13SetClock_ET4Kjj
foa:__Z13SetClock_ET3Kjj
goa:___cxa_is_pointer_type
hoa:__ZNK12_GLOBAL__N_116itanium_demangle16FunctionEncoding15hasFunctionSlowERNS_12OutputStreamE
ioa:__ZNK12_GLOBAL__N_116itanium_demangle12FunctionType19hasRHSComponentSlowERNS_12OutputStreamE
joa:__ZNK10jsonstream5c_strEv
koa:__ZN7DOS_MCB11SetFileNameEPKc
loa:__ZN5DBOPL7HandlerC2Ev
moa:__ZN5Adlib5TimerC2Ev
noa:__ZN3LOGclEPKcddddd
ooa:__Z23CALLBACK_GetDescriptionj
poa:__zip_source_set_source_archive
qoa:__zip_buffer_get_8
roa:__ZNK7Section7GetNameEv
soa:__ZN8fatDrive13getSectorSizeEv
toa:__ZN6CEventD2Ev
uoa:__ZN13DOS_InfoBlock18SetStartOfUMBChainEt
voa:__ZN10localDrive7UnMountEv
woa:__ZL17WGET_ProgramStartPP7Program
xoa:__ZL17KEYB_ProgramStartPP7Program
yoa:__ZL17BOOT_ProgramStartPP7Program
zoa:__ZL15DSP_FinishResetj
Aoa:__Z20MSCDEX_GetVolumeNamehPc
Boa:__zip_get_encryption_implementation
Coa:__zip_buffer_free
Doa:__ZL19Mixer_irq_importantv
Eoa:__Z8CMS_InitP7Section
Foa:stackAlloc
Goa:_close
Hoa:__ZNSt3__29money_putIwNS_19ostreambuf_iteratorIwNS_11char_traitsIwEEEEED2Ev
Ioa:__ZNSt3__29money_putIcNS_19ostreambuf_iteratorIcNS_11char_traitsIcEEEEED2Ev
Joa:__ZNSt3__29money_getIwNS_19istreambuf_iteratorIwNS_11char_traitsIwEEEEED2Ev
Koa:__ZNSt3__29money_getIcNS_19istreambuf_iteratorIcNS_11char_traitsIcEEEEED2Ev
Loa:__ZNKSt3__26vectorINS_12basic_stringIcNS_11char_traitsIcEENS_9allocatorIcEEEENS4_IS6_EEE8max_sizeEv
Moa:__ZNKSt3__26locale5__imp9use_facetEl
Noa:__ZN12CSerialDummyD2Ev
Ooa:__ZN11CJAxisEvent16GetActivityCountEv
Poa:__ZL9FPU_FSQRTv
Qoa:__ZL16MEM_ProgramStartPP7Program
Roa:__Z23DOS_SetMemAllocStrategyt
Soa:__ZNSt3__28time_getIwNS_19istreambuf_iteratorIwNS_11char_traitsIwEEEEED2Ev
Toa:__ZNSt3__28time_getIcNS_19istreambuf_iteratorIcNS_11char_traitsIcEEEEED2Ev
Uoa:__ZNK12_GLOBAL__N_116itanium_demangle9NodeArray3endEv
Voa:__ZNK12_GLOBAL__N_116itanium_demangle9ArrayType19hasRHSComponentSlowERNS_12OutputStreamE
Woa:__ZNK12_GLOBAL__N_116itanium_demangle12FunctionType15hasFunctionSlowERNS_12OutputStreamE
Xoa:__ZN8fatDrive7UnMountEv
Yoa:__ZN5ValueC2Eb
Zoa:__ZN22VGA_ChainedEGA_Handler11readHandlerEj
_oa:__ZL7isvalidc
$oa:__ZL20get_clock_index_et4kv
apa:__Z18KEYBOARD_ClrBufferv
bpa:__ZNSt3__28ios_base5clearEj
cpa:__ZNSt3__27num_putIwNS_19ostreambuf_iteratorIwNS_11char_traitsIwEEEEED2Ev
dpa:__ZNSt3__27num_putIcNS_19ostreambuf_iteratorIcNS_11char_traitsIcEEEEED2Ev
epa:__ZNSt3__27num_getIwNS_19istreambuf_iteratorIwNS_11char_traitsIwEEEEED2Ev
fpa:__ZNSt3__27num_getIcNS_19istreambuf_iteratorIcNS_11char_traitsIcEEEEED2Ev
gpa:__ZN6MyFifo5clearEv
hpa:__ZN21CDROM_Interface_Image10BinaryFileD0Ev
ipa:__ZN16DOS_DeviceHeader14SetNumSubUnitsEh
jpa:__ZN16DOS_DeviceHeader14SetDriveLetterEh
kpa:__ZN13DOS_InfoBlock16SetUMBChainStateEh
lpa:__ZL8FPU_FABSv
mpa:__ZL11FPU_FST_I32j
npa:__ZL11FPU_FST_I16j
opa:__Z9read_p3c0jj
ppa:_strpbrk
qpa:__ZNSt3__212_GLOBAL__N_14makeINS_7codecvtIwc11__mbstate_tEEjEERT_T0_
rpa:__ZNKSt3__25ctypeIwE9do_narrowEwc
spa:__ZN22CALLBACK_HandlerObject15Get_RealPointerEv
tpa:__ZN16DOS_DeviceHeader12SetInterruptEt
upa:__ZN16DOS_DeviceHeader12SetAttributeEt
vpa:__ZN12DriveManager9DriveInfoC2Ev
wpa:__ZL8FPU_FPOPv
xpa:dynCall_vidi
ypa:b9
zpa:__ZNKSt3__25ctypeIcE9do_narrowEcc
Apa:__ZN5ValueC2Ei
Bpa:__ZN22CALLBACK_HandlerObjectC2Ev
Cpa:__ZN16DOS_DeviceHeader19SetNextDeviceHeaderEj
Dpa:__ZN16DOS_DeviceHeader11SetStrategyEt
Epa:__ZL16EMM_GetFreePagesv
Fpa:__ZL10EA_32_87_nv_353
Gpa:__ZL10EA_32_86_nv_352
Hpa:__ZL10EA_32_85_nv_351
Ipa:__ZL10EA_32_83_nv_349
Jpa:__ZL10EA_32_82_nv_348
Kpa:__ZL10EA_32_81_nv_347
Lpa:__ZL10EA_32_80_nv_346
Mpa:__Z7em_exiti
Npa:__Z19SVGA_S3_AcceptsModej
Opa:__Z15MAPPER_RunEventj
Ppa:__Z15JOYSTICK_Enablejb
Qpa:_zip_source_decompress
Rpa:__ZNSt3__26locale5__imp11make_globalEv
Spa:__ZNSt3__215basic_streambufIcNS_11char_traitsIcEEE6setbufEPcl
Tpa:__ZN9CKeyEvent6ActiveEb
Upa:__ZN7CMscdex8HasDriveEt
Vpa:__ZN13DOS_InfoBlock19SetDiskBufferHeadPtEj
Wpa:__ZN10__cxxabiv123__fundamental_type_infoD0Ev
Xpa:__Z18AcceptsMode_PVGA1Aj
Ypa:__Z15MSCDEX_HasDrivec
Zpa:__Z15JOYSTICK_Move_Yjf
_pa:__Z15JOYSTICK_Move_Xjf
$pa:__ZNK12_GLOBAL__N_116itanium_demangle4Node19hasRHSComponentSlowERNS_12OutputStreamE
aqa:__ZN16VGA_PCJR_Handler13GetHostReadPtEj
bqa:__ZN13DOS_InfoBlock19SetDeviceChainStartEj
cqa:__ZN13DOS_InfoBlock11SetFirstMCBEt
dqa:__ZN10jsonstreamD2Ev
eqa:b8
fqa:b2
gqa:_swapc
hqa:__ZNK12_GLOBAL__N_116itanium_demangle4Node13getSyntaxNodeERNS_12OutputStreamE
iqa:__ZN7DOS_FCB9GetRandomERj
jqa:__ZN13Virtual_Drive10FileCreateEPP8DOS_FilePct
kqa:__ZN12_GLOBAL__N_116itanium_demangle12NodeOrStringC2Ev
lqa:__ZN10__cxxabiv121__vmi_class_type_infoD0Ev
mqa:__ZN10DmaChannel9ReachedTCEv
nqa:__ZL9read_datajj
oqa:__Z16AcceptsMode_ET4Kj
pqa:___udivdi3
qqa:__ZNSt3__215basic_streambufIcNS_11char_traitsIcEEE9underflowEv
rqa:__ZNK12_GLOBAL__N_116itanium_demangle9ArrayType12hasArraySlowERNS_12OutputStreamE
sqa:__ZN4OPL37Handler8WriteRegEjh
tqa:__ZN4OPL27Handler8WriteRegEjh
uqa:__ZN16CContinuousEventC2EPKc
vqa:__ZN11Module_baseC2EP7Section
wqa:__ZN10device_NUL22ReadFromControlChannelEjtPt
xqa:__ZN10device_CON22ReadFromControlChannelEjtPt
yqa:__ZN10__cxxabiv120__si_class_type_infoD0Ev
zqa:__ZL11FPU_FLD_I32jj
Aqa:__ZNSt3__212_GLOBAL__N_14makeINS_7codecvtIDsc11__mbstate_tEEjEERT_T0_
Bqa:__ZNSt3__212_GLOBAL__N_14makeINS_7codecvtIDic11__mbstate_tEEjEERT_T0_
Cqa:__ZN7DOS_DTA15SetDirIDClusterEt
Dqa:__ZN15CTriggeredEventC2EPKc
Eqa:__ZN12_GLOBAL__N_116itanium_demangle14PODSmallVectorIPNS0_4NodeELm32EE3endEv
Fqa:__ZN12DriveManager9DriveInfoD2Ev
Gqa:__ZN10device_NUL21WriteToControlChannelEjtPt
Hqa:__ZN10device_EMM21WriteToControlChannelEjtPt
Iqa:__ZN10device_CON21WriteToControlChannelEjtPt
Jqa:__ZN10__cxxabiv119__pointer_type_infoD0Ev
Kqa:___cxa_guard_release
Lqa:__ZNSt3__27codecvtIwc11__mbstate_tED0Ev
Mqa:__ZNSt3__212_GLOBAL__N_14makeINS_7codecvtIcc11__mbstate_tEEjEERT_T0_
Nqa:__ZNSt11logic_errorD2Ev
Oqa:__ZNK12_GLOBAL__N_116itanium_demangle4Node15hasFunctionSlowERNS_12OutputStreamE
Pqa:__ZN7DOS_PSP14SetEnvironmentEt
Qqa:__ZN13DOS_InfoBlock15SetCurDirStructEj
Rqa:__ZN13CHandlerEvent6ActiveEb
Sqa:__ZN12_GLOBAL__N_120BumpPointerAllocatorD2Ev
Tqa:__ZN12_GLOBAL__N_116itanium_demangle14PODSmallVectorIPNS0_4NodeELm8EE3endEv
Uqa:__ZN12_GLOBAL__N_112OutputStream18setCurrentPositionEm
Vqa:__ZL23VGA_Other_VertInterruptj
Wqa:_out
Xqa:_mbrlen
Yqa:___emscripten_stdout_seek
Zqa:__ZNKSt3__29__num_getIcE12__do_widen_pERNS_8ios_baseEPc
_qa:__ZN5ValueC2E3Hex
$qa:__ZN12_GLOBAL__N_116itanium_demangle9NodeArrayC2Ev
ara:__ZN12_GLOBAL__N_116itanium_demangle14PODSmallVectorIPNS0_4NodeELm32EE5beginEv
bra:__ZN10__cxxabiv117__class_type_infoD0Ev
cra:__ZN10DOS_DeviceC2Ev
dra:__ZN12_GLOBAL__N_116itanium_demangle14PODSmallVectorIPNS0_4NodeELm8EE5beginEv
era:__ZL8read_p61jj
fra:__ZL15illegal_handlerv
gra:dynCall_iii
hra:b19
ira:_llvm_bswap_i32
jra:_fseek
kra:__ZNK12_GLOBAL__N_116itanium_demangle4Node12hasArraySlowERNS_12OutputStreamE
lra:__ZL10FPU_FLDL2Ev
mra:__zip_error_set_from_source
nra:__ZNSt3__211char_traitsIcE6assignERcRKc
ora:__ZN5DBOPL7Channel2OpEj
pra:__ZN15DOS_Drive_Cache10SetDirSortENS_8TDirSortE
qra:__ZN14RAMPageHandler14GetHostWritePtEj
rra:__ZN13DOS_InfoBlock18GetStartOfUMBChainEv
sra:__ZN13DOS_InfoBlock11SetFCBTableEj
tra:__ZN10copysourceD2Ev
ura:__ZL8OPL_Readjj
vra:__ZL11RENDER_Haltv
wra:__ZL10FPU_FLDLN2v
xra:__ZL10FPU_FLDLG2v
yra:__ZL10FPU_FLDL2Tv
zra:__Z11PS2_Handlerv
Ara:___cxa_guard_acquire
Bra:__ZNK12_GLOBAL__N_110StringView5emptyEv
Cra:__ZN7DOS_PSPC2Et
Dra:__ZN4WGET17downloadSucceededEP18emscripten_fetch_t
Era:__ZN21CDROM_Interface_Image10PauseAudioEb
Fra:__ZN14RAMPageHandler13GetHostReadPtEj
Gra:__ZL8FPU_FCHSv
Hra:__ZL19VGA_Memory_ShutDownP7Section
Ira:__Z14read_p3cd_et4kjj
Jra:__ZNSt3__212_GLOBAL__N_14makeINS_5ctypeIcEEDnbjEERT_T0_T1_T2_
Kra:__ZNSt3__212_GLOBAL__N_14makeINS_10moneypunctIwLb1EEEjEERT_T0_
Lra:__ZNSt3__212_GLOBAL__N_14makeINS_10moneypunctIwLb0EEEjEERT_T0_
Mra:__ZNSt3__212_GLOBAL__N_14makeINS_10moneypunctIcLb1EEEjEERT_T0_
Nra:__ZNSt3__212_GLOBAL__N_14makeINS_10moneypunctIcLb0EEEjEERT_T0_
Ora:__ZNSt3__211char_traitsIwE6assignERwRKw
Pra:__ZN7DOS_PSP9SetParentEt
Qra:__ZL9FPU_FLDPIv
Rra:__ZL8read_p92jj
Sra:__ZL23MSCDEX_Strategy_Handlerv
Tra:__ZL10EA_16_03_nv_400
Ura:__ZL10EA_16_03_nv_309
Vra:__ZL10EA_16_02_nv_399
Wra:__ZL10EA_16_02_nv_308
Xra:__ZL10EA_16_01_nv_398
Yra:__ZL10EA_16_01_nv_307
Zra:__ZL10EA_16_00_nv_397
_ra:__ZL10EA_16_00_nv_306
$ra:__Z20CPU_PrepareExceptionjj
asa:__Z17DOSBOX_RunMachinev
bsa:__ZNKSt3__28ios_base6getlocEv
csa:__ZNK12_GLOBAL__N_116itanium_demangle4Node10printRightERNS_12OutputStreamE
dsa:__ZNK12_GLOBAL__N_110StringView4sizeEv
esa:__ZN9MemStruct5SetPtEj
fsa:__ZN8fatDrive12GetMediaByteEv
gsa:__ZN7DOS_MCB9SetPSPSegEt
hsa:__ZN7DOS_DTA8SetDirIDEt
isa:__ZN7CButton6EnableEb
jsa:__ZN12_GLOBAL__N_112OutputStreamC2Ev
ksa:_fileno
lsa:___stdio_close
msa:__ZNKSt3__26vectorIPNS_6locale5facetENS_15__sso_allocatorIS3_Lm28EEEE8max_sizeEv
nsa:__ZNKSt3__26vectorIPN15DOS_Drive_Cache9CFileInfoENS_9allocatorIS3_EEE8max_sizeEv
osa:__ZNKSt3__26vectorIN21CDROM_Interface_Image5TrackENS_9allocatorIS2_EEE8max_sizeEv
psa:__ZN7DOS_SDAC2Ett
qsa:__ZN4WGET14downloadFailedEP18emscripten_fetch_t
rsa:__ZN16DOS_DeviceHeader14GetNumSubUnitsEv
ssa:__ZN13DOS_InfoBlock16GetUMBChainStateEv
tsa:__ZN12_GLOBAL__N_116DefaultAllocatorD2Ev
usa:__ZN12_GLOBAL__N_116DefaultAllocatorC2Ev
vsa:__ZN10cdromDrive6RenameEPcS0_
wsa:_vfprintf
xsa:__ZNKSt3__28time_getIwNS_19istreambuf_iteratorIwNS_11char_traitsIwEEEEE13do_date_orderEv
ysa:__ZNKSt3__28time_getIcNS_19istreambuf_iteratorIcNS_11char_traitsIcEEEEE13do_date_orderEv
zsa:__ZNK12_GLOBAL__N_116itanium_demangle9NodeArray5emptyEv
Asa:__ZN7DOS_SDA8SetDriveEh
Bsa:__ZN7DOS_SDA6SetPSPEt
Csa:__ZN7DOS_PSP7SetSizeEt
Dsa:__ZN7DOS_MCB7SetSizeEt
Esa:__ZN6MyFifo9probeByteEv
Fsa:__ZN10__cxxabiv112_GLOBAL__N_115set_initializedEPj
Gsa:__Z13MEM_BlockCopyjjj
Hsa:_zip_error_init
Isa:__zip_dirent_new
Jsa:__ZN7CSerial11receiveByteEh
Ksa:__ZN20CDROM_Interface_FakeC2Ev
Lsa:__ZN11device_LPT14ReadEPhPt
Msa:__ZL8FPU_PUSHd
Nsa:__ZL22write_crtc_index_otherjjj
Osa:___cxx_global_var_init_4
Psa:__ZNSt3__27codecvtIDsc11__mbstate_tED0Ev
Qsa:__ZNSt3__27codecvtIDic11__mbstate_tED0Ev
Rsa:__ZNSt3__217__widen_from_utf8ILm32EED0Ev
Ssa:__ZNSt3__215basic_streambufIcNS_11char_traitsIcEEE5imbueERKNS_6localeE
Tsa:__ZN8isoDrive6RenameEPcS0_
Usa:__ZN7DOS_MCB7SetTypeEh
Vsa:__ZL10EA_16_03_nv
Wsa:__ZL10EA_16_02_nv
Xsa:__ZL10EA_16_01_nv
Ysa:__ZL10EA_16_00_nv
Zsa:b7
_sa:___loc_is_allocated
$sa:__ZNSt3__27codecvtIcc11__mbstate_tED0Ev
ata:__ZNSt3__216__narrow_to_utf8ILm32EED0Ev
bta:__ZNSt3__211char_traitsIcE2eqEcc
cta:__ZN9DOS_DriveD2Ev
dta:__ZN8DOS_File6AddRefEv
eta:__ZN5ValueC2Ev
fta:__ZN10Descriptor9GetOffsetEv
gta:__ZL17SN76496_set_clocki
hta:__ZNSt3__212_GLOBAL__N_14makeINS_8messagesIwEEjEERT_T0_
ita:__ZNSt3__212_GLOBAL__N_14makeINS_8messagesIcEEjEERT_T0_
jta:__ZL19VGA_DAC_UpdateColorj
kta:dynCall_vii
lta:_wctomb
mta:__zip_error_clear
nta:__ZNSt3__215__refstring_imp12_GLOBAL__N_113data_from_repEPNS1_9_Rep_baseE
ota:__ZNSt3__212_GLOBAL__N_14makeINS_7collateIwEEjEERT_T0_
pta:__ZNSt3__212_GLOBAL__N_14makeINS_7collateIcEEjEERT_T0_
qta:__ZNSt3__211char_traitsIwE11eq_int_typeEjj
rta:__ZNSt3__211char_traitsIcE11eq_int_typeEii
sta:__ZN7isoFile5CloseEv
tta:__ZN7DOS_FCB9SetRandomEj
uta:__ZN3LOGclEPKcddS1_
vta:__ZN21CDROM_Interface_Image9StopAudioEv
wta:__ZN10device_CON4SeekEPjj
xta:__ZN10device_COM4SeekEPjj
yta:__ZL10EA_16_06_nv_312
zta:__Z10trimStringPc
Ata:b6
Bta:_zip_error_fini
Cta:_vsprintf
Dta:__ZN7DOS_PSP8SetStackEj
Eta:__ZN7DOS_DTA15GetDirIDClusterEv
Fta:__ZN3HexeqERKS_
Gta:__ZN20CDROM_Interface_Fake15PlayAudioSectorEmm
Hta:__ZN11CJAxisEvent15SetOppositeAxisEPS_
Ita:__ZL16adlib_gusforwardjjj
Jta:__Z11FPU_ESC6_EAjj
Kta:__Z11FPU_ESC4_EAjj
Lta:__Z11FPU_ESC2_EAjj
Mta:__Z11FPU_ESC0_EAjj
Nta:_strerror
Ota:__ZNSt3__212_GLOBAL__N_14makeINS_5ctypeIwEEjEERT_T0_
Pta:__ZNKSt11logic_error4whatEv
Qta:__ZNK12_GLOBAL__N_110StringViewixEm
Rta:__ZN7DOS_PSP14GetEnvironmentEv
Sta:__ZN21CDROM_Interface_ImageD0Ev
Tta:__ZN16TaskStateSegmentC2Ev
Uta:__ZN12_GLOBAL__N_116itanium_demangle27ExpandedSpecialSubstitutionD0Ev
Vta:__ZL15VESA_PMSetStartv
Wta:__Z11cmos_selregjjj
Xta:___cxa_pure_virtual
Yta:__ZNSt3__212_GLOBAL__N_14makeINS_6locale5__impEjEERT_T0_
Zta:__ZN7DOS_SDA6SetDTAEj
_ta:__ZN12_GLOBAL__N_110StringViewC2Ev
$ta:__ZL10write_p3cejjj
aua:_zip_source_keep
bua:_decompress_allocate
cua:__ZNSt3__210moneypunctIwLb1EED0Ev
dua:__ZNSt3__210moneypunctIwLb0EED0Ev
eua:__ZNSt3__210moneypunctIcLb1EED0Ev
fua:__ZNSt3__210moneypunctIcLb0EED0Ev
gua:__ZN8fatDrive8FileStatEPKcP14FileStat_Block
hua:__ZN10DOS_Device15SetDeviceNumberEj
iua:_strncpy
jua:_closedir
kua:__ZNSt3__212_GLOBAL__N_14makeINS_8numpunctIwEEjEERT_T0_
lua:__ZNSt3__212_GLOBAL__N_14makeINS_8numpunctIcEEjEERT_T0_
mua:__ZNK12_GLOBAL__N_116itanium_demangle12NodeOrString6asNodeEv
nua:__ZN9DOS_Drive10EmptyCacheEv
oua:__ZN8DOS_FileD2Ev
pua:__ZN7DOS_DTA14GetSearchDriveEv
qua:__ZN6MyFifo6isFullEv
rua:__ZN3LOGclEPKcddd
sua:__ZN12_GLOBAL__N_116itanium_demangle24ForwardTemplateReferenceD0Ev
tua:__Z14vga_write_p3d4jjj
uua:__Z14getSwapRequestv
vua:_zcalloc
wua:_compress_allocate
xua:__zip_string_length
yua:___cxx_global_var_init_1_2209
zua:__ZNSt3__212_GLOBAL__N_17countofIwEEmPKT_S4_
Aua:__ZNK12_GLOBAL__N_112OutputStream18getCurrentPositionEv
Bua:__ZN9imageDiskD2Ev
Cua:__ZN9BatchFile5ShiftEv
Dua:__ZN4OPL27Handler9WriteAddrEjh
Eua:__ZN22CALLBACK_HandlerObjectD2Ev
Fua:__ZN10__cxxabiv112_GLOBAL__N_114is_initializedEPj
Gua:b18
Hua:_strcat
Iua:__ZNK12_GLOBAL__N_116itanium_demangle9NodeArray4sizeEv
Jua:__ZN9localFile14GetInformationEv
Kua:__ZN9MemStruct5SetPtEt
Lua:__ZN20CDROM_Interface_Fake9SetDeviceEPci
Mua:__ZN13Virtual_Drive7TestDirEPc
Nua:__ZN12_GLOBAL__N_116itanium_demangle22ParameterPackExpansionD0Ev
Oua:__ZN12_GLOBAL__N_116itanium_demangle22ElaboratedTypeSpefTypeD0Ev
Pua:__ZN12_GLOBAL__N_116itanium_demangle22ConversionOperatorTypeD0Ev
Qua:__ZN10__cxxabiv119__getExceptionClassEPK17_Unwind_Exception
Rua:__ZL18cga16_color_selecth
Sua:_isxdigit
Tua:__zip_dirent_free
Uua:___cxx_global_var_init_3288
Vua:___cxx_global_var_init_2208
Wua:__ZNSt3__29basic_iosIcNS_11char_traitsIcEEED2Ev
Xua:__ZNKSt3__26vectorIP13CHandlerEventNS_9allocatorIS2_EEE8max_sizeEv
Yua:__ZN7DOS_PSP9GetParentEv
Zua:__ZN4OPL37HandlerC2Ev
_ua:__ZN4OPL27HandlerC2Ev
$ua:__ZN18DOS_KeyboardLayoutD0Ev
ava:__ZN15DescriptorTable8SetLimitEj
bva:__ZN12_GLOBAL__N_116itanium_demangle21StructuredBindingNameD0Ev
cva:__ZN12_GLOBAL__N_116itanium_demangle21CtorVtableSpecialNameD0Ev
dva:_toupper
eva:_tolower
fva:_strrchr
gva:__ZN9DOS_Drive8GetLabelEv
hva:__ZN7DOS_MCB9GetPSPSegEv
iva:__ZN7DOS_DTA8GetDirIDEv
jva:__ZN24VGA_UnchainedVGA_HandlerD0Ev
kva:__ZN24VGA_UnchainedEGA_HandlerD0Ev
lva:__ZN22CALLBACK_HandlerObject12Get_callbackEv
mva:__ZN20CDROM_Interface_FakeD0Ev
nva:__ZN16VGA_HERC_Handler13GetHostReadPtEj
ova:__ZN13DOS_InfoBlock14GetDeviceChainEv
pva:__ZN12_GLOBAL__N_116itanium_demangle20TemplateArgumentPackD0Ev
qva:__ZN12_GLOBAL__N_116itanium_demangle20PostfixQualifiedTypeD0Ev
rva:__ZN12_GLOBAL__N_116itanium_demangle20NameWithTemplateArgsD0Ev
sva:__ZN12_GLOBAL__N_116itanium_demangle20DynamicExceptionSpecD0Ev
tva:__ZL8FPU_FLD1v
uva:__Z10write_p3c4jjj
vva:__GLOBAL__sub_I_js_dos_debug_mem_cpp
wva:_mbsinit
xva:_do_read
yva:__ZNSt3__26locale5facetD0Ev
zva:__ZNSt3__26locale5__impD0Ev
Ava:__ZNKSt3__26vectorIPFvPP7ProgramENS_9allocatorIS5_EEE8max_sizeEv
Bva:__ZNK12_GLOBAL__N_116itanium_demangle9NodeArray5beginEv
Cva:__ZNK12_GLOBAL__N_116itanium_demangle4Node7getKindEv
Dva:__ZN6Config10SetStartUpEPFvvE
Eva:__ZN20IO_WriteHandleObjectD2Ev
Fva:__ZN13DOS_InfoBlock10GetPointerEv
Gva:__ZN12_GLOBAL__N_116itanium_demangle19SpecialSubstitutionD0Ev
Hva:__ZN12_GLOBAL__N_116itanium_demangle19SizeofParamPackExprD0Ev
Iva:__ZN12_GLOBAL__N_116itanium_demangle19PointerToMemberTypeD0Ev
Jva:__ZN12_GLOBAL__N_116itanium_demangle19GlobalQualifiedNameD0Ev
Kva:__ZN12_GLOBAL__N_116itanium_demangle16FloatLiteralImplIfED0Ev
Lva:__ZN12_GLOBAL__N_116itanium_demangle16FloatLiteralImplIeED0Ev
Mva:__ZN12_GLOBAL__N_116itanium_demangle16FloatLiteralImplIdED0Ev
Nva:__ZN12CSerialDummy16updatePortConfigEth
Ova:__ZN10cdromDrive10FileUnlinkEPc
Pva:__ZL14CURSOR_POS_ROWh_1037
Qva:__ZL14CURSOR_POS_COLh_1033
Rva:__ZL10EA_32_05_nv_335
Sva:___cxx_global_var_init_3
Tva:___cxx_global_var_init_2
Uva:__ZNSt3__28messagesIwED0Ev
Vva:__ZNSt3__28messagesIcED0Ev
Wva:__ZNSt3__25ctypeIcE21__classic_upper_tableEv
Xva:__ZNSt3__25ctypeIcE21__classic_lower_tableEv
Yva:__ZNSt3__212_GLOBAL__N_17countofIcEEmPKT_S4_
Zva:__ZNKSt3__26vectorIP10CBindGroupNS_9allocatorIS2_EEE8max_sizeEv
_va:__ZN7DOS_SDA8GetDriveEv
$va:__ZN7DOS_SDA6GetPSPEv
awa:__ZN7DOS_PSP7GetSizeEv
bwa:__ZN7DOS_MCB7GetSizeEv
cwa:__ZN3LOGclEPKcS1_S1_
dwa:__ZN22VGA_LFBChanges_HandlerD0Ev
ewa:__ZN22VGA_ChainedVGA_HandlerD0Ev
fwa:__ZN22VGA_ChainedEGA_HandlerD0Ev
gwa:__ZN20Prop_multival_remainD0Ev
hwa:__ZN12_GLOBAL__N_116itanium_demangle18ArraySubscriptExprD0Ev
iwa:__ZL9read_p3c7jj
jwa:__ZL20get_clock_index_et3kv
kwa:__ZL14CURSOR_POS_ROWh_874
lwa:__ZL14CURSOR_POS_COLh_873
mwa:__Z15GetClock_PVGA1Av
nwa:__Z13GetClock_ET4Kv
owa:__Z13GetClock_ET3Kv
pwa:__ZNSt3__28numpunctIwED0Ev
qwa:__ZNSt3__28numpunctIcED0Ev
rwa:__ZNSt3__215__refstring_imp12_GLOBAL__N_113rep_from_dataEPKc
swa:__ZN9DOS_Drive6SetDirEPKc
twa:__ZN6Events24supplyScreenshotIfNeededEv
uwa:__ZN3LOGC2E9LOG_TYPES14LOG_SEVERITIES
vwa:__ZN21VGA_TANDY_PageHandlerD0Ev
wwa:__ZN21InitPageUserROHandlerD0Ev
xwa:__ZN19IO_ReadHandleObjectD2Ev
ywa:__ZN12_GLOBAL__N_116itanium_demangle17VendorExtQualTypeD0Ev
zwa:__ZN10cdromDrive9RemoveDirEPc
Awa:__Z8CPU_LLDTj
Bwa:__Z16CMOS_SetRegisterjh
Cwa:__ZNKSt3__26vectorIP9DOS_DriveNS_9allocatorIS2_EEE8max_sizeEv
Dwa:__ZNKSt3__26vectorI10copysourceNS_9allocatorIS1_EEE8max_sizeEv
Ewa:__ZN8isoDrive10FileUnlinkEPc
Fwa:__ZN7DOS_MCB7GetTypeEv
Gwa:__ZN4OPL37Handler4InitEj
Hwa:__ZN4OPL27Handler4InitEj
Iwa:__ZN20VGA_TEXT_PageHandlerD0Ev
Jwa:__ZN15DescriptorTable7SetBaseEj
Kwa:__ZN12_GLOBAL__N_116itanium_demangle16StdQualifiedNameD0Ev
Lwa:__ZN12_GLOBAL__N_116itanium_demangle16FunctionEncodingD0Ev
Mwa:___cxx_global_var_init_1
Nwa:__ZNSt3__27collateIwED0Ev
Owa:__ZNSt3__27collateIcED0Ev
Pwa:__ZNSt3__25ctypeIwED0Ev
Qwa:__ZN19VGA_Changes_HandlerD0Ev
Rwa:__ZN16SVGA_PVGA1A_DATA6lockedEv
Swa:__ZN15CStickBindGroupD0Ev
Twa:__ZN15C4AxisBindGroupD0Ev
Uwa:__ZN12_GLOBAL__N_116itanium_demangle15UnnamedTypeNameD0Ev
Vwa:__ZN12_GLOBAL__N_116itanium_demangle15PixelVectorTypeD0Ev
Wwa:__ZN12_GLOBAL__N_116itanium_demangle15LiteralOperatorD0Ev
Xwa:__ZN12_GLOBAL__N_116itanium_demangle15IntegerCastExprD0Ev
Ywa:__ZN12_GLOBAL__N_116itanium_demangle15ConditionalExprD0Ev
Zwa:__ZN12_GLOBAL__N_116itanium_demangle15ClosureTypeNameD0Ev
_wa:__ZN12_GLOBAL__N_116itanium_demangle15BracedRangeExprD0Ev
$wa:__ZN10cdromDrive7MakeDirEPc
axa:__ZL21read_crtc_index_otherjj
bxa:__Z14MEM_NextHandlei
cxa:__ZNSt3__213basic_ostreamIcNS_11char_traitsIcEEED2Ev
dxa:__ZNSt3__213basic_istreamIcNS_11char_traitsIcEEED2Ev
exa:__ZNKSt3__26vectorIP7CButtonNS_9allocatorIS2_EEE8max_sizeEv
fxa:__ZN8isoDrive9RemoveDirEPc
gxa:__ZN7CSerial9Write_SPREh
hxa:__ZN18IllegalPageHandlerD0Ev
ixa:__ZN13Virtual_Drive6RenameEPcS0_
jxa:__ZN12_GLOBAL__N_116itanium_demangle14IntegerLiteralD0Ev
kxa:__ZN12_GLOBAL__N_116itanium_demangle14ConversionExprD0Ev
lxa:__ZL14CURSOR_POS_ROWh
mxa:__ZL14CURSOR_POS_COLh
nxa:__Z8GFX_Stopv
oxa:__Z15close_directoryP10dir_struct
pxa:b5
qxa:_llvm_cttz_i32
rxa:_catgets
sxa:__ZNKSt3__26vectorIP6CEventNS_9allocatorIS2_EEE8max_sizeEv
txa:__ZNKSt3__26vectorI9SDL_EventNS_9allocatorIS1_EEE8max_sizeEv
uxa:__ZN8DOS_File8SetDriveEh
vxa:__ZN3LOGclEPKcdS1_
wxa:__ZN3LOGclEPKcS1_d
xxa:__ZN17VGA_Empty_HandlerD0Ev
yxa:__ZN17VGA_Empty_Handler6writebEjj
zxa:__ZN13CFCSBindGroupD0Ev
Axa:__ZN12_GLOBAL__N_116itanium_demangle13ReferenceTypeD0Ev
Bxa:__ZN12_GLOBAL__N_116itanium_demangle13QualifiedNameD0Ev
Cxa:__ZN12_GLOBAL__N_116itanium_demangle13ParameterPackD0Ev
Dxa:__ZN12_GLOBAL__N_116itanium_demangle13ObjCProtoNameD0Ev
Exa:__ZN12_GLOBAL__N_116itanium_demangle13NodeArrayNodeD0Ev
Fxa:__ZN12_GLOBAL__N_116itanium_demangle13FunctionParamD0Ev
Gxa:__ZN12_GLOBAL__N_116itanium_demangle13EnclosingExprD0Ev
Hxa:__ZL7add_keyt
Ixa:dynCall_ii
Jxa:___clang_call_terminate
Kxa:__ZNSt12length_errorD0Ev
Lxa:__ZNKSt3__28numpunctIwE16do_thousands_sepEv
Mxa:__ZNKSt3__25ctypeIwE8do_widenEc
Nxa:__ZN8isoDrive7MakeDirEPc
Oxa:__ZN7CButton8SetColorEh
Pxa:__ZN6CEvent8SetValueEi
Qxa:__ZN21CDROM_Interface_Image9TrackFileC2Ev
Rxa:__ZN16VGA_PCJR_HandlerD0Ev
Sxa:__ZN16VGA_MMIO_HandlerD0Ev
Txa:__ZN16VGA_LIN4_HandlerD0Ev
Uxa:__ZN16VGA_HERC_HandlerD0Ev
Vxa:__ZN12_GLOBAL__N_116itanium_demangle12TemplateArgsD0Ev
Wxa:__ZN12_GLOBAL__N_116itanium_demangle12NoexceptSpecD0Ev
Xxa:__ZN12_GLOBAL__N_116itanium_demangle12InitListExprD0Ev
Yxa:__ZN12_GLOBAL__N_116itanium_demangle12FunctionTypeD0Ev
Zxa:__ZN12_GLOBAL__N_116itanium_demangle12EnableIfAttrD0Ev
_xa:__ZN12_GLOBAL__N_116itanium_demangle12CtorDtorNameD0Ev
$xa:__ZN12CCHBindGroupD0Ev
aya:__ZN10DescriptorC2Ev
bya:_strtold_l
cya:__ZNSt3__28ios_baseD0Ev
dya:__ZNSt3__25ctypeIcED0Ev
eya:__ZNSt3__210moneypunctIwLb1EED2Ev
fya:__ZNSt3__210moneypunctIwLb0EED2Ev
gya:__ZNSt3__210moneypunctIcLb1EED2Ev
hya:__ZNSt3__210moneypunctIcLb0EED2Ev
iya:__ZNSt11logic_errorD0Ev
jya:__ZNKSt3__28numpunctIwE16do_decimal_pointEv
kya:__ZN8IMGMOUNTC2Ev
lya:__ZN7DOS_MCBC2Et
mya:__ZN7DOS_DTAC2Ej
nya:__ZN20CDROM_Interface_Fake14ChannelControlE5SCtrl
oya:__ZN16TaskStateSegment7IsValidEv
pya:__ZN16DOS_DeviceHeaderC2Ej
qya:__ZN16CContinuousEvent16GetActivityCountEv
rya:__ZN15VGA_Map_HandlerD0Ev
sya:__ZN15VGA_LFB_HandlerD0Ev
tya:__ZN15MidiHandler_ossD0Ev
uya:__ZN15InitPageHandlerD0Ev
vya:__ZN13device_MSCDEX4ReadEPhPt
wya:__ZN13Prop_multivalD0Ev
xya:__ZN13CKeyBindGroupD0Ev
yya:__ZN12_GLOBAL__N_116itanium_demangle11SpecialNameD0Ev
zya:__ZN12_GLOBAL__N_116itanium_demangle11PostfixExprD0Ev
Aya:__ZN12_GLOBAL__N_116itanium_demangle11PointerTypeD0Ev
Bya:__ZN12Virtual_File5WriteEPhPt
Cya:__ZN11MidiHandler9PlaySysexEPhj
Dya:__ZL16VESA_PMSetWindowv
Eya:__ZNSt3__220__time_get_c_storageIwEC2Ev
Fya:__ZNSt3__220__time_get_c_storageIcEC2Ev
Gya:__ZNKSt3__28numpunctIcE16do_thousands_sepEv
Hya:__ZNKSt3__28numpunctIcE16do_decimal_pointEv
Iya:__ZNKSt3__26vectorI5ValueNS_9allocatorIS1_EEE8max_sizeEv
Jya:__ZNKSt3__221__basic_string_commonILb1EE20__throw_out_of_rangeEv
Kya:__ZNKSt3__221__basic_string_commonILb1EE20__throw_length_errorEv
Lya:__ZN7LOADROMC2Ev
Mya:__ZN7LOADFIXC2Ev
Nya:__ZN21CDROM_Interface_Image15LoadUnloadMediaEb
Oya:__ZN14ROMPageHandlerD0Ev
Pya:__ZN14RAMPageHandlerD0Ev
Qya:__ZN13device_MSCDEX4SeekEPjj
Rya:__ZN12_GLOBAL__N_116itanium_demangle10VectorTypeD0Ev
Sya:__ZN12_GLOBAL__N_116itanium_demangle10PrefixExprD0Ev
Tya:__ZN12_GLOBAL__N_116itanium_demangle10NestedNameD0Ev
Uya:__ZN12_GLOBAL__N_116itanium_demangle10MemberExprD0Ev
Vya:__ZN12_GLOBAL__N_116itanium_demangle10DeleteExprD0Ev
Wya:__ZN12_GLOBAL__N_116itanium_demangle10BracedExprD0Ev
Xya:__ZN12_GLOBAL__N_116itanium_demangle10BinaryExprD0Ev
Yya:__ZN12_GLOBAL__N_116itanium_demangle10AbiTagAttrD0Ev
Zya:__ZL8read_p64jj
_ya:_strtof_l
$ya:_strtod_l
aza:__ZNKSt3__220__vector_base_commonILb1EE20__throw_length_errorEv
bza:__ZN6RESCANC2Ev
cza:__ZN6CONFIGC2Ev
dza:__ZN5DBOPL7HandlerD0Ev
eza:__ZN20CDROM_Interface_Fake15LoadUnloadMediaEb
fza:__ZN14DOS_ParamBlockC2Ej
gza:__ZN12Section_propD0Ev
hza:__ZN12Section_lineD0Ev
iza:__ZN12CSerialDummyD0Ev
jza:__Z19CALLBACK_DeAllocatej
kza:__Z16INT10_GetPelMaskRh
lza:__ZNSt3__215basic_streambufIcNS_11char_traitsIcEEE9showmanycEv
mza:__ZN5MOUNTC2Ev
nza:__ZN5MIXERC2Ev
oza:__ZN5INTROC2Ev
pza:__ZN4OPL37HandlerD0Ev
qza:__ZN4OPL27HandlerD0Ev
rza:__ZN3LOGclEPKcdd
sza:__ZN12_GLOBAL__N_116itanium_demangle9ThrowExprD0Ev
tza:__ZN12_GLOBAL__N_116itanium_demangle9LocalNameD0Ev
uza:__ZN12_GLOBAL__N_116itanium_demangle9DotSuffixD0Ev
vza:__ZN12_GLOBAL__N_116itanium_demangle9ArrayTypeD0Ev
wza:__ZN12_GLOBAL__N_112OutputStream9getBufferEv
xza:__ZN10device_EMM4ReadEPhPt
yza:__Z11DRIVES_InitP7Section
zza:__Z10MAPPER_Runb
Aza:__ZN5Adlib6ModuleD0Ev
Bza:__ZN4WGETC2Ev
Cza:__ZN4KEYBC2Ev
Dza:__ZN4BOOTC2Ev
Eza:__ZN12_GLOBAL__N_116itanium_demangle8QualTypeD0Ev
Fza:__ZN12_GLOBAL__N_116itanium_demangle8NameTypeD0Ev
Gza:__ZN12_GLOBAL__N_116itanium_demangle8FoldExprD0Ev
Hza:__ZN12_GLOBAL__N_116itanium_demangle8DtorNameD0Ev
Iza:__ZN12_GLOBAL__N_116itanium_demangle8CastExprD0Ev
Jza:__ZN12_GLOBAL__N_116itanium_demangle8CallExprD0Ev
Kza:__ZN12_GLOBAL__N_116itanium_demangle8BoolExprD0Ev
Lza:__ZN11SERIALPORTSD0Ev
Mza:__ZN11Module_baseD0Ev
Nza:__ZN11MidiHandlerD0Ev
Oza:__ZN10device_EMM4SeekEPjj
Pza:__ZN10__cxxabiv121__isOurExceptionClassEPK17_Unwind_Exception
Qza:__ZN9localFile18FlagReadOnlyMediumEv
Rza:__ZN7DOS_PSP8GetStackEv
Sza:__ZN7DOS_PSP8GetInt22Ev
Tza:__ZN3MEMC2Ev
Uza:__ZN13Virtual_DriveD0Ev
Vza:__ZN12_GLOBAL__N_116itanium_demangle7NewExprD0Ev
Wza:__ZN11Module_base13Change_ConfigEP7Section
Xza:__ZL8FPU_FTSTv
Yza:__Z13vga_read_p3d4jj
Zza:establishStackSpace
_za:_free
$za:__ZNKSt3__210moneypunctIwLb1EE16do_thousands_sepEv
aAa:__ZNKSt3__210moneypunctIwLb1EE16do_decimal_pointEv
bAa:__ZNKSt3__210moneypunctIwLb0EE16do_thousands_sepEv
cAa:__ZNKSt3__210moneypunctIwLb0EE16do_decimal_pointEv
dAa:__ZNK6Config10SecureModeEv
eAa:__ZNK12_GLOBAL__N_110StringView3endEv
fAa:__ZN7isoFile5WriteEPhPt
gAa:__ZN14CCaptionButtonD0Ev
hAa:__ZN13device_MSCDEXD0Ev
iAa:__ZN10localDrive12GetMediaByteEv
jAa:__ZN10device_COMD0Ev
kAa:__ZN10TANDYSOUNDD0Ev
lAa:b17
mAa:__ZNSt3__28messagesIwED2Ev
nAa:__ZNSt3__28messagesIcED2Ev
oAa:__ZNSt3__25ctypeIcE13classic_tableEv
pAa:__ZN7DOS_SDA6GetDTAEv
qAa:__ZN20CDROM_Interface_Fake10PauseAudioEb
rAa:__ZN12Virtual_FileD0Ev
sAa:__ZL9FPU_FUCOMjj
tAa:__ZL15IO_WriteBlockedjjj
uAa:__ZL11FPU_FST_F80j
vAa:_isspace
wAa:__ZNSt8bad_castD0Ev
xAa:__ZNSt3__27collateIwED2Ev
yAa:__ZNSt3__27collateIcED2Ev
zAa:__ZNSt3__215basic_streambufIcNS_11char_traitsIcEEE4syncEv
AAa:__ZNKSt3__27codecvtIDsc11__mbstate_tE16do_always_noconvEv
BAa:__ZNKSt3__27codecvtIDic11__mbstate_tE16do_always_noconvEv
CAa:__ZNKSt3__218__libcpp_refstring5c_strEv
DAa:__ZNK12_GLOBAL__N_110StringView5beginEv
EAa:__ZN6Config18SwitchToSecureModeEv
FAa:__ZN5Adlib7CaptureD2Ev
GAa:__ZN13Prop_multival10GetSectionEv
HAa:__ZN13CJButtonEventD0Ev
IAa:__ZN13CHandlerEventD0Ev
JAa:__ZN12CEventButtonD0Ev
KAa:__ZN12CCheckButtonD0Ev
LAa:__ZN11device_LPT1D0Ev
MAa:__ZN11Prop_stringD0Ev
NAa:__ZN10localDriveD0Ev
OAa:__ZN10cdromDriveD0Ev
PAa:__ZN10DmaChannel13Raise_RequestEv
QAa:__ZN10DmaChannel13Clear_RequestEv
RAa:dynCall_vi
SAa:__ZNKSt3__27codecvtIwc11__mbstate_tE16do_always_noconvEv
TAa:__ZNKSt3__27codecvtIcc11__mbstate_tE16do_always_noconvEv
UAa:__ZN5DBOPL8Operator14TemplateVolumeILNS0_5StateE0EEEiv
VAa:__ZN13CKeyBindGroup11ConfigStartEv
WAa:__ZN13CHandlerEvent10ButtonNameEv
XAa:__ZN11CTextButtonD0Ev
YAa:__ZN11CBindButtonD0Ev
ZAa:__ZN10device_NULD0Ev
_Aa:__ZN10device_EMMD0Ev
$Aa:__ZN10device_COND0Ev
aBa:__ZN10DOS_DeviceD0Ev
bBa:__ZL9read_p3cejj
cBa:__ZL9read_p3ccjj
dBa:__ZL9read_p3c8jj
eBa:__ZL9read_p3c6jj
fBa:__ZL16VGA_PanningLatchj
gBa:__ZN9Prop_pathD0Ev
hBa:__ZN9PIC_8259AD0Ev
iBa:__ZN9PCSPEAKERD0Ev
jBa:__ZN9DOS_ShellD0Ev
kBa:__ZN9BatchFileD0Ev
lBa:__ZN8isoDrive12GetMediaByteEv
mBa:__ZN8Prop_int6getMinEv
nBa:__ZN8Prop_int6getMaxEv
oBa:__ZN8DOS_File6IsOpenEv
pBa:__ZN7DOS_FCB8ExtendedEv
qBa:__ZN7CMscdex13GetFirstDriveEv
rBa:__ZN6PAGINGD0Ev
sBa:__ZN6MyFifo7isEmptyEv
tBa:__ZN12CJButtonBindD0Ev
uBa:__ZN11CJAxisEventD0Ev
vBa:__ZL13DOS_20Handlerv
wBa:__ZL10EA_16_07_nv_404
xBa:__ZL10EA_16_07_nv_313
yBa:__ZL10EA_16_05_nv_402
zBa:__ZL10EA_16_05_nv_311
ABa:__ZL10EA_16_04_nv_401
BBa:__ZL10EA_16_04_nv_310
CBa:__Z9read_p3c4jj
DBa:_strcpy
EBa:_freelocale
FBa:___lctrans
GBa:__ZNSt3__217_DeallocateCaller9__do_callEPv
HBa:__ZNKSt3__27codecvtIDsc11__mbstate_tE13do_max_lengthEv
IBa:__ZNKSt3__27codecvtIDic11__mbstate_tE13do_max_lengthEv
JBa:__ZNKSt3__25ctypeIcE8do_widenEc
KBa:__ZN9localFileD0Ev
LBa:__ZN9Prop_boolD0Ev
MBa:__ZN8fatDriveD0Ev
NBa:__ZN18GDTDescriptorTable4SLDTEv
OBa:__ZN15DescriptorTable8GetLimitEv
PBa:__ZN10CJHatEventD0Ev
QBa:__Z12GFX_SetTitleiib
RBa:__ZNSt3__211char_traitsIcE12to_char_typeEi
SBa:__ZNKSt3__27codecvtIcc11__mbstate_tE13do_max_lengthEv
TBa:__ZN9imageDisk11getSectSizeEv
UBa:__ZN8isoDriveD0Ev
VBa:__ZN8SBLASTERD0Ev
WBa:__ZN8Prop_intD0Ev
XBa:__ZN8Prop_hexD0Ev
YBa:__ZN8JOYSTICKD0Ev
ZBa:__ZN8HARDWARED0Ev
_Ba:__ZN8AUTOEXECD0Ev
$Ba:__ZN11PageHandler14GetHostWritePtEj
aCa:__ZN10CJAxisBindD0Ev
bCa:__ZL10EA_32_07_nv_428
cCa:__ZL10EA_32_07_nv_337
dCa:__ZL10EA_32_06_nv_427
eCa:__ZL10EA_32_06_nv_336
fCa:__ZL10EA_32_03_nv_424
gCa:__ZL10EA_32_03_nv_333
hCa:__ZL10EA_32_02_nv_423
iCa:__ZL10EA_32_02_nv_332
jCa:__ZL10EA_32_01_nv_422
kCa:__ZL10EA_32_01_nv_331
lCa:__ZL10EA_32_00_nv_421
mCa:__ZL10EA_32_00_nv_330
nCa:__Z16INT10_SetPelMaskh
oCa:_zip_file_strerror
pCa:__ZSt18uncaught_exceptionv
qCa:__ZNSt3__211char_traitsIcE11to_int_typeEc
rCa:__ZNKSt3__27codecvtIDsc11__mbstate_tE11do_encodingEv
sCa:__ZNKSt3__27codecvtIDic11__mbstate_tE11do_encodingEv
tCa:__ZNKSt3__210moneypunctIcLb1EE16do_thousands_sepEv
uCa:__ZNKSt3__210moneypunctIcLb1EE16do_decimal_pointEv
vCa:__ZNKSt3__210moneypunctIcLb0EE16do_thousands_sepEv
wCa:__ZNKSt3__210moneypunctIcLb0EE16do_decimal_pointEv
xCa:__ZN9CModEventD0Ev
yCa:__ZN9CKeyEventD0Ev
zCa:__ZN8IMGMOUNTD0Ev
ACa:__ZN7isoFileD0Ev
BCa:__ZN7fatFileD0Ev
CCa:__ZN3CPUD0Ev
DCa:__ZN13Virtual_Drive10FileUnlinkEPc
ECa:__ZN11PageHandler13GetHostReadPtEj
FCa:__ZL12CaptureMouseb
GCa:_strtold
HCa:__ZNSt3__211char_traitsIwE6lengthEPKw
ICa:__ZNSt3__211char_traitsIcE6lengthEPKc
JCa:__ZNKSt3__27codecvtIcc11__mbstate_tE11do_encodingEv
KCa:__ZN9CJHatBindD0Ev
LCa:__ZN7LOADROMD0Ev
MCa:__ZN7LOADFIXD0Ev
NCa:__ZN7CSerial8Read_SPREv
OCa:__ZN7CSerial8Read_LCREv
PCa:__ZN7CButtonD0Ev
QCa:__ZN3LOGclEPKcS1_
RCa:__ZN3HexC2Ei
SCa:__ZN2IOD0Ev
TCa:__ZN20IO_WriteHandleObjectC2Ev
UCa:__ZN17VGA_Empty_Handler5readbEj
VCa:__ZN11MidiHandler7ListAllEP7Program
WCa:__Z4pingPKc
XCa:_strtof
YCa:_strtod
ZCa:__ZNKSt3__28messagesIwE8do_closeEl
_Ca:__ZNKSt3__28messagesIcE8do_closeEl
$Ca:__ZNKSt3__218__libcpp_refstring15__uses_refcountEv
aDa:__ZN8CKeyBindD0Ev
bDa:__ZN6RESCAND0Ev
cDa:__ZN6CONFIGD0Ev
dDa:__ZN19IO_ReadHandleObjectC2Ev
eDa:__ZN15CDROM_InterfaceC2Ev
fDa:__ZN13Virtual_Drive9RemoveDirEPc
gDa:__ZN11CommandLine8GetCountEv
hDa:__ZL13INT12_Handlerv
iDa:__ZL13INT11_Handlerv
jDa:__ZL10EA_16_07_nv
kDa:__ZL10EA_16_05_nv
lDa:__ZL10EA_16_04_nv
mDa:b4
nDa:__ZN6MPU401D0Ev
oDa:__ZN6MEMORYD0Ev
pDa:__ZN6DISNEYD0Ev
qDa:__ZN5MOUNTD0Ev
rDa:__ZN5MIXERD0Ev
sDa:__ZN5INTROD0Ev
tDa:__ZN16CommandInterface6eventsEv
uDa:__ZN15DescriptorTable7GetBaseEv
vDa:__ZN14TSS_DescriptorC2Ev
wDa:__ZN12_GLOBAL__N_116itanium_demangle4NodeD0Ev
xDa:__Z14CPU_SIDT_limitv
yDa:__Z14CPU_SGDT_limitv
zDa:__Z10GetKeyCode10SDL_Keysym
ADa:__zip_progress_end
BDa:__ZNKSt3__210moneypunctIwLb1EE14do_frac_digitsEv
CDa:__ZNKSt3__210moneypunctIwLb0EE14do_frac_digitsEv
DDa:__ZNKSt3__210moneypunctIcLb1EE14do_frac_digitsEv
EDa:__ZNKSt3__210moneypunctIcLb0EE14do_frac_digitsEv
FDa:__ZN8Property9getChangeEv
GDa:__ZN7DOS_PSP10GetSegmentEv
HDa:__ZN4WGETD0Ev
IDa:__ZN4KEYBD0Ev
JDa:__ZN4BOOTD0Ev
KDa:__ZN13Virtual_Drive7MakeDirEPc
LDa:__ZL13END_DMA_Eventj
MDa:__ZL10EA_32_07_nv
NDa:__ZL10EA_32_06_nv
ODa:__ZL10EA_32_03_nv
PDa:__ZL10EA_32_02_nv
QDa:__ZL10EA_32_01_nv
RDa:__ZL10EA_32_00_nv
SDa:_zip_strerror
TDa:___emscripten_environ_constructor
UDa:___cxx_global_var_init_476
VDa:__ZN8Property8Get_typeEv
WDa:__ZN5TIMERD0Ev
XDa:__ZN5Adlib7HandlerC2Ev
YDa:__ZN5Adlib5Timer4StopEv
ZDa:__ZN3MEMD0Ev
_Da:__Z28SecondDMAControllerAvailablev
$Da:__Z13CPU_SIDT_basev
aEa:__Z13CPU_SGDT_basev
bEa:__GLOBAL__sub_I_js_dos_asyncify_cpp
cEa:__ZNSt3__211char_traitsIwE11to_int_typeEw
dEa:__ZN8DOS_File8GetDriveEv
eEa:__ZN8DOS_File7GetNameEv
fEa:__ZN7CMscdex12GetNumDrivesEv
gEa:__ZN3LOGclEPKcd
hEa:__ZN15CStickBindGroup11ConfigStartEv
iEa:__ZN11Module_baseD2Ev
jEa:_zError
kEa:_isxdigit_l
lEa:__ZNK8Property17Get_Default_ValueEv
mEa:__ZN6CEvent8GetValueEv
nEa:__ZN4MIDID0Ev
oEa:__ZN4CMOSD0Ev
pEa:__ZN4BIOSD0Ev
qEa:__ZN21CDROM_Interface_Image9TrackFileD0Ev
rEa:__ZN15DOS_Drive_Cache8GetLabelEv
sEa:__ZN12CSerialDummy8setBreakEb
tEa:__ZL8overheadv
uEa:__Z4trimPc
vEa:_zip_error_code_system
wEa:__ZNSt8bad_castC2Ev
xEa:__ZN4OPL312operator_offEPNS_15operator_structE
yEa:__ZN4OPL212operator_offEPNS_15operator_structE
zEa:__ZN11MidiHandler7PlayMsgEPh
AEa:__ZN11MidiHandler4OpenEPKc
BEa:__Z17XMS_GetEnabledA20v
CEa:__Z14DOSBOX_SetLoopPFjvE
DEa:__GLOBAL__sub_I_shell_misc_cpp
EEa:_isdigit_l
FEa:_isalpha
GEa:__ZN3XMSD0Ev
HEa:__ZN3GUSD0Ev
IEa:__ZN3EMSD0Ev
JEa:__ZN3DOSD0Ev
KEa:__ZN3DMAD0Ev
LEa:__ZN3CMSD0Ev
MEa:__ZN12_GLOBAL__N_116itanium_demangle4NodeD2Ev
NEa:__ZN12CSerialDummy6setRTSEb
OEa:__ZN12CSerialDummy6setDTREb
PEa:__Z13isNormalStatev
QEa:_copysignl
REa:__ZSt19uncaught_exceptionsv
SEa:__ZN13device_MSCDEX14GetInformationEv
TEa:__ZN10device_COMD2Ev
UEa:__GLOBAL__sub_I_programs_cpp
VEa:__GLOBAL__sub_I_hardware_cpp
WEa:_scalbnl
XEa:__ZNK10__cxxabiv116__shim_type_info5noop2Ev
YEa:__ZNK10__cxxabiv116__shim_type_info5noop1Ev
ZEa:__ZN21CDROM_Interface_Image12InitNewMediaEv
_Ea:__ZL9FPU_FCLEXv
$Ea:__ZL14IO_ReadBlockedjj
aFa:__Z8CPU_SLDTv
bFa:dynCall_i
cFa:b16
dFa:__ZN8isoDriveD2Ev
eFa:__ZN11device_LPT114GetInformationEv
fFa:__ZN11MixerObjectC2Ev
gFa:__ZL9read_p3c8jj_3015
hFa:__ZL8ClrQueuev
iFa:__Z22SVGA_S3_HWCursorActivev
jFa:__Z15DMA_SetWrappingj
kFa:__Z12DOS_SetErrort
lFa:__GLOBAL__sub_I_drives_cpp
mFa:_ldexp
nFa:__zip_buffer_data
oFa:__ZN8DOS_File22UpdateDateTimeFromHostEv
pFa:__ZN6Events5readyEv
qFa:__ZN5ValueD2Ev
rFa:__ZN21CDROM_Interface_Image9TrackFileD2Ev
sFa:__ZN10device_NUL14GetInformationEv
tFa:__ZN10device_EMM14GetInformationEv
uFa:__ZN10device_COM14GetInformationEv
vFa:__ZL19Mouse_ResetHardwarev
wFa:__Z8FPU_InitP7Section
xFa:__GLOBAL__sub_I_setup_cpp
yFa:__zip_source_eof
zFa:___cxa_guard_abort
AFa:__ZNSt3__212__cxx03_bool12__true_valueEv
BFa:__ZN8isoDrive8GetLabelEv
CFa:__ZN7fatFile22UpdateDateTimeFromHostEv
DFa:__ZN20CDROM_Interface_Fake9StopAudioEv
EFa:__ZN16CContinuousEvent14RepostActivityEv
FFa:__ZL18TandyDACDMAEnabledv
GFa:b14
HFa:_zip_error_code_zip
IFa:_end_of_input
JFa:__ZNSt3__221__throw_runtime_errorEPKc
KFa:__ZN12Virtual_File14GetInformationEv
LFa:_pthread_cond_wait
MFa:_isupper
NFa:_isprint
OFa:_islower
PFa:_isdigit
QFa:__ZNK8Property9GetValuesEv
RFa:__ZN15MidiHandler_oss7GetNameEv
SFa:__ZN13Virtual_Drive12GetMediaByteEv
TFa:__ZN13CKeyBindGroup9BindStartEv
UFa:__ZN10__cxxabiv116__shim_type_infoD2Ev
VFa:__Z26CPU_Disable_SkipAutoAdjustv
WFa:__Z13initSyncSleepv
XFa:__GLOBAL__sub_I_cpu_cpp
YFa:_zcfree
ZFa:___cxx_global_var_init_5
_Fa:___cxx_global_var_init_39
$Fa:__ZNK8Property8GetValueEv
aGa:__ZN7IO_BaseC2Ev
bGa:__ZN15CDROM_Interface12InitNewMediaEv
cGa:__Z14registerSendFnv
dGa:_fmodl
eGa:__ZN9DOS_Drive7GetInfoEv
fGa:__ZN16CContinuousEvent9IsTriggerEv
gGa:__ZN13Virtual_Drive11isRemovableEv
hGa:__ZL9read_p3cajj
iGa:__Z15MEM_A20_Enabledv
jGa:__ZN15CTriggeredEvent9IsTriggerEv
kGa:__Z14MIDI_Availablev
lGa:_destroySyncSleep
mGa:__zip_buffer_ok
nGa:__ZNK3HexcviEv
oGa:__ZN3HexC2Ev
pGa:__ZN11MidiHandler7GetNameEv
qGa:__Z23DOS_GetMemAllocStrategyv
rGa:__Z15GFX_LosingFocusv
sGa:b3
tGa:_catopen
uGa:__ZN7isoFile14GetInformationEv
vGa:__ZN6CEvent7GetNameEv
wGa:__ZN13Virtual_Drive10EmptyCacheEv
xGa:__ZN10localDrive11isRemovableEv
yGa:__ZN10cdromDrive11isRemovableEv
zGa:__Z21DestroyConditionFlagsv
AGa:__Z20DOSBOX_SetNormalLoopv
BGa:__ZN7fatFile14GetInformationEv
CGa:__ZN3LOGclEPKc
DGa:__ZN16CContinuousEventD0Ev
EGa:__ZN13Virtual_Drive8isRemoteEv
FGa:__ZL23RENDER_EmptyLineHandlerPKv
GGa:__ZN15CTriggeredEventD0Ev
HGa:__ZN15CDROM_InterfaceD0Ev
IGa:__ZN13Virtual_Drive7UnMountEv
JGa:dynCall_v
KGa:__ZNSt3__214__shared_countD2Ev
LGa:__ZNKSt8bad_cast4whatEv
MGa:__ZN8isoDrive11isRemovableEv
NGa:__ZN8fatDrive11isRemovableEv
OGa:__ZN7CMscdex10GetVersionEv
PGa:__ZN12CSerialDummy9updateMSREv
QGa:_zip_source_error
RGa:__ZN13device_MSCDEX5CloseEv
SGa:__ZN10localDrive8isRemoteEv
TGa:__ZN10cdromDrive8isRemoteEv
UGa:___emscripten_stdout_close
VGa:__ZN5Adlib7HandlerD0Ev
WGa:__ZN12Virtual_File5CloseEv
XGa:__Z26INT10_EGA_RIL_GetVersionPtv
YGa:__ZNSt3__26locale5facetD2Ev
ZGa:__ZNSt3__212__do_nothingEPv
_Ga:__ZN8isoDrive10EmptyCacheEv
$Ga:setEmtStackMax
aHa:__ZN8isoDrive8isRemoteEv
bHa:__ZN8fatDrive8isRemoteEv
cHa:__ZN10device_NUL5CloseEv
dHa:__ZN10device_EMM5CloseEv
eHa:__ZN10device_CON5CloseEv
fHa:__ZN10device_COM5CloseEv
gHa:__ZN10CBindGroupD0Ev
hHa:__Z17PAGING_GetDirBasev
iHa:emtStackRestore
jHa:_pthread_cond_broadcast
kHa:__ZN9DOS_Drive8ActivateEv
lHa:__ZN15CDROM_InterfaceD2Ev
mHa:__ZN11MidiHandler5CloseEv
nHa:__ZL10MIXER_StopP7Section
oHa:b15
pHa:_pkware_free
qHa:___ofl_lock
rHa:__ZN9DOS_DriveD0Ev
sHa:__ZN7CButton9BindColorEv
tHa:__Z14MEM_TotalPagesv
uHa:_pthread_mutex_unlock
vHa:_deallocate
wHa:___pthread_self_500
xHa:___pthread_self_497
yHa:___pthread_self_492
zHa:___pthread_self_483
AHa:___pthread_self_441
BHa:___pthread_self_323
CHa:___pthread_self_320
DHa:___pthread_self_134
EHa:__ZN8PropertyD0Ev
FHa:__ZN8DOS_FileD0Ev
GHa:__Z10MapSDLCodej
HHa:setAsyncState
IHa:__ZN7SectionD0Ev
JHa:__ZN7ProgramD0Ev
KHa:__ZN7CSerialD0Ev
LHa:__ZN5Adlib7HandlerD2Ev
MHa:_pthread_mutex_lock
NHa:__Znam
OHa:__ZdaPv
PHa:__ZN6CEventD0Ev
QHa:__ZN11PageHandlerD2Ev
RHa:__ZN11MidiHandlerD2Ev
SHa:__ZNSt9type_infoD2Ev
THa:__ZNSt9exceptionD2Ev
UHa:__ZN7CButton5ClickEv
VHa:__ZN5CBindD0Ev
WHa:__ZN10CBindGroupD2Ev
XHa:stackRestore
YHa:___ofl_unlock
ZHa:__ZdlPv
_Ha:__ZNSt8bad_castD2Ev
$Ha:__ZNSt3__211char_traitsIwE3eofEv
aIa:__ZNSt3__211char_traitsIcE3eofEv
bIa:__Z9GFX_Startv
cIa:_emscripten_get_sbrk_ptr
dIa:_dummy_278
eIa:__Z8CPU_SMSWv
fIa:getEmtStackMax
gIa:___cxa_get_globals_fast
hIa:__ZN7CButtonD2Ev
iIa:__Z7CPU_STRv
jIa:b1
kIa:___unlockfile
lIa:___lockfile
mIa:emtStackSave
nIa:___cxa_uncaught_exceptions
oIa:_catclose
pIa:___ctype_toupper_loc
qIa:___ctype_tolower_loc
rIa:__ZSt17__throw_bad_allocv
sIa:___errno_location
tIa:___em_js__syncSleep
uIa:__ZL17shellstop_handlerv
vIa:__ZSt15get_new_handlerv
wIa:__ZSt13get_terminatev
xIa:__ZL15DOS_CaseMapFuncv
yIa:__get_timezone
zIa:__get_daylight
AIa:stackSave
BIa:b13
CIa:__get_environ
DIa:__ZL13INT2A_Handlerv
EIa:__ZL13INT1C_Handlerv
FIa:__get_tzname
GIa:___ctype_b_loc
HIa:__ZL12stop_handlerv
IIa:_pthread_self
JIa:b0
KIa:_dummy_610
LIa:b12
